
bin/main.elf:     file format elf32-littlearm


Disassembly of section .isr_vector:

08000000 <InterruptVector>:
 8000000:	20020000 	andcs	r0, r2, r0
 8000004:	080001e5 	stmdaeq	r0, {r0, r2, r5, r6, r7, r8}
 8000008:	080001c9 	stmdaeq	r0, {r0, r3, r6, r7, r8}
 800000c:	080001db 	stmdaeq	r0, {r0, r1, r3, r4, r6, r7, r8}
 8000010:	080001c9 	stmdaeq	r0, {r0, r3, r6, r7, r8}
 8000014:	080001c9 	stmdaeq	r0, {r0, r3, r6, r7, r8}
 8000018:	080001c9 	stmdaeq	r0, {r0, r3, r6, r7, r8}
 800001c:	00000000 	andeq	r0, r0, r0
 8000020:	00000000 	andeq	r0, r0, r0
 8000024:	00000000 	andeq	r0, r0, r0
 8000028:	00000000 	andeq	r0, r0, r0
 800002c:	080001c9 	stmdaeq	r0, {r0, r3, r6, r7, r8}
 8000030:	080001c9 	stmdaeq	r0, {r0, r3, r6, r7, r8}
 8000034:	00000000 	andeq	r0, r0, r0
 8000038:	080001c9 	stmdaeq	r0, {r0, r3, r6, r7, r8}
 800003c:	080001c9 	stmdaeq	r0, {r0, r3, r6, r7, r8}
 8000040:	080001c9 	stmdaeq	r0, {r0, r3, r6, r7, r8}
 8000044:	080001c9 	stmdaeq	r0, {r0, r3, r6, r7, r8}
 8000048:	080001c9 	stmdaeq	r0, {r0, r3, r6, r7, r8}
 800004c:	080001c9 	stmdaeq	r0, {r0, r3, r6, r7, r8}
 8000050:	080001c9 	stmdaeq	r0, {r0, r3, r6, r7, r8}
 8000054:	080001c9 	stmdaeq	r0, {r0, r3, r6, r7, r8}
 8000058:	080001c9 	stmdaeq	r0, {r0, r3, r6, r7, r8}
 800005c:	080001c9 	stmdaeq	r0, {r0, r3, r6, r7, r8}
 8000060:	080001c9 	stmdaeq	r0, {r0, r3, r6, r7, r8}
 8000064:	080001c9 	stmdaeq	r0, {r0, r3, r6, r7, r8}
 8000068:	080001c9 	stmdaeq	r0, {r0, r3, r6, r7, r8}
 800006c:	080001c9 	stmdaeq	r0, {r0, r3, r6, r7, r8}
 8000070:	080001c9 	stmdaeq	r0, {r0, r3, r6, r7, r8}
 8000074:	080001c9 	stmdaeq	r0, {r0, r3, r6, r7, r8}
 8000078:	080001c9 	stmdaeq	r0, {r0, r3, r6, r7, r8}
 800007c:	080001c9 	stmdaeq	r0, {r0, r3, r6, r7, r8}
 8000080:	080001c9 	stmdaeq	r0, {r0, r3, r6, r7, r8}
 8000084:	080001c9 	stmdaeq	r0, {r0, r3, r6, r7, r8}
 8000088:	080001c9 	stmdaeq	r0, {r0, r3, r6, r7, r8}
 800008c:	080001c9 	stmdaeq	r0, {r0, r3, r6, r7, r8}
 8000090:	080001c9 	stmdaeq	r0, {r0, r3, r6, r7, r8}
 8000094:	080001c9 	stmdaeq	r0, {r0, r3, r6, r7, r8}
 8000098:	080001c9 	stmdaeq	r0, {r0, r3, r6, r7, r8}
 800009c:	080001c9 	stmdaeq	r0, {r0, r3, r6, r7, r8}
 80000a0:	080001c9 	stmdaeq	r0, {r0, r3, r6, r7, r8}
 80000a4:	080001c9 	stmdaeq	r0, {r0, r3, r6, r7, r8}
 80000a8:	080001c9 	stmdaeq	r0, {r0, r3, r6, r7, r8}
 80000ac:	080001c9 	stmdaeq	r0, {r0, r3, r6, r7, r8}
 80000b0:	08002f8d 	stmdaeq	r0, {r0, r2, r3, r7, r8, r9, sl, fp, sp}
 80000b4:	080001c9 	stmdaeq	r0, {r0, r3, r6, r7, r8}
 80000b8:	080001c9 	stmdaeq	r0, {r0, r3, r6, r7, r8}
 80000bc:	080001c9 	stmdaeq	r0, {r0, r3, r6, r7, r8}
 80000c0:	080001c9 	stmdaeq	r0, {r0, r3, r6, r7, r8}
 80000c4:	080001c9 	stmdaeq	r0, {r0, r3, r6, r7, r8}
 80000c8:	080001c9 	stmdaeq	r0, {r0, r3, r6, r7, r8}
 80000cc:	080001c9 	stmdaeq	r0, {r0, r3, r6, r7, r8}
 80000d0:	080001c9 	stmdaeq	r0, {r0, r3, r6, r7, r8}
 80000d4:	080001c9 	stmdaeq	r0, {r0, r3, r6, r7, r8}
 80000d8:	080001c9 	stmdaeq	r0, {r0, r3, r6, r7, r8}
 80000dc:	080001c9 	stmdaeq	r0, {r0, r3, r6, r7, r8}
 80000e0:	080001c9 	stmdaeq	r0, {r0, r3, r6, r7, r8}
 80000e4:	080001c9 	stmdaeq	r0, {r0, r3, r6, r7, r8}
 80000e8:	080001c9 	stmdaeq	r0, {r0, r3, r6, r7, r8}
 80000ec:	080001c9 	stmdaeq	r0, {r0, r3, r6, r7, r8}
 80000f0:	080001c9 	stmdaeq	r0, {r0, r3, r6, r7, r8}
 80000f4:	080001c9 	stmdaeq	r0, {r0, r3, r6, r7, r8}
 80000f8:	080001c9 	stmdaeq	r0, {r0, r3, r6, r7, r8}
 80000fc:	080001c9 	stmdaeq	r0, {r0, r3, r6, r7, r8}
 8000100:	080001c9 	stmdaeq	r0, {r0, r3, r6, r7, r8}
 8000104:	080001c9 	stmdaeq	r0, {r0, r3, r6, r7, r8}
 8000108:	080001c9 	stmdaeq	r0, {r0, r3, r6, r7, r8}
 800010c:	080001c9 	stmdaeq	r0, {r0, r3, r6, r7, r8}
 8000110:	080001c9 	stmdaeq	r0, {r0, r3, r6, r7, r8}
 8000114:	080001c9 	stmdaeq	r0, {r0, r3, r6, r7, r8}
 8000118:	080001c9 	stmdaeq	r0, {r0, r3, r6, r7, r8}
 800011c:	080001c9 	stmdaeq	r0, {r0, r3, r6, r7, r8}
 8000120:	080001c9 	stmdaeq	r0, {r0, r3, r6, r7, r8}
 8000124:	080001c9 	stmdaeq	r0, {r0, r3, r6, r7, r8}
 8000128:	080001c9 	stmdaeq	r0, {r0, r3, r6, r7, r8}
 800012c:	080001c9 	stmdaeq	r0, {r0, r3, r6, r7, r8}
 8000130:	080001c9 	stmdaeq	r0, {r0, r3, r6, r7, r8}
 8000134:	080001c9 	stmdaeq	r0, {r0, r3, r6, r7, r8}
 8000138:	080001c9 	stmdaeq	r0, {r0, r3, r6, r7, r8}
 800013c:	080001c9 	stmdaeq	r0, {r0, r3, r6, r7, r8}
 8000140:	080001c9 	stmdaeq	r0, {r0, r3, r6, r7, r8}
 8000144:	080001c9 	stmdaeq	r0, {r0, r3, r6, r7, r8}
 8000148:	080001c9 	stmdaeq	r0, {r0, r3, r6, r7, r8}
 800014c:	080001c9 	stmdaeq	r0, {r0, r3, r6, r7, r8}
 8000150:	080001c9 	stmdaeq	r0, {r0, r3, r6, r7, r8}
 8000154:	080001c9 	stmdaeq	r0, {r0, r3, r6, r7, r8}
 8000158:	080001c9 	stmdaeq	r0, {r0, r3, r6, r7, r8}
 800015c:	080001c9 	stmdaeq	r0, {r0, r3, r6, r7, r8}
 8000160:	080001c9 	stmdaeq	r0, {r0, r3, r6, r7, r8}
 8000164:	080001c9 	stmdaeq	r0, {r0, r3, r6, r7, r8}
 8000168:	080001c9 	stmdaeq	r0, {r0, r3, r6, r7, r8}
 800016c:	080001c9 	stmdaeq	r0, {r0, r3, r6, r7, r8}
 8000170:	080001c9 	stmdaeq	r0, {r0, r3, r6, r7, r8}
 8000174:	080001c9 	stmdaeq	r0, {r0, r3, r6, r7, r8}
 8000178:	080001c9 	stmdaeq	r0, {r0, r3, r6, r7, r8}
 800017c:	00000000 	andeq	r0, r0, r0
 8000180:	080001c9 	stmdaeq	r0, {r0, r3, r6, r7, r8}
 8000184:	080001c9 	stmdaeq	r0, {r0, r3, r6, r7, r8}
 8000188:	080001c9 	stmdaeq	r0, {r0, r3, r6, r7, r8}
 800018c:	080001c9 	stmdaeq	r0, {r0, r3, r6, r7, r8}
 8000190:	080001c9 	stmdaeq	r0, {r0, r3, r6, r7, r8}
 8000194:	080001c9 	stmdaeq	r0, {r0, r3, r6, r7, r8}
 8000198:	080001c9 	stmdaeq	r0, {r0, r3, r6, r7, r8}
 800019c:	080001c9 	stmdaeq	r0, {r0, r3, r6, r7, r8}
 80001a0:	080001c9 	stmdaeq	r0, {r0, r3, r6, r7, r8}
 80001a4:	080001c9 	stmdaeq	r0, {r0, r3, r6, r7, r8}
 80001a8:	080001c9 	stmdaeq	r0, {r0, r3, r6, r7, r8}
 80001ac:	080001c9 	stmdaeq	r0, {r0, r3, r6, r7, r8}
 80001b0:	080001c9 	stmdaeq	r0, {r0, r3, r6, r7, r8}
 80001b4:	080001c9 	stmdaeq	r0, {r0, r3, r6, r7, r8}
 80001b8:	080001c9 	stmdaeq	r0, {r0, r3, r6, r7, r8}
 80001bc:	080001c9 	stmdaeq	r0, {r0, r3, r6, r7, r8}
 80001c0:	080001c9 	stmdaeq	r0, {r0, r3, r6, r7, r8}
 80001c4:	080001c9 	stmdaeq	r0, {r0, r3, r6, r7, r8}

Disassembly of section .text:

080001c8 <Default_Handler>:
 80001c8:	4668      	mov	r0, sp
 80001ca:	f020 0107 	bic.w	r1, r0, #7
 80001ce:	468d      	mov	sp, r1
 80001d0:	b501      	push	{r0, lr}
 80001d2:	e8bd 4001 	ldmia.w	sp!, {r0, lr}
 80001d6:	4685      	mov	sp, r0
 80001d8:	4770      	bx	lr

080001da <HardFault_Handler>:
 80001da:	4668      	mov	r0, sp
 80001dc:	f020 0107 	bic.w	r1, r0, #7
 80001e0:	468d      	mov	sp, r1
 80001e2:	e7fe      	b.n	80001e2 <HardFault_Handler+0x8>

080001e4 <Reset_Handler>:
 80001e4:	4915      	ldr	r1, [pc, #84]	; (800023c <Reset_Handler+0x58>)
 80001e6:	4a16      	ldr	r2, [pc, #88]	; (8000240 <Reset_Handler+0x5c>)
 80001e8:	4816      	ldr	r0, [pc, #88]	; (8000244 <Reset_Handler+0x60>)
 80001ea:	1a52      	subs	r2, r2, r1
 80001ec:	1092      	asrs	r2, r2, #2
 80001ee:	2300      	movs	r3, #0
 80001f0:	429a      	cmp	r2, r3
 80001f2:	d117      	bne.n	8000224 <Reset_Handler+0x40>
 80001f4:	4a14      	ldr	r2, [pc, #80]	; (8000248 <Reset_Handler+0x64>)
 80001f6:	4e15      	ldr	r6, [pc, #84]	; (800024c <Reset_Handler+0x68>)
 80001f8:	f8d2 3088 	ldr.w	r3, [r2, #136]	; 0x88
 80001fc:	4c14      	ldr	r4, [pc, #80]	; (8000250 <Reset_Handler+0x6c>)
 80001fe:	f443 0370 	orr.w	r3, r3, #15728640	; 0xf00000
 8000202:	f8c2 3088 	str.w	r3, [r2, #136]	; 0x88
 8000206:	f8d2 3234 	ldr.w	r3, [r2, #564]	; 0x234
 800020a:	1ba4      	subs	r4, r4, r6
 800020c:	f043 4340 	orr.w	r3, r3, #3221225472	; 0xc0000000
 8000210:	f8c2 3234 	str.w	r3, [r2, #564]	; 0x234
 8000214:	10a4      	asrs	r4, r4, #2
 8000216:	2500      	movs	r5, #0
 8000218:	42ac      	cmp	r4, r5
 800021a:	d109      	bne.n	8000230 <Reset_Handler+0x4c>
 800021c:	f000 f81a 	bl	8000254 <SystemInit>
 8000220:	f001 bca6 	b.w	8001b70 <main>
 8000224:	f850 4023 	ldr.w	r4, [r0, r3, lsl #2]
 8000228:	f841 4023 	str.w	r4, [r1, r3, lsl #2]
 800022c:	3301      	adds	r3, #1
 800022e:	e7df      	b.n	80001f0 <Reset_Handler+0xc>
 8000230:	f856 3025 	ldr.w	r3, [r6, r5, lsl #2]
 8000234:	4798      	blx	r3
 8000236:	3501      	adds	r5, #1
 8000238:	e7ee      	b.n	8000218 <Reset_Handler+0x34>
 800023a:	bf00      	nop
 800023c:	20000000 	andcs	r0, r0, r0
 8000240:	20000004 	andcs	r0, r0, r4
 8000244:	08003f8c 	stmdaeq	r0, {r2, r3, r7, r8, r9, sl, fp, ip, sp}
 8000248:	e000ed00 	and	lr, r0, r0, lsl #26
 800024c:	08003f8c 	stmdaeq	r0, {r2, r3, r7, r8, r9, sl, fp, ip, sp}
 8000250:	08003f90 	stmdaeq	r0, {r4, r7, r8, r9, sl, fp, ip, sp}

08000254 <SystemInit>:
 8000254:	490f      	ldr	r1, [pc, #60]	; (8000294 <SystemInit+0x40>)
 8000256:	f8d1 3088 	ldr.w	r3, [r1, #136]	; 0x88
 800025a:	f443 0370 	orr.w	r3, r3, #15728640	; 0xf00000
 800025e:	f8c1 3088 	str.w	r3, [r1, #136]	; 0x88
 8000262:	4b0d      	ldr	r3, [pc, #52]	; (8000298 <SystemInit+0x44>)
 8000264:	681a      	ldr	r2, [r3, #0]
 8000266:	2000      	movs	r0, #0
 8000268:	f042 0201 	orr.w	r2, r2, #1
 800026c:	601a      	str	r2, [r3, #0]
 800026e:	6098      	str	r0, [r3, #8]
 8000270:	681a      	ldr	r2, [r3, #0]
 8000272:	f022 7284 	bic.w	r2, r2, #17301504	; 0x1080000
 8000276:	f422 3280 	bic.w	r2, r2, #65536	; 0x10000
 800027a:	601a      	str	r2, [r3, #0]
 800027c:	4a07      	ldr	r2, [pc, #28]	; (800029c <SystemInit+0x48>)
 800027e:	605a      	str	r2, [r3, #4]
 8000280:	681a      	ldr	r2, [r3, #0]
 8000282:	f422 2280 	bic.w	r2, r2, #262144	; 0x40000
 8000286:	601a      	str	r2, [r3, #0]
 8000288:	60d8      	str	r0, [r3, #12]
 800028a:	f04f 6300 	mov.w	r3, #134217728	; 0x8000000
 800028e:	608b      	str	r3, [r1, #8]
 8000290:	4770      	bx	lr
 8000292:	bf00      	nop
 8000294:	e000ed00 	and	lr, r0, r0, lsl #26
 8000298:	40023800 	andmi	r3, r2, r0, lsl #16
 800029c:	24003010 	strcs	r3, [r0], #-16

080002a0 <SystemCoreClockUpdate>:
 80002a0:	4a17      	ldr	r2, [pc, #92]	; (8000300 <SystemCoreClockUpdate+0x60>)
 80002a2:	4918      	ldr	r1, [pc, #96]	; (8000304 <SystemCoreClockUpdate+0x64>)
 80002a4:	6893      	ldr	r3, [r2, #8]
 80002a6:	f003 030c 	and.w	r3, r3, #12
 80002aa:	2b04      	cmp	r3, #4
 80002ac:	b510      	push	{r4, lr}
 80002ae:	d00d      	beq.n	80002cc <SystemCoreClockUpdate+0x2c>
 80002b0:	2b08      	cmp	r3, #8
 80002b2:	d00d      	beq.n	80002d0 <SystemCoreClockUpdate+0x30>
 80002b4:	4b14      	ldr	r3, [pc, #80]	; (8000308 <SystemCoreClockUpdate+0x68>)
 80002b6:	600b      	str	r3, [r1, #0]
 80002b8:	4b11      	ldr	r3, [pc, #68]	; (8000300 <SystemCoreClockUpdate+0x60>)
 80002ba:	4a14      	ldr	r2, [pc, #80]	; (800030c <SystemCoreClockUpdate+0x6c>)
 80002bc:	689b      	ldr	r3, [r3, #8]
 80002be:	f3c3 1303 	ubfx	r3, r3, #4, #4
 80002c2:	5cd2      	ldrb	r2, [r2, r3]
 80002c4:	680b      	ldr	r3, [r1, #0]
 80002c6:	40d3      	lsrs	r3, r2
 80002c8:	600b      	str	r3, [r1, #0]
 80002ca:	bd10      	pop	{r4, pc}
 80002cc:	4b10      	ldr	r3, [pc, #64]	; (8000310 <SystemCoreClockUpdate+0x70>)
 80002ce:	e7f2      	b.n	80002b6 <SystemCoreClockUpdate+0x16>
 80002d0:	6854      	ldr	r4, [r2, #4]
 80002d2:	6850      	ldr	r0, [r2, #4]
 80002d4:	6852      	ldr	r2, [r2, #4]
 80002d6:	0263      	lsls	r3, r4, #9
 80002d8:	f3c2 1288 	ubfx	r2, r2, #6, #9
 80002dc:	f000 003f 	and.w	r0, r0, #63	; 0x3f
 80002e0:	bf4c      	ite	mi
 80002e2:	4b0b      	ldrmi	r3, [pc, #44]	; (8000310 <SystemCoreClockUpdate+0x70>)
 80002e4:	4b08      	ldrpl	r3, [pc, #32]	; (8000308 <SystemCoreClockUpdate+0x68>)
 80002e6:	fbb3 f3f0 	udiv	r3, r3, r0
 80002ea:	4353      	muls	r3, r2
 80002ec:	4a04      	ldr	r2, [pc, #16]	; (8000300 <SystemCoreClockUpdate+0x60>)
 80002ee:	6852      	ldr	r2, [r2, #4]
 80002f0:	f3c2 4201 	ubfx	r2, r2, #16, #2
 80002f4:	3201      	adds	r2, #1
 80002f6:	0052      	lsls	r2, r2, #1
 80002f8:	fbb3 f3f2 	udiv	r3, r3, r2
 80002fc:	e7db      	b.n	80002b6 <SystemCoreClockUpdate+0x16>
 80002fe:	bf00      	nop
 8000300:	40023800 	andmi	r3, r2, r0, lsl #16
 8000304:	20000000 	andcs	r0, r0, r0
 8000308:	00f42400 	rscseq	r2, r4, r0, lsl #8
 800030c:	08003abc 	stmdaeq	r0, {r2, r3, r4, r5, r7, r9, fp, ip, sp}
 8000310:	007a1200 	rsbseq	r1, sl, r0, lsl #4

08000314 <assert_failed>:
 8000314:	e7fe      	b.n	8000314 <assert_failed>
 8000316:	0000      	movs	r0, r0

08000318 <GPIO_Init>:
 8000318:	e92d 4ff8 	stmdb	sp!, {r3, r4, r5, r6, r7, r8, r9, sl, fp, lr}
 800031c:	4b4c      	ldr	r3, [pc, #304]	; (8000450 <GPIO_Init+0x138>)
 800031e:	4298      	cmp	r0, r3
 8000320:	4604      	mov	r4, r0
 8000322:	460d      	mov	r5, r1
 8000324:	d02b      	beq.n	800037e <GPIO_Init+0x66>
 8000326:	f503 6380 	add.w	r3, r3, #1024	; 0x400
 800032a:	4298      	cmp	r0, r3
 800032c:	d027      	beq.n	800037e <GPIO_Init+0x66>
 800032e:	f503 6380 	add.w	r3, r3, #1024	; 0x400
 8000332:	4298      	cmp	r0, r3
 8000334:	d023      	beq.n	800037e <GPIO_Init+0x66>
 8000336:	f503 6380 	add.w	r3, r3, #1024	; 0x400
 800033a:	4298      	cmp	r0, r3
 800033c:	d01f      	beq.n	800037e <GPIO_Init+0x66>
 800033e:	f503 6380 	add.w	r3, r3, #1024	; 0x400
 8000342:	4298      	cmp	r0, r3
 8000344:	d01b      	beq.n	800037e <GPIO_Init+0x66>
 8000346:	f503 6380 	add.w	r3, r3, #1024	; 0x400
 800034a:	4298      	cmp	r0, r3
 800034c:	d017      	beq.n	800037e <GPIO_Init+0x66>
 800034e:	f503 6380 	add.w	r3, r3, #1024	; 0x400
 8000352:	4298      	cmp	r0, r3
 8000354:	d013      	beq.n	800037e <GPIO_Init+0x66>
 8000356:	f503 6380 	add.w	r3, r3, #1024	; 0x400
 800035a:	4298      	cmp	r0, r3
 800035c:	d00f      	beq.n	800037e <GPIO_Init+0x66>
 800035e:	f503 6380 	add.w	r3, r3, #1024	; 0x400
 8000362:	4298      	cmp	r0, r3
 8000364:	d00b      	beq.n	800037e <GPIO_Init+0x66>
 8000366:	f503 6380 	add.w	r3, r3, #1024	; 0x400
 800036a:	4298      	cmp	r0, r3
 800036c:	d007      	beq.n	800037e <GPIO_Init+0x66>
 800036e:	f503 6380 	add.w	r3, r3, #1024	; 0x400
 8000372:	4298      	cmp	r0, r3
 8000374:	d003      	beq.n	800037e <GPIO_Init+0x66>
 8000376:	2193      	movs	r1, #147	; 0x93
 8000378:	4836      	ldr	r0, [pc, #216]	; (8000454 <GPIO_Init+0x13c>)
 800037a:	f7ff ffcb 	bl	8000314 <assert_failed>
 800037e:	882b      	ldrh	r3, [r5, #0]
 8000380:	b91b      	cbnz	r3, 800038a <GPIO_Init+0x72>
 8000382:	2194      	movs	r1, #148	; 0x94
 8000384:	4833      	ldr	r0, [pc, #204]	; (8000454 <GPIO_Init+0x13c>)
 8000386:	f7ff ffc5 	bl	8000314 <assert_failed>
 800038a:	792b      	ldrb	r3, [r5, #4]
 800038c:	2b03      	cmp	r3, #3
 800038e:	d903      	bls.n	8000398 <GPIO_Init+0x80>
 8000390:	2195      	movs	r1, #149	; 0x95
 8000392:	4830      	ldr	r0, [pc, #192]	; (8000454 <GPIO_Init+0x13c>)
 8000394:	f7ff ffbe 	bl	8000314 <assert_failed>
 8000398:	79eb      	ldrb	r3, [r5, #7]
 800039a:	2b02      	cmp	r3, #2
 800039c:	d903      	bls.n	80003a6 <GPIO_Init+0x8e>
 800039e:	2196      	movs	r1, #150	; 0x96
 80003a0:	482c      	ldr	r0, [pc, #176]	; (8000454 <GPIO_Init+0x13c>)
 80003a2:	f7ff ffb7 	bl	8000314 <assert_failed>
 80003a6:	f8df 90ac 	ldr.w	r9, [pc, #172]	; 8000454 <GPIO_Init+0x13c>
 80003aa:	2600      	movs	r6, #0
 80003ac:	2701      	movs	r7, #1
 80003ae:	f04f 0803 	mov.w	r8, #3
 80003b2:	682a      	ldr	r2, [r5, #0]
 80003b4:	fa07 f306 	lsl.w	r3, r7, r6
 80003b8:	4393      	bics	r3, r2
 80003ba:	d143      	bne.n	8000444 <GPIO_Init+0x12c>
 80003bc:	ea4f 0a46 	mov.w	sl, r6, lsl #1
 80003c0:	6823      	ldr	r3, [r4, #0]
 80003c2:	fa08 fb0a 	lsl.w	fp, r8, sl
 80003c6:	ea6f 0b0b 	mvn.w	fp, fp
 80003ca:	ea03 030b 	and.w	r3, r3, fp
 80003ce:	6023      	str	r3, [r4, #0]
 80003d0:	792b      	ldrb	r3, [r5, #4]
 80003d2:	6821      	ldr	r1, [r4, #0]
 80003d4:	fa03 f20a 	lsl.w	r2, r3, sl
 80003d8:	3b01      	subs	r3, #1
 80003da:	430a      	orrs	r2, r1
 80003dc:	2b01      	cmp	r3, #1
 80003de:	6022      	str	r2, [r4, #0]
 80003e0:	d823      	bhi.n	800042a <GPIO_Init+0x112>
 80003e2:	796b      	ldrb	r3, [r5, #5]
 80003e4:	2b03      	cmp	r3, #3
 80003e6:	d903      	bls.n	80003f0 <GPIO_Init+0xd8>
 80003e8:	21a8      	movs	r1, #168	; 0xa8
 80003ea:	4648      	mov	r0, r9
 80003ec:	f7ff ff92 	bl	8000314 <assert_failed>
 80003f0:	68a3      	ldr	r3, [r4, #8]
 80003f2:	ea0b 0303 	and.w	r3, fp, r3
 80003f6:	60a3      	str	r3, [r4, #8]
 80003f8:	796b      	ldrb	r3, [r5, #5]
 80003fa:	68a2      	ldr	r2, [r4, #8]
 80003fc:	fa03 f30a 	lsl.w	r3, r3, sl
 8000400:	4313      	orrs	r3, r2
 8000402:	60a3      	str	r3, [r4, #8]
 8000404:	79ab      	ldrb	r3, [r5, #6]
 8000406:	2b01      	cmp	r3, #1
 8000408:	d903      	bls.n	8000412 <GPIO_Init+0xfa>
 800040a:	21af      	movs	r1, #175	; 0xaf
 800040c:	4648      	mov	r0, r9
 800040e:	f7ff ff81 	bl	8000314 <assert_failed>
 8000412:	6863      	ldr	r3, [r4, #4]
 8000414:	fa07 f206 	lsl.w	r2, r7, r6
 8000418:	ea23 0302 	bic.w	r3, r3, r2
 800041c:	6063      	str	r3, [r4, #4]
 800041e:	79ab      	ldrb	r3, [r5, #6]
 8000420:	6862      	ldr	r2, [r4, #4]
 8000422:	40b3      	lsls	r3, r6
 8000424:	b29b      	uxth	r3, r3
 8000426:	4313      	orrs	r3, r2
 8000428:	6063      	str	r3, [r4, #4]
 800042a:	68e3      	ldr	r3, [r4, #12]
 800042c:	fa08 f20a 	lsl.w	r2, r8, sl
 8000430:	ea23 0302 	bic.w	r3, r3, r2
 8000434:	60e3      	str	r3, [r4, #12]
 8000436:	79eb      	ldrb	r3, [r5, #7]
 8000438:	68e2      	ldr	r2, [r4, #12]
 800043a:	fa03 fa0a 	lsl.w	sl, r3, sl
 800043e:	ea4a 0202 	orr.w	r2, sl, r2
 8000442:	60e2      	str	r2, [r4, #12]
 8000444:	3601      	adds	r6, #1
 8000446:	2e10      	cmp	r6, #16
 8000448:	d1b3      	bne.n	80003b2 <GPIO_Init+0x9a>
 800044a:	e8bd 8ff8 	ldmia.w	sp!, {r3, r4, r5, r6, r7, r8, r9, sl, fp, pc}
 800044e:	bf00      	nop
 8000450:	40020000 	andmi	r0, r2, r0
 8000454:	08003acc 	stmdaeq	r0, {r2, r3, r6, r7, r9, fp, ip, sp}

08000458 <USART_SendData>:
 8000458:	b538      	push	{r3, r4, r5, lr}
 800045a:	4b19      	ldr	r3, [pc, #100]	; (80004c0 <USART_SendData+0x68>)
 800045c:	4298      	cmp	r0, r3
 800045e:	4604      	mov	r4, r0
 8000460:	460d      	mov	r5, r1
 8000462:	d020      	beq.n	80004a6 <USART_SendData+0x4e>
 8000464:	f5a3 434c 	sub.w	r3, r3, #52224	; 0xcc00
 8000468:	4298      	cmp	r0, r3
 800046a:	d01c      	beq.n	80004a6 <USART_SendData+0x4e>
 800046c:	f503 6380 	add.w	r3, r3, #1024	; 0x400
 8000470:	4298      	cmp	r0, r3
 8000472:	d018      	beq.n	80004a6 <USART_SendData+0x4e>
 8000474:	f503 6380 	add.w	r3, r3, #1024	; 0x400
 8000478:	4298      	cmp	r0, r3
 800047a:	d014      	beq.n	80004a6 <USART_SendData+0x4e>
 800047c:	f503 6380 	add.w	r3, r3, #1024	; 0x400
 8000480:	4298      	cmp	r0, r3
 8000482:	d010      	beq.n	80004a6 <USART_SendData+0x4e>
 8000484:	f503 4344 	add.w	r3, r3, #50176	; 0xc400
 8000488:	4298      	cmp	r0, r3
 800048a:	d00c      	beq.n	80004a6 <USART_SendData+0x4e>
 800048c:	f5a3 431c 	sub.w	r3, r3, #39936	; 0x9c00
 8000490:	4298      	cmp	r0, r3
 8000492:	d008      	beq.n	80004a6 <USART_SendData+0x4e>
 8000494:	f503 6380 	add.w	r3, r3, #1024	; 0x400
 8000498:	4298      	cmp	r0, r3
 800049a:	d004      	beq.n	80004a6 <USART_SendData+0x4e>
 800049c:	f44f 7168 	mov.w	r1, #928	; 0x3a0
 80004a0:	4808      	ldr	r0, [pc, #32]	; (80004c4 <USART_SendData+0x6c>)
 80004a2:	f7ff ff37 	bl	8000314 <assert_failed>
 80004a6:	f5b5 7f00 	cmp.w	r5, #512	; 0x200
 80004aa:	d304      	bcc.n	80004b6 <USART_SendData+0x5e>
 80004ac:	f240 31a1 	movw	r1, #929	; 0x3a1
 80004b0:	4804      	ldr	r0, [pc, #16]	; (80004c4 <USART_SendData+0x6c>)
 80004b2:	f7ff ff2f 	bl	8000314 <assert_failed>
 80004b6:	f3c5 0508 	ubfx	r5, r5, #0, #9
 80004ba:	62a5      	str	r5, [r4, #40]	; 0x28
 80004bc:	bd38      	pop	{r3, r4, r5, pc}
 80004be:	bf00      	nop
 80004c0:	40011000 	andmi	r1, r1, r0
 80004c4:	08003afc 	stmdaeq	r0, {r2, r3, r4, r5, r6, r7, r9, fp, ip, sp}

080004c8 <USART_GetFlagStatus>:
 80004c8:	b538      	push	{r3, r4, r5, lr}
 80004ca:	4b30      	ldr	r3, [pc, #192]	; (800058c <USART_GetFlagStatus+0xc4>)
 80004cc:	4298      	cmp	r0, r3
 80004ce:	4605      	mov	r5, r0
 80004d0:	460c      	mov	r4, r1
 80004d2:	d020      	beq.n	8000516 <USART_GetFlagStatus+0x4e>
 80004d4:	f5a3 434c 	sub.w	r3, r3, #52224	; 0xcc00
 80004d8:	4298      	cmp	r0, r3
 80004da:	d01c      	beq.n	8000516 <USART_GetFlagStatus+0x4e>
 80004dc:	f503 6380 	add.w	r3, r3, #1024	; 0x400
 80004e0:	4298      	cmp	r0, r3
 80004e2:	d018      	beq.n	8000516 <USART_GetFlagStatus+0x4e>
 80004e4:	f503 6380 	add.w	r3, r3, #1024	; 0x400
 80004e8:	4298      	cmp	r0, r3
 80004ea:	d014      	beq.n	8000516 <USART_GetFlagStatus+0x4e>
 80004ec:	f503 6380 	add.w	r3, r3, #1024	; 0x400
 80004f0:	4298      	cmp	r0, r3
 80004f2:	d010      	beq.n	8000516 <USART_GetFlagStatus+0x4e>
 80004f4:	f503 4344 	add.w	r3, r3, #50176	; 0xc400
 80004f8:	4298      	cmp	r0, r3
 80004fa:	d00c      	beq.n	8000516 <USART_GetFlagStatus+0x4e>
 80004fc:	f5a3 431c 	sub.w	r3, r3, #39936	; 0x9c00
 8000500:	4298      	cmp	r0, r3
 8000502:	d008      	beq.n	8000516 <USART_GetFlagStatus+0x4e>
 8000504:	f503 6380 	add.w	r3, r3, #1024	; 0x400
 8000508:	4298      	cmp	r0, r3
 800050a:	d004      	beq.n	8000516 <USART_GetFlagStatus+0x4e>
 800050c:	f240 7163 	movw	r1, #1891	; 0x763
 8000510:	481f      	ldr	r0, [pc, #124]	; (8000590 <USART_GetFlagStatus+0xc8>)
 8000512:	f7ff feff 	bl	8000314 <assert_failed>
 8000516:	1e62      	subs	r2, r4, #1
 8000518:	2a1f      	cmp	r2, #31
 800051a:	d82f      	bhi.n	800057c <USART_GetFlagStatus+0xb4>
 800051c:	4b1d      	ldr	r3, [pc, #116]	; (8000594 <USART_GetFlagStatus+0xcc>)
 800051e:	40d3      	lsrs	r3, r2
 8000520:	07db      	lsls	r3, r3, #31
 8000522:	d42d      	bmi.n	8000580 <USART_GetFlagStatus+0xb8>
 8000524:	2c40      	cmp	r4, #64	; 0x40
 8000526:	d02b      	beq.n	8000580 <USART_GetFlagStatus+0xb8>
 8000528:	f5b4 7f80 	cmp.w	r4, #256	; 0x100
 800052c:	d028      	beq.n	8000580 <USART_GetFlagStatus+0xb8>
 800052e:	f5b4 7f00 	cmp.w	r4, #512	; 0x200
 8000532:	d025      	beq.n	8000580 <USART_GetFlagStatus+0xb8>
 8000534:	f5b4 6f80 	cmp.w	r4, #1024	; 0x400
 8000538:	d022      	beq.n	8000580 <USART_GetFlagStatus+0xb8>
 800053a:	f5b4 6f00 	cmp.w	r4, #2048	; 0x800
 800053e:	d01f      	beq.n	8000580 <USART_GetFlagStatus+0xb8>
 8000540:	f5b4 5f80 	cmp.w	r4, #4096	; 0x1000
 8000544:	d01c      	beq.n	8000580 <USART_GetFlagStatus+0xb8>
 8000546:	f5b4 4f80 	cmp.w	r4, #16384	; 0x4000
 800054a:	d019      	beq.n	8000580 <USART_GetFlagStatus+0xb8>
 800054c:	f5b4 4f00 	cmp.w	r4, #32768	; 0x8000
 8000550:	d016      	beq.n	8000580 <USART_GetFlagStatus+0xb8>
 8000552:	f5b4 3f80 	cmp.w	r4, #65536	; 0x10000
 8000556:	d013      	beq.n	8000580 <USART_GetFlagStatus+0xb8>
 8000558:	f5b4 3f00 	cmp.w	r4, #131072	; 0x20000
 800055c:	d010      	beq.n	8000580 <USART_GetFlagStatus+0xb8>
 800055e:	f5b4 2f80 	cmp.w	r4, #262144	; 0x40000
 8000562:	d00d      	beq.n	8000580 <USART_GetFlagStatus+0xb8>
 8000564:	f5b4 2f00 	cmp.w	r4, #524288	; 0x80000
 8000568:	d00a      	beq.n	8000580 <USART_GetFlagStatus+0xb8>
 800056a:	f5b4 1f00 	cmp.w	r4, #2097152	; 0x200000
 800056e:	d007      	beq.n	8000580 <USART_GetFlagStatus+0xb8>
 8000570:	f240 7164 	movw	r1, #1892	; 0x764
 8000574:	4806      	ldr	r0, [pc, #24]	; (8000590 <USART_GetFlagStatus+0xc8>)
 8000576:	f7ff fecd 	bl	8000314 <assert_failed>
 800057a:	e001      	b.n	8000580 <USART_GetFlagStatus+0xb8>
 800057c:	2c80      	cmp	r4, #128	; 0x80
 800057e:	d1d1      	bne.n	8000524 <USART_GetFlagStatus+0x5c>
 8000580:	69eb      	ldr	r3, [r5, #28]
 8000582:	4223      	tst	r3, r4
 8000584:	bf14      	ite	ne
 8000586:	2001      	movne	r0, #1
 8000588:	2000      	moveq	r0, #0
 800058a:	bd38      	pop	{r3, r4, r5, pc}
 800058c:	40011000 	andmi	r1, r1, r0
 8000590:	08003afc 	stmdaeq	r0, {r2, r3, r4, r5, r6, r7, r9, fp, ip, sp}
 8000594:	8000808b 	andhi	r8, r0, fp, lsl #1

08000598 <ADC_Init>:
 8000598:	b538      	push	{r3, r4, r5, lr}
 800059a:	4b3c      	ldr	r3, [pc, #240]	; (800068c <ADC_Init+0xf4>)
 800059c:	4298      	cmp	r0, r3
 800059e:	4605      	mov	r5, r0
 80005a0:	460c      	mov	r4, r1
 80005a2:	d00b      	beq.n	80005bc <ADC_Init+0x24>
 80005a4:	f503 7380 	add.w	r3, r3, #256	; 0x100
 80005a8:	4298      	cmp	r0, r3
 80005aa:	d007      	beq.n	80005bc <ADC_Init+0x24>
 80005ac:	f503 7380 	add.w	r3, r3, #256	; 0x100
 80005b0:	4298      	cmp	r0, r3
 80005b2:	d003      	beq.n	80005bc <ADC_Init+0x24>
 80005b4:	2189      	movs	r1, #137	; 0x89
 80005b6:	4836      	ldr	r0, [pc, #216]	; (8000690 <ADC_Init+0xf8>)
 80005b8:	f7ff feac 	bl	8000314 <assert_failed>
 80005bc:	6823      	ldr	r3, [r4, #0]
 80005be:	f033 7340 	bics.w	r3, r3, #50331648	; 0x3000000
 80005c2:	d003      	beq.n	80005cc <ADC_Init+0x34>
 80005c4:	218a      	movs	r1, #138	; 0x8a
 80005c6:	4832      	ldr	r0, [pc, #200]	; (8000690 <ADC_Init+0xf8>)
 80005c8:	f7ff fea4 	bl	8000314 <assert_failed>
 80005cc:	7923      	ldrb	r3, [r4, #4]
 80005ce:	2b01      	cmp	r3, #1
 80005d0:	d903      	bls.n	80005da <ADC_Init+0x42>
 80005d2:	218b      	movs	r1, #139	; 0x8b
 80005d4:	482e      	ldr	r0, [pc, #184]	; (8000690 <ADC_Init+0xf8>)
 80005d6:	f7ff fe9d 	bl	8000314 <assert_failed>
 80005da:	7963      	ldrb	r3, [r4, #5]
 80005dc:	2b01      	cmp	r3, #1
 80005de:	d903      	bls.n	80005e8 <ADC_Init+0x50>
 80005e0:	218c      	movs	r1, #140	; 0x8c
 80005e2:	482b      	ldr	r0, [pc, #172]	; (8000690 <ADC_Init+0xf8>)
 80005e4:	f7ff fe96 	bl	8000314 <assert_failed>
 80005e8:	68a3      	ldr	r3, [r4, #8]
 80005ea:	f033 5340 	bics.w	r3, r3, #805306368	; 0x30000000
 80005ee:	d003      	beq.n	80005f8 <ADC_Init+0x60>
 80005f0:	218d      	movs	r1, #141	; 0x8d
 80005f2:	4827      	ldr	r0, [pc, #156]	; (8000690 <ADC_Init+0xf8>)
 80005f4:	f7ff fe8e 	bl	8000314 <assert_failed>
 80005f8:	68e3      	ldr	r3, [r4, #12]
 80005fa:	f033 7240 	bics.w	r2, r3, #50331648	; 0x3000000
 80005fe:	d012      	beq.n	8000626 <ADC_Init+0x8e>
 8000600:	f1b2 6f80 	cmp.w	r2, #67108864	; 0x4000000
 8000604:	d00f      	beq.n	8000626 <ADC_Init+0x8e>
 8000606:	f023 62a0 	bic.w	r2, r3, #83886080	; 0x5000000
 800060a:	f1b2 6f00 	cmp.w	r2, #134217728	; 0x8000000
 800060e:	d00a      	beq.n	8000626 <ADC_Init+0x8e>
 8000610:	f1b3 6f30 	cmp.w	r3, #184549376	; 0xb000000
 8000614:	d007      	beq.n	8000626 <ADC_Init+0x8e>
 8000616:	f103 4371 	add.w	r3, r3, #4043309056	; 0xf1000000
 800061a:	2b01      	cmp	r3, #1
 800061c:	d903      	bls.n	8000626 <ADC_Init+0x8e>
 800061e:	218e      	movs	r1, #142	; 0x8e
 8000620:	481b      	ldr	r0, [pc, #108]	; (8000690 <ADC_Init+0xf8>)
 8000622:	f7ff fe77 	bl	8000314 <assert_failed>
 8000626:	6923      	ldr	r3, [r4, #16]
 8000628:	f433 6300 	bics.w	r3, r3, #2048	; 0x800
 800062c:	d003      	beq.n	8000636 <ADC_Init+0x9e>
 800062e:	218f      	movs	r1, #143	; 0x8f
 8000630:	4817      	ldr	r0, [pc, #92]	; (8000690 <ADC_Init+0xf8>)
 8000632:	f7ff fe6f 	bl	8000314 <assert_failed>
 8000636:	7d23      	ldrb	r3, [r4, #20]
 8000638:	3b01      	subs	r3, #1
 800063a:	2b0f      	cmp	r3, #15
 800063c:	d903      	bls.n	8000646 <ADC_Init+0xae>
 800063e:	2190      	movs	r1, #144	; 0x90
 8000640:	4813      	ldr	r0, [pc, #76]	; (8000690 <ADC_Init+0xf8>)
 8000642:	f7ff fe67 	bl	8000314 <assert_failed>
 8000646:	686a      	ldr	r2, [r5, #4]
 8000648:	7921      	ldrb	r1, [r4, #4]
 800064a:	6823      	ldr	r3, [r4, #0]
 800064c:	f022 7240 	bic.w	r2, r2, #50331648	; 0x3000000
 8000650:	f422 7280 	bic.w	r2, r2, #256	; 0x100
 8000654:	ea43 2301 	orr.w	r3, r3, r1, lsl #8
 8000658:	4313      	orrs	r3, r2
 800065a:	606b      	str	r3, [r5, #4]
 800065c:	68ab      	ldr	r3, [r5, #8]
 800065e:	4a0d      	ldr	r2, [pc, #52]	; (8000694 <ADC_Init+0xfc>)
 8000660:	401a      	ands	r2, r3
 8000662:	e9d4 1303 	ldrd	r1, r3, [r4, #12]
 8000666:	430b      	orrs	r3, r1
 8000668:	68a1      	ldr	r1, [r4, #8]
 800066a:	430b      	orrs	r3, r1
 800066c:	7961      	ldrb	r1, [r4, #5]
 800066e:	ea43 0341 	orr.w	r3, r3, r1, lsl #1
 8000672:	4313      	orrs	r3, r2
 8000674:	60ab      	str	r3, [r5, #8]
 8000676:	7d22      	ldrb	r2, [r4, #20]
 8000678:	6aeb      	ldr	r3, [r5, #44]	; 0x2c
 800067a:	3a01      	subs	r2, #1
 800067c:	f423 0370 	bic.w	r3, r3, #15728640	; 0xf00000
 8000680:	b2d2      	uxtb	r2, r2
 8000682:	ea43 5302 	orr.w	r3, r3, r2, lsl #20
 8000686:	62eb      	str	r3, [r5, #44]	; 0x2c
 8000688:	bd38      	pop	{r3, r4, r5, pc}
 800068a:	bf00      	nop
 800068c:	40012000 	andmi	r2, r1, r0
 8000690:	08003b2d 	stmdaeq	r0, {r0, r2, r3, r5, r8, r9, fp, ip, sp}
 8000694:	c0fff7fd 	ldrshtgt	pc, [pc], #125	; <UNPREDICTABLE>

08000698 <ADC_Cmd>:
 8000698:	b538      	push	{r3, r4, r5, lr}
 800069a:	4b12      	ldr	r3, [pc, #72]	; (80006e4 <ADC_Cmd+0x4c>)
 800069c:	4298      	cmp	r0, r3
 800069e:	4604      	mov	r4, r0
 80006a0:	460d      	mov	r5, r1
 80006a2:	d00c      	beq.n	80006be <ADC_Cmd+0x26>
 80006a4:	f503 7380 	add.w	r3, r3, #256	; 0x100
 80006a8:	4298      	cmp	r0, r3
 80006aa:	d008      	beq.n	80006be <ADC_Cmd+0x26>
 80006ac:	f503 7380 	add.w	r3, r3, #256	; 0x100
 80006b0:	4298      	cmp	r0, r3
 80006b2:	d004      	beq.n	80006be <ADC_Cmd+0x26>
 80006b4:	f240 112b 	movw	r1, #299	; 0x12b
 80006b8:	480b      	ldr	r0, [pc, #44]	; (80006e8 <ADC_Cmd+0x50>)
 80006ba:	f7ff fe2b 	bl	8000314 <assert_failed>
 80006be:	2d01      	cmp	r5, #1
 80006c0:	d909      	bls.n	80006d6 <ADC_Cmd+0x3e>
 80006c2:	f44f 7196 	mov.w	r1, #300	; 0x12c
 80006c6:	4808      	ldr	r0, [pc, #32]	; (80006e8 <ADC_Cmd+0x50>)
 80006c8:	f7ff fe24 	bl	8000314 <assert_failed>
 80006cc:	68a3      	ldr	r3, [r4, #8]
 80006ce:	f043 0301 	orr.w	r3, r3, #1
 80006d2:	60a3      	str	r3, [r4, #8]
 80006d4:	bd38      	pop	{r3, r4, r5, pc}
 80006d6:	2d00      	cmp	r5, #0
 80006d8:	d1f8      	bne.n	80006cc <ADC_Cmd+0x34>
 80006da:	68a3      	ldr	r3, [r4, #8]
 80006dc:	f023 0301 	bic.w	r3, r3, #1
 80006e0:	e7f7      	b.n	80006d2 <ADC_Cmd+0x3a>
 80006e2:	bf00      	nop
 80006e4:	40012000 	andmi	r2, r1, r0
 80006e8:	08003b2d 	stmdaeq	r0, {r0, r2, r3, r5, r8, r9, fp, ip, sp}

080006ec <ADC_RegularChannelConfig>:
 80006ec:	e92d 41f0 	stmdb	sp!, {r4, r5, r6, r7, r8, lr}
 80006f0:	4698      	mov	r8, r3
 80006f2:	4b38      	ldr	r3, [pc, #224]	; (80007d4 <ADC_RegularChannelConfig+0xe8>)
 80006f4:	4298      	cmp	r0, r3
 80006f6:	4605      	mov	r5, r0
 80006f8:	460f      	mov	r7, r1
 80006fa:	4614      	mov	r4, r2
 80006fc:	d00c      	beq.n	8000718 <ADC_RegularChannelConfig+0x2c>
 80006fe:	f503 7380 	add.w	r3, r3, #256	; 0x100
 8000702:	4298      	cmp	r0, r3
 8000704:	d008      	beq.n	8000718 <ADC_RegularChannelConfig+0x2c>
 8000706:	f503 7380 	add.w	r3, r3, #256	; 0x100
 800070a:	4298      	cmp	r0, r3
 800070c:	d004      	beq.n	8000718 <ADC_RegularChannelConfig+0x2c>
 800070e:	f44f 711a 	mov.w	r1, #616	; 0x268
 8000712:	4831      	ldr	r0, [pc, #196]	; (80007d8 <ADC_RegularChannelConfig+0xec>)
 8000714:	f7ff fdfe 	bl	8000314 <assert_failed>
 8000718:	2f12      	cmp	r7, #18
 800071a:	d904      	bls.n	8000726 <ADC_RegularChannelConfig+0x3a>
 800071c:	f240 2169 	movw	r1, #617	; 0x269
 8000720:	482d      	ldr	r0, [pc, #180]	; (80007d8 <ADC_RegularChannelConfig+0xec>)
 8000722:	f7ff fdf7 	bl	8000314 <assert_failed>
 8000726:	1e66      	subs	r6, r4, #1
 8000728:	b2f3      	uxtb	r3, r6
 800072a:	2b0f      	cmp	r3, #15
 800072c:	d904      	bls.n	8000738 <ADC_RegularChannelConfig+0x4c>
 800072e:	f240 216a 	movw	r1, #618	; 0x26a
 8000732:	4829      	ldr	r0, [pc, #164]	; (80007d8 <ADC_RegularChannelConfig+0xec>)
 8000734:	f7ff fdee 	bl	8000314 <assert_failed>
 8000738:	f1b8 0f07 	cmp.w	r8, #7
 800073c:	d904      	bls.n	8000748 <ADC_RegularChannelConfig+0x5c>
 800073e:	f240 216b 	movw	r1, #619	; 0x26b
 8000742:	4825      	ldr	r0, [pc, #148]	; (80007d8 <ADC_RegularChannelConfig+0xec>)
 8000744:	f7ff fde6 	bl	8000314 <assert_failed>
 8000748:	2f09      	cmp	r7, #9
 800074a:	d91b      	bls.n	8000784 <ADC_RegularChannelConfig+0x98>
 800074c:	f1a7 030a 	sub.w	r3, r7, #10
 8000750:	68ea      	ldr	r2, [r5, #12]
 8000752:	eb03 0343 	add.w	r3, r3, r3, lsl #1
 8000756:	2107      	movs	r1, #7
 8000758:	4099      	lsls	r1, r3
 800075a:	ea22 0201 	bic.w	r2, r2, r1
 800075e:	fa08 f303 	lsl.w	r3, r8, r3
 8000762:	4313      	orrs	r3, r2
 8000764:	60eb      	str	r3, [r5, #12]
 8000766:	2c06      	cmp	r4, #6
 8000768:	d818      	bhi.n	800079c <ADC_RegularChannelConfig+0xb0>
 800076a:	6b6c      	ldr	r4, [r5, #52]	; 0x34
 800076c:	eb06 0686 	add.w	r6, r6, r6, lsl #2
 8000770:	231f      	movs	r3, #31
 8000772:	40b3      	lsls	r3, r6
 8000774:	ea24 0403 	bic.w	r4, r4, r3
 8000778:	fa07 f606 	lsl.w	r6, r7, r6
 800077c:	4326      	orrs	r6, r4
 800077e:	636e      	str	r6, [r5, #52]	; 0x34
 8000780:	e8bd 81f0 	ldmia.w	sp!, {r4, r5, r6, r7, r8, pc}
 8000784:	692a      	ldr	r2, [r5, #16]
 8000786:	eb07 0147 	add.w	r1, r7, r7, lsl #1
 800078a:	2307      	movs	r3, #7
 800078c:	408b      	lsls	r3, r1
 800078e:	ea22 0203 	bic.w	r2, r2, r3
 8000792:	fa08 f301 	lsl.w	r3, r8, r1
 8000796:	4313      	orrs	r3, r2
 8000798:	612b      	str	r3, [r5, #16]
 800079a:	e7e4      	b.n	8000766 <ADC_RegularChannelConfig+0x7a>
 800079c:	2c0c      	cmp	r4, #12
 800079e:	d80c      	bhi.n	80007ba <ADC_RegularChannelConfig+0xce>
 80007a0:	1fe3      	subs	r3, r4, #7
 80007a2:	6b2e      	ldr	r6, [r5, #48]	; 0x30
 80007a4:	eb03 0383 	add.w	r3, r3, r3, lsl #2
 80007a8:	241f      	movs	r4, #31
 80007aa:	409c      	lsls	r4, r3
 80007ac:	ea26 0404 	bic.w	r4, r6, r4
 80007b0:	fa07 f603 	lsl.w	r6, r7, r3
 80007b4:	4334      	orrs	r4, r6
 80007b6:	632c      	str	r4, [r5, #48]	; 0x30
 80007b8:	e7e2      	b.n	8000780 <ADC_RegularChannelConfig+0x94>
 80007ba:	3c0d      	subs	r4, #13
 80007bc:	eb04 0384 	add.w	r3, r4, r4, lsl #2
 80007c0:	6aea      	ldr	r2, [r5, #44]	; 0x2c
 80007c2:	241f      	movs	r4, #31
 80007c4:	409c      	lsls	r4, r3
 80007c6:	ea22 0204 	bic.w	r2, r2, r4
 80007ca:	fa07 f403 	lsl.w	r4, r7, r3
 80007ce:	4314      	orrs	r4, r2
 80007d0:	62ec      	str	r4, [r5, #44]	; 0x2c
 80007d2:	e7d5      	b.n	8000780 <ADC_RegularChannelConfig+0x94>
 80007d4:	40012000 	andmi	r2, r1, r0
 80007d8:	08003b2d 	stmdaeq	r0, {r0, r2, r3, r5, r8, r9, fp, ip, sp}

080007dc <ADC_SoftwareStartConv>:
 80007dc:	4b0b      	ldr	r3, [pc, #44]	; (800080c <ADC_SoftwareStartConv+0x30>)
 80007de:	4298      	cmp	r0, r3
 80007e0:	b510      	push	{r4, lr}
 80007e2:	4604      	mov	r4, r0
 80007e4:	d00c      	beq.n	8000800 <ADC_SoftwareStartConv+0x24>
 80007e6:	f503 7380 	add.w	r3, r3, #256	; 0x100
 80007ea:	4298      	cmp	r0, r3
 80007ec:	d008      	beq.n	8000800 <ADC_SoftwareStartConv+0x24>
 80007ee:	f503 7380 	add.w	r3, r3, #256	; 0x100
 80007f2:	4298      	cmp	r0, r3
 80007f4:	d004      	beq.n	8000800 <ADC_SoftwareStartConv+0x24>
 80007f6:	f240 21df 	movw	r1, #735	; 0x2df
 80007fa:	4805      	ldr	r0, [pc, #20]	; (8000810 <ADC_SoftwareStartConv+0x34>)
 80007fc:	f7ff fd8a 	bl	8000314 <assert_failed>
 8000800:	68a3      	ldr	r3, [r4, #8]
 8000802:	f043 4380 	orr.w	r3, r3, #1073741824	; 0x40000000
 8000806:	60a3      	str	r3, [r4, #8]
 8000808:	bd10      	pop	{r4, pc}
 800080a:	bf00      	nop
 800080c:	40012000 	andmi	r2, r1, r0
 8000810:	08003b2d 	stmdaeq	r0, {r0, r2, r3, r5, r8, r9, fp, ip, sp}

08000814 <ADC_GetConversionValue>:
 8000814:	4b0a      	ldr	r3, [pc, #40]	; (8000840 <ADC_GetConversionValue+0x2c>)
 8000816:	4298      	cmp	r0, r3
 8000818:	b510      	push	{r4, lr}
 800081a:	4604      	mov	r4, r0
 800081c:	d00c      	beq.n	8000838 <ADC_GetConversionValue+0x24>
 800081e:	f503 7380 	add.w	r3, r3, #256	; 0x100
 8000822:	4298      	cmp	r0, r3
 8000824:	d008      	beq.n	8000838 <ADC_GetConversionValue+0x24>
 8000826:	f503 7380 	add.w	r3, r3, #256	; 0x100
 800082a:	4298      	cmp	r0, r3
 800082c:	d004      	beq.n	8000838 <ADC_GetConversionValue+0x24>
 800082e:	f240 3175 	movw	r1, #885	; 0x375
 8000832:	4804      	ldr	r0, [pc, #16]	; (8000844 <ADC_GetConversionValue+0x30>)
 8000834:	f7ff fd6e 	bl	8000314 <assert_failed>
 8000838:	6ce0      	ldr	r0, [r4, #76]	; 0x4c
 800083a:	b280      	uxth	r0, r0
 800083c:	bd10      	pop	{r4, pc}
 800083e:	bf00      	nop
 8000840:	40012000 	andmi	r2, r1, r0
 8000844:	08003b2d 	stmdaeq	r0, {r0, r2, r3, r5, r8, r9, fp, ip, sp}

08000848 <ADC_GetFlagStatus>:
 8000848:	b538      	push	{r3, r4, r5, lr}
 800084a:	4b13      	ldr	r3, [pc, #76]	; (8000898 <ADC_GetFlagStatus+0x50>)
 800084c:	4298      	cmp	r0, r3
 800084e:	4604      	mov	r4, r0
 8000850:	460d      	mov	r5, r1
 8000852:	d00c      	beq.n	800086e <ADC_GetFlagStatus+0x26>
 8000854:	f503 7380 	add.w	r3, r3, #256	; 0x100
 8000858:	4298      	cmp	r0, r3
 800085a:	d008      	beq.n	800086e <ADC_GetFlagStatus+0x26>
 800085c:	f503 7380 	add.w	r3, r3, #256	; 0x100
 8000860:	4298      	cmp	r0, r3
 8000862:	d004      	beq.n	800086e <ADC_GetFlagStatus+0x26>
 8000864:	f240 51f2 	movw	r1, #1522	; 0x5f2
 8000868:	480c      	ldr	r0, [pc, #48]	; (800089c <ADC_GetFlagStatus+0x54>)
 800086a:	f7ff fd53 	bl	8000314 <assert_failed>
 800086e:	1e6b      	subs	r3, r5, #1
 8000870:	b2db      	uxtb	r3, r3
 8000872:	2b1f      	cmp	r3, #31
 8000874:	d804      	bhi.n	8000880 <ADC_GetFlagStatus+0x38>
 8000876:	4a0a      	ldr	r2, [pc, #40]	; (80008a0 <ADC_GetFlagStatus+0x58>)
 8000878:	fa22 f303 	lsr.w	r3, r2, r3
 800087c:	07db      	lsls	r3, r3, #31
 800087e:	d404      	bmi.n	800088a <ADC_GetFlagStatus+0x42>
 8000880:	f240 51f3 	movw	r1, #1523	; 0x5f3
 8000884:	4805      	ldr	r0, [pc, #20]	; (800089c <ADC_GetFlagStatus+0x54>)
 8000886:	f7ff fd45 	bl	8000314 <assert_failed>
 800088a:	6823      	ldr	r3, [r4, #0]
 800088c:	421d      	tst	r5, r3
 800088e:	bf14      	ite	ne
 8000890:	2001      	movne	r0, #1
 8000892:	2000      	moveq	r0, #0
 8000894:	bd38      	pop	{r3, r4, r5, pc}
 8000896:	bf00      	nop
 8000898:	40012000 	andmi	r2, r1, r0
 800089c:	08003b2d 	stmdaeq	r0, {r0, r2, r3, r5, r8, r9, fp, ip, sp}
 80008a0:	8000808b 	andhi	r8, r0, fp, lsl #1

080008a4 <TIM_TimeBaseInit>:
 80008a4:	b538      	push	{r3, r4, r5, lr}
 80008a6:	4b46      	ldr	r3, [pc, #280]	; (80009c0 <TIM_TimeBaseInit+0x11c>)
 80008a8:	4298      	cmp	r0, r3
 80008aa:	4604      	mov	r4, r0
 80008ac:	460d      	mov	r5, r1
 80008ae:	d036      	beq.n	800091e <TIM_TimeBaseInit+0x7a>
 80008b0:	f1b0 4f80 	cmp.w	r0, #1073741824	; 0x40000000
 80008b4:	d033      	beq.n	800091e <TIM_TimeBaseInit+0x7a>
 80008b6:	f5a3 437c 	sub.w	r3, r3, #64512	; 0xfc00
 80008ba:	4298      	cmp	r0, r3
 80008bc:	d02f      	beq.n	800091e <TIM_TimeBaseInit+0x7a>
 80008be:	f503 6380 	add.w	r3, r3, #1024	; 0x400
 80008c2:	4298      	cmp	r0, r3
 80008c4:	d02b      	beq.n	800091e <TIM_TimeBaseInit+0x7a>
 80008c6:	f503 6380 	add.w	r3, r3, #1024	; 0x400
 80008ca:	4298      	cmp	r0, r3
 80008cc:	d027      	beq.n	800091e <TIM_TimeBaseInit+0x7a>
 80008ce:	f503 6380 	add.w	r3, r3, #1024	; 0x400
 80008d2:	4298      	cmp	r0, r3
 80008d4:	d023      	beq.n	800091e <TIM_TimeBaseInit+0x7a>
 80008d6:	f503 6380 	add.w	r3, r3, #1024	; 0x400
 80008da:	4298      	cmp	r0, r3
 80008dc:	d01f      	beq.n	800091e <TIM_TimeBaseInit+0x7a>
 80008de:	f503 4370 	add.w	r3, r3, #61440	; 0xf000
 80008e2:	4298      	cmp	r0, r3
 80008e4:	d01b      	beq.n	800091e <TIM_TimeBaseInit+0x7a>
 80008e6:	f503 5370 	add.w	r3, r3, #15360	; 0x3c00
 80008ea:	4298      	cmp	r0, r3
 80008ec:	d017      	beq.n	800091e <TIM_TimeBaseInit+0x7a>
 80008ee:	f503 6380 	add.w	r3, r3, #1024	; 0x400
 80008f2:	4298      	cmp	r0, r3
 80008f4:	d013      	beq.n	800091e <TIM_TimeBaseInit+0x7a>
 80008f6:	f503 6380 	add.w	r3, r3, #1024	; 0x400
 80008fa:	4298      	cmp	r0, r3
 80008fc:	d00f      	beq.n	800091e <TIM_TimeBaseInit+0x7a>
 80008fe:	f5a3 3398 	sub.w	r3, r3, #77824	; 0x13000
 8000902:	4298      	cmp	r0, r3
 8000904:	d00b      	beq.n	800091e <TIM_TimeBaseInit+0x7a>
 8000906:	f503 6380 	add.w	r3, r3, #1024	; 0x400
 800090a:	4298      	cmp	r0, r3
 800090c:	d007      	beq.n	800091e <TIM_TimeBaseInit+0x7a>
 800090e:	f503 6380 	add.w	r3, r3, #1024	; 0x400
 8000912:	4298      	cmp	r0, r3
 8000914:	d003      	beq.n	800091e <TIM_TimeBaseInit+0x7a>
 8000916:	21b1      	movs	r1, #177	; 0xb1
 8000918:	482a      	ldr	r0, [pc, #168]	; (80009c4 <TIM_TimeBaseInit+0x120>)
 800091a:	f7ff fcfb 	bl	8000314 <assert_failed>
 800091e:	686b      	ldr	r3, [r5, #4]
 8000920:	f033 0210 	bics.w	r2, r3, #16
 8000924:	d009      	beq.n	800093a <TIM_TimeBaseInit+0x96>
 8000926:	f023 0240 	bic.w	r2, r3, #64	; 0x40
 800092a:	2a20      	cmp	r2, #32
 800092c:	d005      	beq.n	800093a <TIM_TimeBaseInit+0x96>
 800092e:	2b40      	cmp	r3, #64	; 0x40
 8000930:	d003      	beq.n	800093a <TIM_TimeBaseInit+0x96>
 8000932:	21b2      	movs	r1, #178	; 0xb2
 8000934:	4823      	ldr	r0, [pc, #140]	; (80009c4 <TIM_TimeBaseInit+0x120>)
 8000936:	f7ff fced 	bl	8000314 <assert_failed>
 800093a:	68eb      	ldr	r3, [r5, #12]
 800093c:	f433 7280 	bics.w	r2, r3, #256	; 0x100
 8000940:	d006      	beq.n	8000950 <TIM_TimeBaseInit+0xac>
 8000942:	f5b3 7f00 	cmp.w	r3, #512	; 0x200
 8000946:	d003      	beq.n	8000950 <TIM_TimeBaseInit+0xac>
 8000948:	21b3      	movs	r1, #179	; 0xb3
 800094a:	481e      	ldr	r0, [pc, #120]	; (80009c4 <TIM_TimeBaseInit+0x120>)
 800094c:	f7ff fce2 	bl	8000314 <assert_failed>
 8000950:	4a1b      	ldr	r2, [pc, #108]	; (80009c0 <TIM_TimeBaseInit+0x11c>)
 8000952:	6823      	ldr	r3, [r4, #0]
 8000954:	4294      	cmp	r4, r2
 8000956:	d012      	beq.n	800097e <TIM_TimeBaseInit+0xda>
 8000958:	f502 6280 	add.w	r2, r2, #1024	; 0x400
 800095c:	4294      	cmp	r4, r2
 800095e:	d00e      	beq.n	800097e <TIM_TimeBaseInit+0xda>
 8000960:	f1b4 4f80 	cmp.w	r4, #1073741824	; 0x40000000
 8000964:	d00b      	beq.n	800097e <TIM_TimeBaseInit+0xda>
 8000966:	f5a2 3280 	sub.w	r2, r2, #65536	; 0x10000
 800096a:	4294      	cmp	r4, r2
 800096c:	d007      	beq.n	800097e <TIM_TimeBaseInit+0xda>
 800096e:	f502 6280 	add.w	r2, r2, #1024	; 0x400
 8000972:	4294      	cmp	r4, r2
 8000974:	d003      	beq.n	800097e <TIM_TimeBaseInit+0xda>
 8000976:	f502 6280 	add.w	r2, r2, #1024	; 0x400
 800097a:	4294      	cmp	r4, r2
 800097c:	d103      	bne.n	8000986 <TIM_TimeBaseInit+0xe2>
 800097e:	686a      	ldr	r2, [r5, #4]
 8000980:	f023 0370 	bic.w	r3, r3, #112	; 0x70
 8000984:	4313      	orrs	r3, r2
 8000986:	4a10      	ldr	r2, [pc, #64]	; (80009c8 <TIM_TimeBaseInit+0x124>)
 8000988:	4294      	cmp	r4, r2
 800098a:	d007      	beq.n	800099c <TIM_TimeBaseInit+0xf8>
 800098c:	f502 6280 	add.w	r2, r2, #1024	; 0x400
 8000990:	4294      	cmp	r4, r2
 8000992:	bf1e      	ittt	ne
 8000994:	68ea      	ldrne	r2, [r5, #12]
 8000996:	f423 7340 	bicne.w	r3, r3, #768	; 0x300
 800099a:	4313      	orrne	r3, r2
 800099c:	6023      	str	r3, [r4, #0]
 800099e:	68ab      	ldr	r3, [r5, #8]
 80009a0:	62e3      	str	r3, [r4, #44]	; 0x2c
 80009a2:	682b      	ldr	r3, [r5, #0]
 80009a4:	62a3      	str	r3, [r4, #40]	; 0x28
 80009a6:	4b06      	ldr	r3, [pc, #24]	; (80009c0 <TIM_TimeBaseInit+0x11c>)
 80009a8:	429c      	cmp	r4, r3
 80009aa:	d003      	beq.n	80009b4 <TIM_TimeBaseInit+0x110>
 80009ac:	f503 6380 	add.w	r3, r3, #1024	; 0x400
 80009b0:	429c      	cmp	r4, r3
 80009b2:	d101      	bne.n	80009b8 <TIM_TimeBaseInit+0x114>
 80009b4:	692b      	ldr	r3, [r5, #16]
 80009b6:	6323      	str	r3, [r4, #48]	; 0x30
 80009b8:	2301      	movs	r3, #1
 80009ba:	6163      	str	r3, [r4, #20]
 80009bc:	bd38      	pop	{r3, r4, r5, pc}
 80009be:	bf00      	nop
 80009c0:	40010000 	andmi	r0, r1, r0
 80009c4:	08003b5c 	stmdaeq	r0, {r2, r3, r4, r6, r8, r9, fp, ip, sp}
 80009c8:	40001000 	andmi	r1, r0, r0

080009cc <TIM_Cmd>:
 80009cc:	b538      	push	{r3, r4, r5, lr}
 80009ce:	4b27      	ldr	r3, [pc, #156]	; (8000a6c <TIM_Cmd+0xa0>)
 80009d0:	4298      	cmp	r0, r3
 80009d2:	4604      	mov	r4, r0
 80009d4:	460d      	mov	r5, r1
 80009d6:	d037      	beq.n	8000a48 <TIM_Cmd+0x7c>
 80009d8:	f1b0 4f80 	cmp.w	r0, #1073741824	; 0x40000000
 80009dc:	d034      	beq.n	8000a48 <TIM_Cmd+0x7c>
 80009de:	f5a3 437c 	sub.w	r3, r3, #64512	; 0xfc00
 80009e2:	4298      	cmp	r0, r3
 80009e4:	d030      	beq.n	8000a48 <TIM_Cmd+0x7c>
 80009e6:	f503 6380 	add.w	r3, r3, #1024	; 0x400
 80009ea:	4298      	cmp	r0, r3
 80009ec:	d02c      	beq.n	8000a48 <TIM_Cmd+0x7c>
 80009ee:	f503 6380 	add.w	r3, r3, #1024	; 0x400
 80009f2:	4298      	cmp	r0, r3
 80009f4:	d028      	beq.n	8000a48 <TIM_Cmd+0x7c>
 80009f6:	f503 6380 	add.w	r3, r3, #1024	; 0x400
 80009fa:	4298      	cmp	r0, r3
 80009fc:	d024      	beq.n	8000a48 <TIM_Cmd+0x7c>
 80009fe:	f503 6380 	add.w	r3, r3, #1024	; 0x400
 8000a02:	4298      	cmp	r0, r3
 8000a04:	d020      	beq.n	8000a48 <TIM_Cmd+0x7c>
 8000a06:	f503 4370 	add.w	r3, r3, #61440	; 0xf000
 8000a0a:	4298      	cmp	r0, r3
 8000a0c:	d01c      	beq.n	8000a48 <TIM_Cmd+0x7c>
 8000a0e:	f503 5370 	add.w	r3, r3, #15360	; 0x3c00
 8000a12:	4298      	cmp	r0, r3
 8000a14:	d018      	beq.n	8000a48 <TIM_Cmd+0x7c>
 8000a16:	f503 6380 	add.w	r3, r3, #1024	; 0x400
 8000a1a:	4298      	cmp	r0, r3
 8000a1c:	d014      	beq.n	8000a48 <TIM_Cmd+0x7c>
 8000a1e:	f503 6380 	add.w	r3, r3, #1024	; 0x400
 8000a22:	4298      	cmp	r0, r3
 8000a24:	d010      	beq.n	8000a48 <TIM_Cmd+0x7c>
 8000a26:	f5a3 3398 	sub.w	r3, r3, #77824	; 0x13000
 8000a2a:	4298      	cmp	r0, r3
 8000a2c:	d00c      	beq.n	8000a48 <TIM_Cmd+0x7c>
 8000a2e:	f503 6380 	add.w	r3, r3, #1024	; 0x400
 8000a32:	4298      	cmp	r0, r3
 8000a34:	d008      	beq.n	8000a48 <TIM_Cmd+0x7c>
 8000a36:	f503 6380 	add.w	r3, r3, #1024	; 0x400
 8000a3a:	4298      	cmp	r0, r3
 8000a3c:	d004      	beq.n	8000a48 <TIM_Cmd+0x7c>
 8000a3e:	f240 11f9 	movw	r1, #505	; 0x1f9
 8000a42:	480b      	ldr	r0, [pc, #44]	; (8000a70 <TIM_Cmd+0xa4>)
 8000a44:	f7ff fc66 	bl	8000314 <assert_failed>
 8000a48:	2d01      	cmp	r5, #1
 8000a4a:	d909      	bls.n	8000a60 <TIM_Cmd+0x94>
 8000a4c:	f44f 71fd 	mov.w	r1, #506	; 0x1fa
 8000a50:	4807      	ldr	r0, [pc, #28]	; (8000a70 <TIM_Cmd+0xa4>)
 8000a52:	f7ff fc5f 	bl	8000314 <assert_failed>
 8000a56:	6823      	ldr	r3, [r4, #0]
 8000a58:	f043 0301 	orr.w	r3, r3, #1
 8000a5c:	6023      	str	r3, [r4, #0]
 8000a5e:	bd38      	pop	{r3, r4, r5, pc}
 8000a60:	2d00      	cmp	r5, #0
 8000a62:	d1f8      	bne.n	8000a56 <TIM_Cmd+0x8a>
 8000a64:	6823      	ldr	r3, [r4, #0]
 8000a66:	f023 0301 	bic.w	r3, r3, #1
 8000a6a:	e7f7      	b.n	8000a5c <TIM_Cmd+0x90>
 8000a6c:	40010000 	andmi	r0, r1, r0
 8000a70:	08003b5c 	stmdaeq	r0, {r2, r3, r4, r6, r8, r9, fp, ip, sp}

08000a74 <TIM_OC2Init>:
 8000a74:	4b52      	ldr	r3, [pc, #328]	; (8000bc0 <TIM_OC2Init+0x14c>)
 8000a76:	4298      	cmp	r0, r3
 8000a78:	e92d 41f0 	stmdb	sp!, {r4, r5, r6, r7, r8, lr}
 8000a7c:	4604      	mov	r4, r0
 8000a7e:	460d      	mov	r5, r1
 8000a80:	d01f      	beq.n	8000ac2 <TIM_OC2Init+0x4e>
 8000a82:	f1b0 4f80 	cmp.w	r0, #1073741824	; 0x40000000
 8000a86:	d01c      	beq.n	8000ac2 <TIM_OC2Init+0x4e>
 8000a88:	f5a3 437c 	sub.w	r3, r3, #64512	; 0xfc00
 8000a8c:	4298      	cmp	r0, r3
 8000a8e:	d018      	beq.n	8000ac2 <TIM_OC2Init+0x4e>
 8000a90:	f503 6380 	add.w	r3, r3, #1024	; 0x400
 8000a94:	4298      	cmp	r0, r3
 8000a96:	d014      	beq.n	8000ac2 <TIM_OC2Init+0x4e>
 8000a98:	f503 6380 	add.w	r3, r3, #1024	; 0x400
 8000a9c:	4298      	cmp	r0, r3
 8000a9e:	d010      	beq.n	8000ac2 <TIM_OC2Init+0x4e>
 8000aa0:	f503 4378 	add.w	r3, r3, #63488	; 0xf800
 8000aa4:	4298      	cmp	r0, r3
 8000aa6:	d00c      	beq.n	8000ac2 <TIM_OC2Init+0x4e>
 8000aa8:	f503 5370 	add.w	r3, r3, #15360	; 0x3c00
 8000aac:	4298      	cmp	r0, r3
 8000aae:	d008      	beq.n	8000ac2 <TIM_OC2Init+0x4e>
 8000ab0:	f5a3 3394 	sub.w	r3, r3, #75776	; 0x12800
 8000ab4:	4298      	cmp	r0, r3
 8000ab6:	d004      	beq.n	8000ac2 <TIM_OC2Init+0x4e>
 8000ab8:	f240 219e 	movw	r1, #670	; 0x29e
 8000abc:	4841      	ldr	r0, [pc, #260]	; (8000bc4 <TIM_OC2Init+0x150>)
 8000abe:	f7ff fc29 	bl	8000314 <assert_failed>
 8000ac2:	682b      	ldr	r3, [r5, #0]
 8000ac4:	f033 0230 	bics.w	r2, r3, #48	; 0x30
 8000ac8:	d00f      	beq.n	8000aea <TIM_OC2Init+0x76>
 8000aca:	f423 3280 	bic.w	r2, r3, #65536	; 0x10000
 8000ace:	f022 0210 	bic.w	r2, r2, #16
 8000ad2:	2a60      	cmp	r2, #96	; 0x60
 8000ad4:	d009      	beq.n	8000aea <TIM_OC2Init+0x76>
 8000ad6:	f023 0350 	bic.w	r3, r3, #80	; 0x50
 8000ada:	f5b3 3f80 	cmp.w	r3, #65536	; 0x10000
 8000ade:	d004      	beq.n	8000aea <TIM_OC2Init+0x76>
 8000ae0:	f240 219f 	movw	r1, #671	; 0x29f
 8000ae4:	4837      	ldr	r0, [pc, #220]	; (8000bc4 <TIM_OC2Init+0x150>)
 8000ae6:	f7ff fc15 	bl	8000314 <assert_failed>
 8000aea:	686b      	ldr	r3, [r5, #4]
 8000aec:	2b01      	cmp	r3, #1
 8000aee:	d904      	bls.n	8000afa <TIM_OC2Init+0x86>
 8000af0:	f44f 7128 	mov.w	r1, #672	; 0x2a0
 8000af4:	4833      	ldr	r0, [pc, #204]	; (8000bc4 <TIM_OC2Init+0x150>)
 8000af6:	f7ff fc0d 	bl	8000314 <assert_failed>
 8000afa:	692b      	ldr	r3, [r5, #16]
 8000afc:	f033 0302 	bics.w	r3, r3, #2
 8000b00:	d004      	beq.n	8000b0c <TIM_OC2Init+0x98>
 8000b02:	f240 21a1 	movw	r1, #673	; 0x2a1
 8000b06:	482f      	ldr	r0, [pc, #188]	; (8000bc4 <TIM_OC2Init+0x150>)
 8000b08:	f7ff fc04 	bl	8000314 <assert_failed>
 8000b0c:	6a23      	ldr	r3, [r4, #32]
 8000b0e:	682a      	ldr	r2, [r5, #0]
 8000b10:	f023 0310 	bic.w	r3, r3, #16
 8000b14:	6223      	str	r3, [r4, #32]
 8000b16:	6a26      	ldr	r6, [r4, #32]
 8000b18:	6867      	ldr	r7, [r4, #4]
 8000b1a:	69a3      	ldr	r3, [r4, #24]
 8000b1c:	f023 7380 	bic.w	r3, r3, #16777216	; 0x1000000
 8000b20:	f423 43e6 	bic.w	r3, r3, #29440	; 0x7300
 8000b24:	ea43 2802 	orr.w	r8, r3, r2, lsl #8
 8000b28:	692b      	ldr	r3, [r5, #16]
 8000b2a:	686a      	ldr	r2, [r5, #4]
 8000b2c:	f026 0620 	bic.w	r6, r6, #32
 8000b30:	4313      	orrs	r3, r2
 8000b32:	ea46 1603 	orr.w	r6, r6, r3, lsl #4
 8000b36:	4b22      	ldr	r3, [pc, #136]	; (8000bc0 <TIM_OC2Init+0x14c>)
 8000b38:	429c      	cmp	r4, r3
 8000b3a:	d003      	beq.n	8000b44 <TIM_OC2Init+0xd0>
 8000b3c:	f503 6380 	add.w	r3, r3, #1024	; 0x400
 8000b40:	429c      	cmp	r4, r3
 8000b42:	d134      	bne.n	8000bae <TIM_OC2Init+0x13a>
 8000b44:	68ab      	ldr	r3, [r5, #8]
 8000b46:	f033 0304 	bics.w	r3, r3, #4
 8000b4a:	d004      	beq.n	8000b56 <TIM_OC2Init+0xe2>
 8000b4c:	f240 21bf 	movw	r1, #703	; 0x2bf
 8000b50:	481c      	ldr	r0, [pc, #112]	; (8000bc4 <TIM_OC2Init+0x150>)
 8000b52:	f7ff fbdf 	bl	8000314 <assert_failed>
 8000b56:	696b      	ldr	r3, [r5, #20]
 8000b58:	f033 0308 	bics.w	r3, r3, #8
 8000b5c:	d004      	beq.n	8000b68 <TIM_OC2Init+0xf4>
 8000b5e:	f44f 7130 	mov.w	r1, #704	; 0x2c0
 8000b62:	4818      	ldr	r0, [pc, #96]	; (8000bc4 <TIM_OC2Init+0x150>)
 8000b64:	f7ff fbd6 	bl	8000314 <assert_failed>
 8000b68:	69eb      	ldr	r3, [r5, #28]
 8000b6a:	f433 7300 	bics.w	r3, r3, #512	; 0x200
 8000b6e:	d004      	beq.n	8000b7a <TIM_OC2Init+0x106>
 8000b70:	f240 21c1 	movw	r1, #705	; 0x2c1
 8000b74:	4813      	ldr	r0, [pc, #76]	; (8000bc4 <TIM_OC2Init+0x150>)
 8000b76:	f7ff fbcd 	bl	8000314 <assert_failed>
 8000b7a:	69ab      	ldr	r3, [r5, #24]
 8000b7c:	f433 7380 	bics.w	r3, r3, #256	; 0x100
 8000b80:	d004      	beq.n	8000b8c <TIM_OC2Init+0x118>
 8000b82:	f240 21c2 	movw	r1, #706	; 0x2c2
 8000b86:	480f      	ldr	r0, [pc, #60]	; (8000bc4 <TIM_OC2Init+0x150>)
 8000b88:	f7ff fbc4 	bl	8000314 <assert_failed>
 8000b8c:	696b      	ldr	r3, [r5, #20]
 8000b8e:	f026 0680 	bic.w	r6, r6, #128	; 0x80
 8000b92:	ea46 1603 	orr.w	r6, r6, r3, lsl #4
 8000b96:	68ab      	ldr	r3, [r5, #8]
 8000b98:	f026 0640 	bic.w	r6, r6, #64	; 0x40
 8000b9c:	ea46 1603 	orr.w	r6, r6, r3, lsl #4
 8000ba0:	e9d5 3206 	ldrd	r3, r2, [r5, #24]
 8000ba4:	f427 6740 	bic.w	r7, r7, #3072	; 0xc00
 8000ba8:	4313      	orrs	r3, r2
 8000baa:	ea47 0783 	orr.w	r7, r7, r3, lsl #2
 8000bae:	68eb      	ldr	r3, [r5, #12]
 8000bb0:	6067      	str	r7, [r4, #4]
 8000bb2:	f8c4 8018 	str.w	r8, [r4, #24]
 8000bb6:	63a3      	str	r3, [r4, #56]	; 0x38
 8000bb8:	6226      	str	r6, [r4, #32]
 8000bba:	e8bd 81f0 	ldmia.w	sp!, {r4, r5, r6, r7, r8, pc}
 8000bbe:	bf00      	nop
 8000bc0:	40010000 	andmi	r0, r1, r0
 8000bc4:	08003b5c 	stmdaeq	r0, {r2, r3, r4, r6, r8, r9, fp, ip, sp}

08000bc8 <TIM_OC3Init>:
 8000bc8:	4b4e      	ldr	r3, [pc, #312]	; (8000d04 <TIM_OC3Init+0x13c>)
 8000bca:	4298      	cmp	r0, r3
 8000bcc:	e92d 41f0 	stmdb	sp!, {r4, r5, r6, r7, r8, lr}
 8000bd0:	4604      	mov	r4, r0
 8000bd2:	460d      	mov	r5, r1
 8000bd4:	d017      	beq.n	8000c06 <TIM_OC3Init+0x3e>
 8000bd6:	f1b0 4f80 	cmp.w	r0, #1073741824	; 0x40000000
 8000bda:	d014      	beq.n	8000c06 <TIM_OC3Init+0x3e>
 8000bdc:	f5a3 437c 	sub.w	r3, r3, #64512	; 0xfc00
 8000be0:	4298      	cmp	r0, r3
 8000be2:	d010      	beq.n	8000c06 <TIM_OC3Init+0x3e>
 8000be4:	f503 6380 	add.w	r3, r3, #1024	; 0x400
 8000be8:	4298      	cmp	r0, r3
 8000bea:	d00c      	beq.n	8000c06 <TIM_OC3Init+0x3e>
 8000bec:	f503 6380 	add.w	r3, r3, #1024	; 0x400
 8000bf0:	4298      	cmp	r0, r3
 8000bf2:	d008      	beq.n	8000c06 <TIM_OC3Init+0x3e>
 8000bf4:	f503 4378 	add.w	r3, r3, #63488	; 0xf800
 8000bf8:	4298      	cmp	r0, r3
 8000bfa:	d004      	beq.n	8000c06 <TIM_OC3Init+0x3e>
 8000bfc:	f240 21ef 	movw	r1, #751	; 0x2ef
 8000c00:	4841      	ldr	r0, [pc, #260]	; (8000d08 <TIM_OC3Init+0x140>)
 8000c02:	f7ff fb87 	bl	8000314 <assert_failed>
 8000c06:	682b      	ldr	r3, [r5, #0]
 8000c08:	f033 0230 	bics.w	r2, r3, #48	; 0x30
 8000c0c:	d00f      	beq.n	8000c2e <TIM_OC3Init+0x66>
 8000c0e:	f423 3280 	bic.w	r2, r3, #65536	; 0x10000
 8000c12:	f022 0210 	bic.w	r2, r2, #16
 8000c16:	2a60      	cmp	r2, #96	; 0x60
 8000c18:	d009      	beq.n	8000c2e <TIM_OC3Init+0x66>
 8000c1a:	f023 0350 	bic.w	r3, r3, #80	; 0x50
 8000c1e:	f5b3 3f80 	cmp.w	r3, #65536	; 0x10000
 8000c22:	d004      	beq.n	8000c2e <TIM_OC3Init+0x66>
 8000c24:	f44f 713c 	mov.w	r1, #752	; 0x2f0
 8000c28:	4837      	ldr	r0, [pc, #220]	; (8000d08 <TIM_OC3Init+0x140>)
 8000c2a:	f7ff fb73 	bl	8000314 <assert_failed>
 8000c2e:	686b      	ldr	r3, [r5, #4]
 8000c30:	2b01      	cmp	r3, #1
 8000c32:	d904      	bls.n	8000c3e <TIM_OC3Init+0x76>
 8000c34:	f240 21f1 	movw	r1, #753	; 0x2f1
 8000c38:	4833      	ldr	r0, [pc, #204]	; (8000d08 <TIM_OC3Init+0x140>)
 8000c3a:	f7ff fb6b 	bl	8000314 <assert_failed>
 8000c3e:	692b      	ldr	r3, [r5, #16]
 8000c40:	f033 0302 	bics.w	r3, r3, #2
 8000c44:	d004      	beq.n	8000c50 <TIM_OC3Init+0x88>
 8000c46:	f240 21f2 	movw	r1, #754	; 0x2f2
 8000c4a:	482f      	ldr	r0, [pc, #188]	; (8000d08 <TIM_OC3Init+0x140>)
 8000c4c:	f7ff fb62 	bl	8000314 <assert_failed>
 8000c50:	6a23      	ldr	r3, [r4, #32]
 8000c52:	682a      	ldr	r2, [r5, #0]
 8000c54:	f423 7380 	bic.w	r3, r3, #256	; 0x100
 8000c58:	6223      	str	r3, [r4, #32]
 8000c5a:	6a26      	ldr	r6, [r4, #32]
 8000c5c:	6867      	ldr	r7, [r4, #4]
 8000c5e:	69e3      	ldr	r3, [r4, #28]
 8000c60:	f423 3380 	bic.w	r3, r3, #65536	; 0x10000
 8000c64:	f023 0373 	bic.w	r3, r3, #115	; 0x73
 8000c68:	ea43 0802 	orr.w	r8, r3, r2
 8000c6c:	692b      	ldr	r3, [r5, #16]
 8000c6e:	686a      	ldr	r2, [r5, #4]
 8000c70:	f426 7600 	bic.w	r6, r6, #512	; 0x200
 8000c74:	4313      	orrs	r3, r2
 8000c76:	ea46 2603 	orr.w	r6, r6, r3, lsl #8
 8000c7a:	4b22      	ldr	r3, [pc, #136]	; (8000d04 <TIM_OC3Init+0x13c>)
 8000c7c:	429c      	cmp	r4, r3
 8000c7e:	d003      	beq.n	8000c88 <TIM_OC3Init+0xc0>
 8000c80:	f503 6380 	add.w	r3, r3, #1024	; 0x400
 8000c84:	429c      	cmp	r4, r3
 8000c86:	d134      	bne.n	8000cf2 <TIM_OC3Init+0x12a>
 8000c88:	68ab      	ldr	r3, [r5, #8]
 8000c8a:	f033 0304 	bics.w	r3, r3, #4
 8000c8e:	d004      	beq.n	8000c9a <TIM_OC3Init+0xd2>
 8000c90:	f240 310f 	movw	r1, #783	; 0x30f
 8000c94:	481c      	ldr	r0, [pc, #112]	; (8000d08 <TIM_OC3Init+0x140>)
 8000c96:	f7ff fb3d 	bl	8000314 <assert_failed>
 8000c9a:	696b      	ldr	r3, [r5, #20]
 8000c9c:	f033 0308 	bics.w	r3, r3, #8
 8000ca0:	d004      	beq.n	8000cac <TIM_OC3Init+0xe4>
 8000ca2:	f44f 7144 	mov.w	r1, #784	; 0x310
 8000ca6:	4818      	ldr	r0, [pc, #96]	; (8000d08 <TIM_OC3Init+0x140>)
 8000ca8:	f7ff fb34 	bl	8000314 <assert_failed>
 8000cac:	69eb      	ldr	r3, [r5, #28]
 8000cae:	f433 7300 	bics.w	r3, r3, #512	; 0x200
 8000cb2:	d004      	beq.n	8000cbe <TIM_OC3Init+0xf6>
 8000cb4:	f240 3111 	movw	r1, #785	; 0x311
 8000cb8:	4813      	ldr	r0, [pc, #76]	; (8000d08 <TIM_OC3Init+0x140>)
 8000cba:	f7ff fb2b 	bl	8000314 <assert_failed>
 8000cbe:	69ab      	ldr	r3, [r5, #24]
 8000cc0:	f433 7380 	bics.w	r3, r3, #256	; 0x100
 8000cc4:	d004      	beq.n	8000cd0 <TIM_OC3Init+0x108>
 8000cc6:	f240 3112 	movw	r1, #786	; 0x312
 8000cca:	480f      	ldr	r0, [pc, #60]	; (8000d08 <TIM_OC3Init+0x140>)
 8000ccc:	f7ff fb22 	bl	8000314 <assert_failed>
 8000cd0:	696b      	ldr	r3, [r5, #20]
 8000cd2:	f426 6600 	bic.w	r6, r6, #2048	; 0x800
 8000cd6:	ea46 2603 	orr.w	r6, r6, r3, lsl #8
 8000cda:	68ab      	ldr	r3, [r5, #8]
 8000cdc:	f426 6680 	bic.w	r6, r6, #1024	; 0x400
 8000ce0:	ea46 2603 	orr.w	r6, r6, r3, lsl #8
 8000ce4:	e9d5 3206 	ldrd	r3, r2, [r5, #24]
 8000ce8:	f427 5740 	bic.w	r7, r7, #12288	; 0x3000
 8000cec:	4313      	orrs	r3, r2
 8000cee:	ea47 1703 	orr.w	r7, r7, r3, lsl #4
 8000cf2:	68eb      	ldr	r3, [r5, #12]
 8000cf4:	6067      	str	r7, [r4, #4]
 8000cf6:	f8c4 801c 	str.w	r8, [r4, #28]
 8000cfa:	63e3      	str	r3, [r4, #60]	; 0x3c
 8000cfc:	6226      	str	r6, [r4, #32]
 8000cfe:	e8bd 81f0 	ldmia.w	sp!, {r4, r5, r6, r7, r8, pc}
 8000d02:	bf00      	nop
 8000d04:	40010000 	andmi	r0, r1, r0
 8000d08:	08003b5c 	stmdaeq	r0, {r2, r3, r4, r6, r8, r9, fp, ip, sp}

08000d0c <TIM_OC2PreloadConfig>:
 8000d0c:	b538      	push	{r3, r4, r5, lr}
 8000d0e:	4b1a      	ldr	r3, [pc, #104]	; (8000d78 <TIM_OC2PreloadConfig+0x6c>)
 8000d10:	4298      	cmp	r0, r3
 8000d12:	4604      	mov	r4, r0
 8000d14:	460d      	mov	r5, r1
 8000d16:	d01f      	beq.n	8000d58 <TIM_OC2PreloadConfig+0x4c>
 8000d18:	f1b0 4f80 	cmp.w	r0, #1073741824	; 0x40000000
 8000d1c:	d01c      	beq.n	8000d58 <TIM_OC2PreloadConfig+0x4c>
 8000d1e:	f5a3 437c 	sub.w	r3, r3, #64512	; 0xfc00
 8000d22:	4298      	cmp	r0, r3
 8000d24:	d018      	beq.n	8000d58 <TIM_OC2PreloadConfig+0x4c>
 8000d26:	f503 6380 	add.w	r3, r3, #1024	; 0x400
 8000d2a:	4298      	cmp	r0, r3
 8000d2c:	d014      	beq.n	8000d58 <TIM_OC2PreloadConfig+0x4c>
 8000d2e:	f503 6380 	add.w	r3, r3, #1024	; 0x400
 8000d32:	4298      	cmp	r0, r3
 8000d34:	d010      	beq.n	8000d58 <TIM_OC2PreloadConfig+0x4c>
 8000d36:	f503 4378 	add.w	r3, r3, #63488	; 0xf800
 8000d3a:	4298      	cmp	r0, r3
 8000d3c:	d00c      	beq.n	8000d58 <TIM_OC2PreloadConfig+0x4c>
 8000d3e:	f503 5370 	add.w	r3, r3, #15360	; 0x3c00
 8000d42:	4298      	cmp	r0, r3
 8000d44:	d008      	beq.n	8000d58 <TIM_OC2PreloadConfig+0x4c>
 8000d46:	f5a3 3394 	sub.w	r3, r3, #75776	; 0x12800
 8000d4a:	4298      	cmp	r0, r3
 8000d4c:	d004      	beq.n	8000d58 <TIM_OC2PreloadConfig+0x4c>
 8000d4e:	f240 51ce 	movw	r1, #1486	; 0x5ce
 8000d52:	480a      	ldr	r0, [pc, #40]	; (8000d7c <TIM_OC2PreloadConfig+0x70>)
 8000d54:	f7ff fade 	bl	8000314 <assert_failed>
 8000d58:	f035 0308 	bics.w	r3, r5, #8
 8000d5c:	d004      	beq.n	8000d68 <TIM_OC2PreloadConfig+0x5c>
 8000d5e:	f240 51cf 	movw	r1, #1487	; 0x5cf
 8000d62:	4806      	ldr	r0, [pc, #24]	; (8000d7c <TIM_OC2PreloadConfig+0x70>)
 8000d64:	f7ff fad6 	bl	8000314 <assert_failed>
 8000d68:	69a1      	ldr	r1, [r4, #24]
 8000d6a:	f421 6100 	bic.w	r1, r1, #2048	; 0x800
 8000d6e:	ea41 2105 	orr.w	r1, r1, r5, lsl #8
 8000d72:	61a1      	str	r1, [r4, #24]
 8000d74:	bd38      	pop	{r3, r4, r5, pc}
 8000d76:	bf00      	nop
 8000d78:	40010000 	andmi	r0, r1, r0
 8000d7c:	08003b5c 	stmdaeq	r0, {r2, r3, r4, r6, r8, r9, fp, ip, sp}

08000d80 <TIM_OC3PreloadConfig>:
 8000d80:	b538      	push	{r3, r4, r5, lr}
 8000d82:	4b15      	ldr	r3, [pc, #84]	; (8000dd8 <TIM_OC3PreloadConfig+0x58>)
 8000d84:	4298      	cmp	r0, r3
 8000d86:	4604      	mov	r4, r0
 8000d88:	460d      	mov	r5, r1
 8000d8a:	d017      	beq.n	8000dbc <TIM_OC3PreloadConfig+0x3c>
 8000d8c:	f1b0 4f80 	cmp.w	r0, #1073741824	; 0x40000000
 8000d90:	d014      	beq.n	8000dbc <TIM_OC3PreloadConfig+0x3c>
 8000d92:	f5a3 437c 	sub.w	r3, r3, #64512	; 0xfc00
 8000d96:	4298      	cmp	r0, r3
 8000d98:	d010      	beq.n	8000dbc <TIM_OC3PreloadConfig+0x3c>
 8000d9a:	f503 6380 	add.w	r3, r3, #1024	; 0x400
 8000d9e:	4298      	cmp	r0, r3
 8000da0:	d00c      	beq.n	8000dbc <TIM_OC3PreloadConfig+0x3c>
 8000da2:	f503 6380 	add.w	r3, r3, #1024	; 0x400
 8000da6:	4298      	cmp	r0, r3
 8000da8:	d008      	beq.n	8000dbc <TIM_OC3PreloadConfig+0x3c>
 8000daa:	f503 4378 	add.w	r3, r3, #63488	; 0xf800
 8000dae:	4298      	cmp	r0, r3
 8000db0:	d004      	beq.n	8000dbc <TIM_OC3PreloadConfig+0x3c>
 8000db2:	f240 51eb 	movw	r1, #1515	; 0x5eb
 8000db6:	4809      	ldr	r0, [pc, #36]	; (8000ddc <TIM_OC3PreloadConfig+0x5c>)
 8000db8:	f7ff faac 	bl	8000314 <assert_failed>
 8000dbc:	f035 0308 	bics.w	r3, r5, #8
 8000dc0:	d004      	beq.n	8000dcc <TIM_OC3PreloadConfig+0x4c>
 8000dc2:	f240 51ec 	movw	r1, #1516	; 0x5ec
 8000dc6:	4805      	ldr	r0, [pc, #20]	; (8000ddc <TIM_OC3PreloadConfig+0x5c>)
 8000dc8:	f7ff faa4 	bl	8000314 <assert_failed>
 8000dcc:	69e3      	ldr	r3, [r4, #28]
 8000dce:	f023 0308 	bic.w	r3, r3, #8
 8000dd2:	431d      	orrs	r5, r3
 8000dd4:	61e5      	str	r5, [r4, #28]
 8000dd6:	bd38      	pop	{r3, r4, r5, pc}
 8000dd8:	40010000 	andmi	r0, r1, r0
 8000ddc:	08003b5c 	stmdaeq	r0, {r2, r3, r4, r6, r8, r9, fp, ip, sp}

08000de0 <TIM_CtrlPWMOutputs>:
 8000de0:	b538      	push	{r3, r4, r5, lr}
 8000de2:	4b10      	ldr	r3, [pc, #64]	; (8000e24 <TIM_CtrlPWMOutputs+0x44>)
 8000de4:	4298      	cmp	r0, r3
 8000de6:	4604      	mov	r4, r0
 8000de8:	460d      	mov	r5, r1
 8000dea:	d008      	beq.n	8000dfe <TIM_CtrlPWMOutputs+0x1e>
 8000dec:	f503 6380 	add.w	r3, r3, #1024	; 0x400
 8000df0:	4298      	cmp	r0, r3
 8000df2:	d004      	beq.n	8000dfe <TIM_CtrlPWMOutputs+0x1e>
 8000df4:	f640 21a9 	movw	r1, #2729	; 0xaa9
 8000df8:	480b      	ldr	r0, [pc, #44]	; (8000e28 <TIM_CtrlPWMOutputs+0x48>)
 8000dfa:	f7ff fa8b 	bl	8000314 <assert_failed>
 8000dfe:	2d01      	cmp	r5, #1
 8000e00:	d909      	bls.n	8000e16 <TIM_CtrlPWMOutputs+0x36>
 8000e02:	f640 21aa 	movw	r1, #2730	; 0xaaa
 8000e06:	4808      	ldr	r0, [pc, #32]	; (8000e28 <TIM_CtrlPWMOutputs+0x48>)
 8000e08:	f7ff fa84 	bl	8000314 <assert_failed>
 8000e0c:	6c63      	ldr	r3, [r4, #68]	; 0x44
 8000e0e:	f443 4300 	orr.w	r3, r3, #32768	; 0x8000
 8000e12:	6463      	str	r3, [r4, #68]	; 0x44
 8000e14:	bd38      	pop	{r3, r4, r5, pc}
 8000e16:	2d00      	cmp	r5, #0
 8000e18:	d1f8      	bne.n	8000e0c <TIM_CtrlPWMOutputs+0x2c>
 8000e1a:	6c63      	ldr	r3, [r4, #68]	; 0x44
 8000e1c:	f423 4300 	bic.w	r3, r3, #32768	; 0x8000
 8000e20:	e7f7      	b.n	8000e12 <TIM_CtrlPWMOutputs+0x32>
 8000e22:	bf00      	nop
 8000e24:	40010000 	andmi	r0, r1, r0
 8000e28:	08003b5c 	stmdaeq	r0, {r2, r3, r4, r6, r8, r9, fp, ip, sp}

08000e2c <TIM_ITConfig>:
 8000e2c:	4b2c      	ldr	r3, [pc, #176]	; (8000ee0 <TIM_ITConfig+0xb4>)
 8000e2e:	4298      	cmp	r0, r3
 8000e30:	b570      	push	{r4, r5, r6, lr}
 8000e32:	4604      	mov	r4, r0
 8000e34:	460d      	mov	r5, r1
 8000e36:	4616      	mov	r6, r2
 8000e38:	d037      	beq.n	8000eaa <TIM_ITConfig+0x7e>
 8000e3a:	f1b0 4f80 	cmp.w	r0, #1073741824	; 0x40000000
 8000e3e:	d034      	beq.n	8000eaa <TIM_ITConfig+0x7e>
 8000e40:	f5a3 437c 	sub.w	r3, r3, #64512	; 0xfc00
 8000e44:	4298      	cmp	r0, r3
 8000e46:	d030      	beq.n	8000eaa <TIM_ITConfig+0x7e>
 8000e48:	f503 6380 	add.w	r3, r3, #1024	; 0x400
 8000e4c:	4298      	cmp	r0, r3
 8000e4e:	d02c      	beq.n	8000eaa <TIM_ITConfig+0x7e>
 8000e50:	f503 6380 	add.w	r3, r3, #1024	; 0x400
 8000e54:	4298      	cmp	r0, r3
 8000e56:	d028      	beq.n	8000eaa <TIM_ITConfig+0x7e>
 8000e58:	f503 6380 	add.w	r3, r3, #1024	; 0x400
 8000e5c:	4298      	cmp	r0, r3
 8000e5e:	d024      	beq.n	8000eaa <TIM_ITConfig+0x7e>
 8000e60:	f503 6380 	add.w	r3, r3, #1024	; 0x400
 8000e64:	4298      	cmp	r0, r3
 8000e66:	d020      	beq.n	8000eaa <TIM_ITConfig+0x7e>
 8000e68:	f503 4370 	add.w	r3, r3, #61440	; 0xf000
 8000e6c:	4298      	cmp	r0, r3
 8000e6e:	d01c      	beq.n	8000eaa <TIM_ITConfig+0x7e>
 8000e70:	f503 5370 	add.w	r3, r3, #15360	; 0x3c00
 8000e74:	4298      	cmp	r0, r3
 8000e76:	d018      	beq.n	8000eaa <TIM_ITConfig+0x7e>
 8000e78:	f503 6380 	add.w	r3, r3, #1024	; 0x400
 8000e7c:	4298      	cmp	r0, r3
 8000e7e:	d014      	beq.n	8000eaa <TIM_ITConfig+0x7e>
 8000e80:	f503 6380 	add.w	r3, r3, #1024	; 0x400
 8000e84:	4298      	cmp	r0, r3
 8000e86:	d010      	beq.n	8000eaa <TIM_ITConfig+0x7e>
 8000e88:	f5a3 3398 	sub.w	r3, r3, #77824	; 0x13000
 8000e8c:	4298      	cmp	r0, r3
 8000e8e:	d00c      	beq.n	8000eaa <TIM_ITConfig+0x7e>
 8000e90:	f503 6380 	add.w	r3, r3, #1024	; 0x400
 8000e94:	4298      	cmp	r0, r3
 8000e96:	d008      	beq.n	8000eaa <TIM_ITConfig+0x7e>
 8000e98:	f503 6380 	add.w	r3, r3, #1024	; 0x400
 8000e9c:	4298      	cmp	r0, r3
 8000e9e:	d004      	beq.n	8000eaa <TIM_ITConfig+0x7e>
 8000ea0:	f640 3114 	movw	r1, #2836	; 0xb14
 8000ea4:	480f      	ldr	r0, [pc, #60]	; (8000ee4 <TIM_ITConfig+0xb8>)
 8000ea6:	f7ff fa35 	bl	8000314 <assert_failed>
 8000eaa:	f035 03ff 	bics.w	r3, r5, #255	; 0xff
 8000eae:	d100      	bne.n	8000eb2 <TIM_ITConfig+0x86>
 8000eb0:	b925      	cbnz	r5, 8000ebc <TIM_ITConfig+0x90>
 8000eb2:	f640 3115 	movw	r1, #2837	; 0xb15
 8000eb6:	480b      	ldr	r0, [pc, #44]	; (8000ee4 <TIM_ITConfig+0xb8>)
 8000eb8:	f7ff fa2c 	bl	8000314 <assert_failed>
 8000ebc:	2e01      	cmp	r6, #1
 8000ebe:	d908      	bls.n	8000ed2 <TIM_ITConfig+0xa6>
 8000ec0:	f640 3116 	movw	r1, #2838	; 0xb16
 8000ec4:	4807      	ldr	r0, [pc, #28]	; (8000ee4 <TIM_ITConfig+0xb8>)
 8000ec6:	f7ff fa25 	bl	8000314 <assert_failed>
 8000eca:	68e3      	ldr	r3, [r4, #12]
 8000ecc:	431d      	orrs	r5, r3
 8000ece:	60e5      	str	r5, [r4, #12]
 8000ed0:	bd70      	pop	{r4, r5, r6, pc}
 8000ed2:	2e00      	cmp	r6, #0
 8000ed4:	d1f9      	bne.n	8000eca <TIM_ITConfig+0x9e>
 8000ed6:	68e3      	ldr	r3, [r4, #12]
 8000ed8:	ea23 0505 	bic.w	r5, r3, r5
 8000edc:	e7f7      	b.n	8000ece <TIM_ITConfig+0xa2>
 8000ede:	bf00      	nop
 8000ee0:	40010000 	andmi	r0, r1, r0
 8000ee4:	08003b5c 	stmdaeq	r0, {r2, r3, r4, r6, r8, r9, fp, ip, sp}

08000ee8 <FLASH_SetLatency>:
 8000ee8:	280f      	cmp	r0, #15
 8000eea:	b510      	push	{r4, lr}
 8000eec:	4604      	mov	r4, r0
 8000eee:	d903      	bls.n	8000ef8 <FLASH_SetLatency+0x10>
 8000ef0:	218d      	movs	r1, #141	; 0x8d
 8000ef2:	4805      	ldr	r0, [pc, #20]	; (8000f08 <FLASH_SetLatency+0x20>)
 8000ef4:	f7ff fa0e 	bl	8000314 <assert_failed>
 8000ef8:	4b04      	ldr	r3, [pc, #16]	; (8000f0c <FLASH_SetLatency+0x24>)
 8000efa:	6818      	ldr	r0, [r3, #0]
 8000efc:	f020 000f 	bic.w	r0, r0, #15
 8000f00:	4320      	orrs	r0, r4
 8000f02:	6018      	str	r0, [r3, #0]
 8000f04:	bd10      	pop	{r4, pc}
 8000f06:	bf00      	nop
 8000f08:	08003b8b 	stmdaeq	r0, {r0, r1, r3, r7, r8, r9, fp, ip, sp}
 8000f0c:	40023c00 	andmi	r3, r2, r0, lsl #24

08000f10 <PWR_OverDriveCmd>:
 8000f10:	2801      	cmp	r0, #1
 8000f12:	b510      	push	{r4, lr}
 8000f14:	4c08      	ldr	r4, [pc, #32]	; (8000f38 <PWR_OverDriveCmd+0x28>)
 8000f16:	d909      	bls.n	8000f2c <PWR_OverDriveCmd+0x1c>
 8000f18:	f240 1191 	movw	r1, #401	; 0x191
 8000f1c:	4807      	ldr	r0, [pc, #28]	; (8000f3c <PWR_OverDriveCmd+0x2c>)
 8000f1e:	f7ff f9f9 	bl	8000314 <assert_failed>
 8000f22:	6823      	ldr	r3, [r4, #0]
 8000f24:	f443 3380 	orr.w	r3, r3, #65536	; 0x10000
 8000f28:	6023      	str	r3, [r4, #0]
 8000f2a:	bd10      	pop	{r4, pc}
 8000f2c:	2800      	cmp	r0, #0
 8000f2e:	d1f8      	bne.n	8000f22 <PWR_OverDriveCmd+0x12>
 8000f30:	6823      	ldr	r3, [r4, #0]
 8000f32:	f423 3380 	bic.w	r3, r3, #65536	; 0x10000
 8000f36:	e7f7      	b.n	8000f28 <PWR_OverDriveCmd+0x18>
 8000f38:	40007000 	andmi	r7, r0, r0
 8000f3c:	08003bbc 	stmdaeq	r0, {r2, r3, r4, r5, r7, r8, r9, fp, ip, sp}

08000f40 <PWR_OverDriveSWCmd>:
 8000f40:	2801      	cmp	r0, #1
 8000f42:	b510      	push	{r4, lr}
 8000f44:	4c08      	ldr	r4, [pc, #32]	; (8000f68 <PWR_OverDriveSWCmd+0x28>)
 8000f46:	d909      	bls.n	8000f5c <PWR_OverDriveSWCmd+0x1c>
 8000f48:	f44f 71d6 	mov.w	r1, #428	; 0x1ac
 8000f4c:	4807      	ldr	r0, [pc, #28]	; (8000f6c <PWR_OverDriveSWCmd+0x2c>)
 8000f4e:	f7ff f9e1 	bl	8000314 <assert_failed>
 8000f52:	6823      	ldr	r3, [r4, #0]
 8000f54:	f443 3300 	orr.w	r3, r3, #131072	; 0x20000
 8000f58:	6023      	str	r3, [r4, #0]
 8000f5a:	bd10      	pop	{r4, pc}
 8000f5c:	2800      	cmp	r0, #0
 8000f5e:	d1f8      	bne.n	8000f52 <PWR_OverDriveSWCmd+0x12>
 8000f60:	6823      	ldr	r3, [r4, #0]
 8000f62:	f423 3300 	bic.w	r3, r3, #131072	; 0x20000
 8000f66:	e7f7      	b.n	8000f58 <PWR_OverDriveSWCmd+0x18>
 8000f68:	40007000 	andmi	r7, r0, r0
 8000f6c:	08003bbc 	stmdaeq	r0, {r2, r3, r4, r5, r7, r8, r9, fp, ip, sp}

08000f70 <PWR_GetFlagStatus>:
 8000f70:	f100 4300 	add.w	r3, r0, #2147483648	; 0x80000000
 8000f74:	3b01      	subs	r3, #1
 8000f76:	2b1f      	cmp	r3, #31
 8000f78:	b510      	push	{r4, lr}
 8000f7a:	4604      	mov	r4, r0
 8000f7c:	d826      	bhi.n	8000fcc <PWR_GetFlagStatus+0x5c>
 8000f7e:	4a16      	ldr	r2, [pc, #88]	; (8000fd8 <PWR_GetFlagStatus+0x68>)
 8000f80:	fa22 f303 	lsr.w	r3, r2, r3
 8000f84:	07db      	lsls	r3, r3, #31
 8000f86:	d416      	bmi.n	8000fb6 <PWR_GetFlagStatus+0x46>
 8000f88:	f024 4300 	bic.w	r3, r4, #2147483648	; 0x80000000
 8000f8c:	2b04      	cmp	r3, #4
 8000f8e:	d012      	beq.n	8000fb6 <PWR_GetFlagStatus+0x46>
 8000f90:	2b08      	cmp	r3, #8
 8000f92:	d010      	beq.n	8000fb6 <PWR_GetFlagStatus+0x46>
 8000f94:	f5b4 4f80 	cmp.w	r4, #16384	; 0x4000
 8000f98:	d01a      	beq.n	8000fd0 <PWR_GetFlagStatus+0x60>
 8000f9a:	f5b4 3f80 	cmp.w	r4, #65536	; 0x10000
 8000f9e:	d017      	beq.n	8000fd0 <PWR_GetFlagStatus+0x60>
 8000fa0:	f5b4 3f00 	cmp.w	r4, #131072	; 0x20000
 8000fa4:	d014      	beq.n	8000fd0 <PWR_GetFlagStatus+0x60>
 8000fa6:	f5b4 2f40 	cmp.w	r4, #786432	; 0xc0000
 8000faa:	d011      	beq.n	8000fd0 <PWR_GetFlagStatus+0x60>
 8000fac:	f240 3175 	movw	r1, #885	; 0x375
 8000fb0:	480a      	ldr	r0, [pc, #40]	; (8000fdc <PWR_GetFlagStatus+0x6c>)
 8000fb2:	f7ff f9af 	bl	8000314 <assert_failed>
 8000fb6:	2c00      	cmp	r4, #0
 8000fb8:	da0a      	bge.n	8000fd0 <PWR_GetFlagStatus+0x60>
 8000fba:	4b09      	ldr	r3, [pc, #36]	; (8000fe0 <PWR_GetFlagStatus+0x70>)
 8000fbc:	68db      	ldr	r3, [r3, #12]
 8000fbe:	f003 033f 	and.w	r3, r3, #63	; 0x3f
 8000fc2:	4223      	tst	r3, r4
 8000fc4:	bf14      	ite	ne
 8000fc6:	2001      	movne	r0, #1
 8000fc8:	2000      	moveq	r0, #0
 8000fca:	bd10      	pop	{r4, pc}
 8000fcc:	2802      	cmp	r0, #2
 8000fce:	d1db      	bne.n	8000f88 <PWR_GetFlagStatus+0x18>
 8000fd0:	4b03      	ldr	r3, [pc, #12]	; (8000fe0 <PWR_GetFlagStatus+0x70>)
 8000fd2:	685b      	ldr	r3, [r3, #4]
 8000fd4:	e7f5      	b.n	8000fc2 <PWR_GetFlagStatus+0x52>
 8000fd6:	bf00      	nop
 8000fd8:	80008003 	andhi	r8, r0, r3
 8000fdc:	08003bbc 	stmdaeq	r0, {r2, r3, r4, r5, r7, r8, r9, fp, ip, sp}
 8000fe0:	40007000 	andmi	r7, r0, r0

08000fe4 <RCC_HSEConfig>:
 8000fe4:	2801      	cmp	r0, #1
 8000fe6:	b510      	push	{r4, lr}
 8000fe8:	4604      	mov	r4, r0
 8000fea:	d905      	bls.n	8000ff8 <RCC_HSEConfig+0x14>
 8000fec:	2805      	cmp	r0, #5
 8000fee:	d003      	beq.n	8000ff8 <RCC_HSEConfig+0x14>
 8000ff0:	21d0      	movs	r1, #208	; 0xd0
 8000ff2:	4804      	ldr	r0, [pc, #16]	; (8001004 <RCC_HSEConfig+0x20>)
 8000ff4:	f7ff f98e 	bl	8000314 <assert_failed>
 8000ff8:	4b03      	ldr	r3, [pc, #12]	; (8001008 <RCC_HSEConfig+0x24>)
 8000ffa:	2200      	movs	r2, #0
 8000ffc:	701a      	strb	r2, [r3, #0]
 8000ffe:	701c      	strb	r4, [r3, #0]
 8001000:	bd10      	pop	{r4, pc}
 8001002:	bf00      	nop
 8001004:	08003bfb 	stmdaeq	r0, {r0, r1, r3, r4, r5, r6, r7, r8, r9, fp, ip, sp}
 8001008:	40023802 	andmi	r3, r2, r2, lsl #16

0800100c <RCC_PLLConfig>:
 800100c:	e92d 41f0 	stmdb	sp!, {r4, r5, r6, r7, r8, lr}
 8001010:	461d      	mov	r5, r3
 8001012:	f430 0380 	bics.w	r3, r0, #4194304	; 0x400000
 8001016:	4680      	mov	r8, r0
 8001018:	460c      	mov	r4, r1
 800101a:	4617      	mov	r7, r2
 800101c:	9e06      	ldr	r6, [sp, #24]
 800101e:	d004      	beq.n	800102a <RCC_PLLConfig+0x1e>
 8001020:	f240 11a5 	movw	r1, #421	; 0x1a5
 8001024:	4824      	ldr	r0, [pc, #144]	; (80010b8 <RCC_PLLConfig+0xac>)
 8001026:	f7ff f975 	bl	8000314 <assert_failed>
 800102a:	1ea3      	subs	r3, r4, #2
 800102c:	2b3d      	cmp	r3, #61	; 0x3d
 800102e:	d904      	bls.n	800103a <RCC_PLLConfig+0x2e>
 8001030:	f44f 71d3 	mov.w	r1, #422	; 0x1a6
 8001034:	4820      	ldr	r0, [pc, #128]	; (80010b8 <RCC_PLLConfig+0xac>)
 8001036:	f7ff f96d 	bl	8000314 <assert_failed>
 800103a:	f1a7 03c0 	sub.w	r3, r7, #192	; 0xc0
 800103e:	2bf0      	cmp	r3, #240	; 0xf0
 8001040:	d904      	bls.n	800104c <RCC_PLLConfig+0x40>
 8001042:	f240 11a7 	movw	r1, #423	; 0x1a7
 8001046:	481c      	ldr	r0, [pc, #112]	; (80010b8 <RCC_PLLConfig+0xac>)
 8001048:	f7ff f964 	bl	8000314 <assert_failed>
 800104c:	2d08      	cmp	r5, #8
 800104e:	d804      	bhi.n	800105a <RCC_PLLConfig+0x4e>
 8001050:	f44f 73aa 	mov.w	r3, #340	; 0x154
 8001054:	40eb      	lsrs	r3, r5
 8001056:	07db      	lsls	r3, r3, #31
 8001058:	d404      	bmi.n	8001064 <RCC_PLLConfig+0x58>
 800105a:	f44f 71d4 	mov.w	r1, #424	; 0x1a8
 800105e:	4816      	ldr	r0, [pc, #88]	; (80010b8 <RCC_PLLConfig+0xac>)
 8001060:	f7ff f958 	bl	8000314 <assert_failed>
 8001064:	1eb3      	subs	r3, r6, #2
 8001066:	2b0d      	cmp	r3, #13
 8001068:	d904      	bls.n	8001074 <RCC_PLLConfig+0x68>
 800106a:	f240 11a9 	movw	r1, #425	; 0x1a9
 800106e:	4812      	ldr	r0, [pc, #72]	; (80010b8 <RCC_PLLConfig+0xac>)
 8001070:	f7ff f950 	bl	8000314 <assert_failed>
 8001074:	f647 72c0 	movw	r2, #32704	; 0x7fc0
 8001078:	fa92 f2a2 	rbit	r2, r2
 800107c:	f44f 3040 	mov.w	r0, #196608	; 0x30000
 8001080:	fab2 f282 	clz	r2, r2
 8001084:	fa90 f0a0 	rbit	r0, r0
 8001088:	f04f 6170 	mov.w	r1, #251658240	; 0xf000000
 800108c:	fab0 f080 	clz	r0, r0
 8001090:	fa91 f1a1 	rbit	r1, r1
 8001094:	f044 5300 	orr.w	r3, r4, #536870912	; 0x20000000
 8001098:	086d      	lsrs	r5, r5, #1
 800109a:	4097      	lsls	r7, r2
 800109c:	ea43 0308 	orr.w	r3, r3, r8
 80010a0:	3d01      	subs	r5, #1
 80010a2:	fab1 f181 	clz	r1, r1
 80010a6:	433b      	orrs	r3, r7
 80010a8:	4085      	lsls	r5, r0
 80010aa:	432b      	orrs	r3, r5
 80010ac:	408e      	lsls	r6, r1
 80010ae:	4a03      	ldr	r2, [pc, #12]	; (80010bc <RCC_PLLConfig+0xb0>)
 80010b0:	4333      	orrs	r3, r6
 80010b2:	6053      	str	r3, [r2, #4]
 80010b4:	e8bd 81f0 	ldmia.w	sp!, {r4, r5, r6, r7, r8, pc}
 80010b8:	08003bfb 	stmdaeq	r0, {r0, r1, r3, r4, r5, r6, r7, r8, r9, fp, ip, sp}
 80010bc:	40023800 	andmi	r3, r2, r0, lsl #16

080010c0 <RCC_PLLCmd>:
 80010c0:	2801      	cmp	r0, #1
 80010c2:	b510      	push	{r4, lr}
 80010c4:	4c08      	ldr	r4, [pc, #32]	; (80010e8 <RCC_PLLCmd+0x28>)
 80010c6:	d909      	bls.n	80010dc <RCC_PLLCmd+0x1c>
 80010c8:	f240 11bf 	movw	r1, #447	; 0x1bf
 80010cc:	4807      	ldr	r0, [pc, #28]	; (80010ec <RCC_PLLCmd+0x2c>)
 80010ce:	f7ff f921 	bl	8000314 <assert_failed>
 80010d2:	6823      	ldr	r3, [r4, #0]
 80010d4:	f043 7380 	orr.w	r3, r3, #16777216	; 0x1000000
 80010d8:	6023      	str	r3, [r4, #0]
 80010da:	bd10      	pop	{r4, pc}
 80010dc:	2800      	cmp	r0, #0
 80010de:	d1f8      	bne.n	80010d2 <RCC_PLLCmd+0x12>
 80010e0:	6823      	ldr	r3, [r4, #0]
 80010e2:	f023 7380 	bic.w	r3, r3, #16777216	; 0x1000000
 80010e6:	e7f7      	b.n	80010d8 <RCC_PLLCmd+0x18>
 80010e8:	40023800 	andmi	r3, r2, r0, lsl #16
 80010ec:	08003bfb 	stmdaeq	r0, {r0, r1, r3, r4, r5, r6, r7, r8, r9, fp, ip, sp}

080010f0 <RCC_SYSCLKConfig>:
 80010f0:	2802      	cmp	r0, #2
 80010f2:	b510      	push	{r4, lr}
 80010f4:	4604      	mov	r4, r0
 80010f6:	d904      	bls.n	8001102 <RCC_SYSCLKConfig+0x12>
 80010f8:	f240 21f7 	movw	r1, #759	; 0x2f7
 80010fc:	4804      	ldr	r0, [pc, #16]	; (8001110 <RCC_SYSCLKConfig+0x20>)
 80010fe:	f7ff f909 	bl	8000314 <assert_failed>
 8001102:	4a04      	ldr	r2, [pc, #16]	; (8001114 <RCC_SYSCLKConfig+0x24>)
 8001104:	6893      	ldr	r3, [r2, #8]
 8001106:	f023 0303 	bic.w	r3, r3, #3
 800110a:	431c      	orrs	r4, r3
 800110c:	6094      	str	r4, [r2, #8]
 800110e:	bd10      	pop	{r4, pc}
 8001110:	08003bfb 	stmdaeq	r0, {r0, r1, r3, r4, r5, r6, r7, r8, r9, fp, ip, sp}
 8001114:	40023800 	andmi	r3, r2, r0, lsl #16

08001118 <RCC_HCLKConfig>:
 8001118:	f030 0380 	bics.w	r3, r0, #128	; 0x80
 800111c:	b510      	push	{r4, lr}
 800111e:	4604      	mov	r4, r0
 8001120:	d012      	beq.n	8001148 <RCC_HCLKConfig+0x30>
 8001122:	f020 0320 	bic.w	r3, r0, #32
 8001126:	2b90      	cmp	r3, #144	; 0x90
 8001128:	d00e      	beq.n	8001148 <RCC_HCLKConfig+0x30>
 800112a:	f020 0340 	bic.w	r3, r0, #64	; 0x40
 800112e:	2ba0      	cmp	r3, #160	; 0xa0
 8001130:	d00a      	beq.n	8001148 <RCC_HCLKConfig+0x30>
 8001132:	f020 0310 	bic.w	r3, r0, #16
 8001136:	2bc0      	cmp	r3, #192	; 0xc0
 8001138:	d006      	beq.n	8001148 <RCC_HCLKConfig+0x30>
 800113a:	28f0      	cmp	r0, #240	; 0xf0
 800113c:	d004      	beq.n	8001148 <RCC_HCLKConfig+0x30>
 800113e:	f44f 714b 	mov.w	r1, #812	; 0x32c
 8001142:	4805      	ldr	r0, [pc, #20]	; (8001158 <RCC_HCLKConfig+0x40>)
 8001144:	f7ff f8e6 	bl	8000314 <assert_failed>
 8001148:	4a04      	ldr	r2, [pc, #16]	; (800115c <RCC_HCLKConfig+0x44>)
 800114a:	6893      	ldr	r3, [r2, #8]
 800114c:	f023 03f0 	bic.w	r3, r3, #240	; 0xf0
 8001150:	431c      	orrs	r4, r3
 8001152:	6094      	str	r4, [r2, #8]
 8001154:	bd10      	pop	{r4, pc}
 8001156:	bf00      	nop
 8001158:	08003bfb 	stmdaeq	r0, {r0, r1, r3, r4, r5, r6, r7, r8, r9, fp, ip, sp}
 800115c:	40023800 	andmi	r3, r2, r0, lsl #16

08001160 <RCC_PCLK1Config>:
 8001160:	f430 5380 	bics.w	r3, r0, #4096	; 0x1000
 8001164:	b510      	push	{r4, lr}
 8001166:	4604      	mov	r4, r0
 8001168:	d00c      	beq.n	8001184 <RCC_PCLK1Config+0x24>
 800116a:	f420 6300 	bic.w	r3, r0, #2048	; 0x800
 800116e:	f5b3 5fa0 	cmp.w	r3, #5120	; 0x1400
 8001172:	d007      	beq.n	8001184 <RCC_PCLK1Config+0x24>
 8001174:	f5b0 5fc0 	cmp.w	r0, #6144	; 0x1800
 8001178:	d004      	beq.n	8001184 <RCC_PCLK1Config+0x24>
 800117a:	f240 314b 	movw	r1, #843	; 0x34b
 800117e:	4805      	ldr	r0, [pc, #20]	; (8001194 <RCC_PCLK1Config+0x34>)
 8001180:	f7ff f8c8 	bl	8000314 <assert_failed>
 8001184:	4a04      	ldr	r2, [pc, #16]	; (8001198 <RCC_PCLK1Config+0x38>)
 8001186:	6893      	ldr	r3, [r2, #8]
 8001188:	f423 53e0 	bic.w	r3, r3, #7168	; 0x1c00
 800118c:	431c      	orrs	r4, r3
 800118e:	6094      	str	r4, [r2, #8]
 8001190:	bd10      	pop	{r4, pc}
 8001192:	bf00      	nop
 8001194:	08003bfb 	stmdaeq	r0, {r0, r1, r3, r4, r5, r6, r7, r8, r9, fp, ip, sp}
 8001198:	40023800 	andmi	r3, r2, r0, lsl #16

0800119c <RCC_PCLK2Config>:
 800119c:	f430 5380 	bics.w	r3, r0, #4096	; 0x1000
 80011a0:	b510      	push	{r4, lr}
 80011a2:	4604      	mov	r4, r0
 80011a4:	d00c      	beq.n	80011c0 <RCC_PCLK2Config+0x24>
 80011a6:	f420 6300 	bic.w	r3, r0, #2048	; 0x800
 80011aa:	f5b3 5fa0 	cmp.w	r3, #5120	; 0x1400
 80011ae:	d007      	beq.n	80011c0 <RCC_PCLK2Config+0x24>
 80011b0:	f5b0 5fc0 	cmp.w	r0, #6144	; 0x1800
 80011b4:	d004      	beq.n	80011c0 <RCC_PCLK2Config+0x24>
 80011b6:	f240 316a 	movw	r1, #874	; 0x36a
 80011ba:	4805      	ldr	r0, [pc, #20]	; (80011d0 <RCC_PCLK2Config+0x34>)
 80011bc:	f7ff f8aa 	bl	8000314 <assert_failed>
 80011c0:	4b04      	ldr	r3, [pc, #16]	; (80011d4 <RCC_PCLK2Config+0x38>)
 80011c2:	6898      	ldr	r0, [r3, #8]
 80011c4:	f420 4060 	bic.w	r0, r0, #57344	; 0xe000
 80011c8:	ea40 00c4 	orr.w	r0, r0, r4, lsl #3
 80011cc:	6098      	str	r0, [r3, #8]
 80011ce:	bd10      	pop	{r4, pc}
 80011d0:	08003bfb 	stmdaeq	r0, {r0, r1, r3, r4, r5, r6, r7, r8, r9, fp, ip, sp}
 80011d4:	40023800 	andmi	r3, r2, r0, lsl #16

080011d8 <RCC_GetClocksFreq>:
 80011d8:	4a1d      	ldr	r2, [pc, #116]	; (8001250 <RCC_GetClocksFreq+0x78>)
 80011da:	6893      	ldr	r3, [r2, #8]
 80011dc:	f003 030c 	and.w	r3, r3, #12
 80011e0:	2b04      	cmp	r3, #4
 80011e2:	b510      	push	{r4, lr}
 80011e4:	d01a      	beq.n	800121c <RCC_GetClocksFreq+0x44>
 80011e6:	2b08      	cmp	r3, #8
 80011e8:	d01a      	beq.n	8001220 <RCC_GetClocksFreq+0x48>
 80011ea:	4b1a      	ldr	r3, [pc, #104]	; (8001254 <RCC_GetClocksFreq+0x7c>)
 80011ec:	4a18      	ldr	r2, [pc, #96]	; (8001250 <RCC_GetClocksFreq+0x78>)
 80011ee:	6003      	str	r3, [r0, #0]
 80011f0:	6893      	ldr	r3, [r2, #8]
 80011f2:	4919      	ldr	r1, [pc, #100]	; (8001258 <RCC_GetClocksFreq+0x80>)
 80011f4:	f3c3 1303 	ubfx	r3, r3, #4, #4
 80011f8:	5ccc      	ldrb	r4, [r1, r3]
 80011fa:	6803      	ldr	r3, [r0, #0]
 80011fc:	40e3      	lsrs	r3, r4
 80011fe:	6043      	str	r3, [r0, #4]
 8001200:	6894      	ldr	r4, [r2, #8]
 8001202:	f3c4 2482 	ubfx	r4, r4, #10, #3
 8001206:	5d0c      	ldrb	r4, [r1, r4]
 8001208:	fa23 f404 	lsr.w	r4, r3, r4
 800120c:	6084      	str	r4, [r0, #8]
 800120e:	6892      	ldr	r2, [r2, #8]
 8001210:	f3c2 3242 	ubfx	r2, r2, #13, #3
 8001214:	5c8a      	ldrb	r2, [r1, r2]
 8001216:	40d3      	lsrs	r3, r2
 8001218:	60c3      	str	r3, [r0, #12]
 800121a:	bd10      	pop	{r4, pc}
 800121c:	4b0f      	ldr	r3, [pc, #60]	; (800125c <RCC_GetClocksFreq+0x84>)
 800121e:	e7e5      	b.n	80011ec <RCC_GetClocksFreq+0x14>
 8001220:	6854      	ldr	r4, [r2, #4]
 8001222:	6851      	ldr	r1, [r2, #4]
 8001224:	6852      	ldr	r2, [r2, #4]
 8001226:	0263      	lsls	r3, r4, #9
 8001228:	f3c2 1288 	ubfx	r2, r2, #6, #9
 800122c:	f001 013f 	and.w	r1, r1, #63	; 0x3f
 8001230:	bf4c      	ite	mi
 8001232:	4b0a      	ldrmi	r3, [pc, #40]	; (800125c <RCC_GetClocksFreq+0x84>)
 8001234:	4b07      	ldrpl	r3, [pc, #28]	; (8001254 <RCC_GetClocksFreq+0x7c>)
 8001236:	fbb3 f3f1 	udiv	r3, r3, r1
 800123a:	4353      	muls	r3, r2
 800123c:	4a04      	ldr	r2, [pc, #16]	; (8001250 <RCC_GetClocksFreq+0x78>)
 800123e:	6852      	ldr	r2, [r2, #4]
 8001240:	f3c2 4201 	ubfx	r2, r2, #16, #2
 8001244:	3201      	adds	r2, #1
 8001246:	0052      	lsls	r2, r2, #1
 8001248:	fbb3 f3f2 	udiv	r3, r3, r2
 800124c:	e7ce      	b.n	80011ec <RCC_GetClocksFreq+0x14>
 800124e:	bf00      	nop
 8001250:	40023800 	andmi	r3, r2, r0, lsl #16
 8001254:	00f42400 	rscseq	r2, r4, r0, lsl #8
 8001258:	08003beb 	stmdaeq	r0, {r0, r1, r3, r5, r6, r7, r8, r9, fp, ip, sp}
 800125c:	007a1200 	rsbseq	r1, sl, r0, lsl #4

08001260 <RCC_APB1PeriphClockCmd>:
 8001260:	04c3      	lsls	r3, r0, #19
 8001262:	b570      	push	{r4, r5, r6, lr}
 8001264:	4605      	mov	r5, r0
 8001266:	460e      	mov	r6, r1
 8001268:	d400      	bmi.n	800126c <RCC_APB1PeriphClockCmd+0xc>
 800126a:	b920      	cbnz	r0, 8001276 <RCC_APB1PeriphClockCmd+0x16>
 800126c:	f240 51b1 	movw	r1, #1457	; 0x5b1
 8001270:	480a      	ldr	r0, [pc, #40]	; (800129c <RCC_APB1PeriphClockCmd+0x3c>)
 8001272:	f7ff f84f 	bl	8000314 <assert_failed>
 8001276:	2e01      	cmp	r6, #1
 8001278:	4c09      	ldr	r4, [pc, #36]	; (80012a0 <RCC_APB1PeriphClockCmd+0x40>)
 800127a:	d908      	bls.n	800128e <RCC_APB1PeriphClockCmd+0x2e>
 800127c:	f240 51b2 	movw	r1, #1458	; 0x5b2
 8001280:	4806      	ldr	r0, [pc, #24]	; (800129c <RCC_APB1PeriphClockCmd+0x3c>)
 8001282:	f7ff f847 	bl	8000314 <assert_failed>
 8001286:	6c23      	ldr	r3, [r4, #64]	; 0x40
 8001288:	431d      	orrs	r5, r3
 800128a:	6425      	str	r5, [r4, #64]	; 0x40
 800128c:	bd70      	pop	{r4, r5, r6, pc}
 800128e:	2e00      	cmp	r6, #0
 8001290:	d1f9      	bne.n	8001286 <RCC_APB1PeriphClockCmd+0x26>
 8001292:	6c23      	ldr	r3, [r4, #64]	; 0x40
 8001294:	ea23 0505 	bic.w	r5, r3, r5
 8001298:	e7f7      	b.n	800128a <RCC_APB1PeriphClockCmd+0x2a>
 800129a:	bf00      	nop
 800129c:	08003bfb 	stmdaeq	r0, {r0, r1, r3, r4, r5, r6, r7, r8, r9, fp, ip, sp}
 80012a0:	40023800 	andmi	r3, r2, r0, lsl #16

080012a4 <RCC_APB2PeriphClockCmd>:
 80012a4:	4b0e      	ldr	r3, [pc, #56]	; (80012e0 <RCC_APB2PeriphClockCmd+0x3c>)
 80012a6:	4003      	ands	r3, r0
 80012a8:	b570      	push	{r4, r5, r6, lr}
 80012aa:	4605      	mov	r5, r0
 80012ac:	460e      	mov	r6, r1
 80012ae:	b903      	cbnz	r3, 80012b2 <RCC_APB2PeriphClockCmd+0xe>
 80012b0:	b920      	cbnz	r0, 80012bc <RCC_APB2PeriphClockCmd+0x18>
 80012b2:	f240 51df 	movw	r1, #1503	; 0x5df
 80012b6:	480b      	ldr	r0, [pc, #44]	; (80012e4 <RCC_APB2PeriphClockCmd+0x40>)
 80012b8:	f7ff f82c 	bl	8000314 <assert_failed>
 80012bc:	2e01      	cmp	r6, #1
 80012be:	4c0a      	ldr	r4, [pc, #40]	; (80012e8 <RCC_APB2PeriphClockCmd+0x44>)
 80012c0:	d908      	bls.n	80012d4 <RCC_APB2PeriphClockCmd+0x30>
 80012c2:	f44f 61bc 	mov.w	r1, #1504	; 0x5e0
 80012c6:	4807      	ldr	r0, [pc, #28]	; (80012e4 <RCC_APB2PeriphClockCmd+0x40>)
 80012c8:	f7ff f824 	bl	8000314 <assert_failed>
 80012cc:	6c63      	ldr	r3, [r4, #68]	; 0x44
 80012ce:	431d      	orrs	r5, r3
 80012d0:	6465      	str	r5, [r4, #68]	; 0x44
 80012d2:	bd70      	pop	{r4, r5, r6, pc}
 80012d4:	2e00      	cmp	r6, #0
 80012d6:	d1f9      	bne.n	80012cc <RCC_APB2PeriphClockCmd+0x28>
 80012d8:	6c63      	ldr	r3, [r4, #68]	; 0x44
 80012da:	ea23 0505 	bic.w	r5, r3, r5
 80012de:	e7f7      	b.n	80012d0 <RCC_APB2PeriphClockCmd+0x2c>
 80012e0:	9308804c 	movwls	r8, #32844	; 0x804c
 80012e4:	08003bfb 	stmdaeq	r0, {r0, r1, r3, r4, r5, r6, r7, r8, r9, fp, ip, sp}
 80012e8:	40023800 	andmi	r3, r2, r0, lsl #16

080012ec <RCC_GetFlagStatus>:
 80012ec:	f1a0 0321 	sub.w	r3, r0, #33	; 0x21
 80012f0:	b2db      	uxtb	r3, r3
 80012f2:	2b1c      	cmp	r3, #28
 80012f4:	b510      	push	{r4, lr}
 80012f6:	4604      	mov	r4, r0
 80012f8:	d804      	bhi.n	8001304 <RCC_GetFlagStatus+0x18>
 80012fa:	4a11      	ldr	r2, [pc, #68]	; (8001340 <RCC_GetFlagStatus+0x54>)
 80012fc:	fa22 f303 	lsr.w	r3, r2, r3
 8001300:	07db      	lsls	r3, r3, #31
 8001302:	d40c      	bmi.n	800131e <RCC_GetFlagStatus+0x32>
 8001304:	f004 03df 	and.w	r3, r4, #223	; 0xdf
 8001308:	2b41      	cmp	r3, #65	; 0x41
 800130a:	d008      	beq.n	800131e <RCC_GetFlagStatus+0x32>
 800130c:	f1a4 0379 	sub.w	r3, r4, #121	; 0x79
 8001310:	2b06      	cmp	r3, #6
 8001312:	d904      	bls.n	800131e <RCC_GetFlagStatus+0x32>
 8001314:	f640 01c8 	movw	r1, #2248	; 0x8c8
 8001318:	480a      	ldr	r0, [pc, #40]	; (8001344 <RCC_GetFlagStatus+0x58>)
 800131a:	f7fe fffb 	bl	8000314 <assert_failed>
 800131e:	0962      	lsrs	r2, r4, #5
 8001320:	2a01      	cmp	r2, #1
 8001322:	4b09      	ldr	r3, [pc, #36]	; (8001348 <RCC_GetFlagStatus+0x5c>)
 8001324:	d106      	bne.n	8001334 <RCC_GetFlagStatus+0x48>
 8001326:	6818      	ldr	r0, [r3, #0]
 8001328:	f004 041f 	and.w	r4, r4, #31
 800132c:	40e0      	lsrs	r0, r4
 800132e:	f000 0001 	and.w	r0, r0, #1
 8001332:	bd10      	pop	{r4, pc}
 8001334:	2a02      	cmp	r2, #2
 8001336:	bf0c      	ite	eq
 8001338:	6f18      	ldreq	r0, [r3, #112]	; 0x70
 800133a:	6f58      	ldrne	r0, [r3, #116]	; 0x74
 800133c:	e7f4      	b.n	8001328 <RCC_GetFlagStatus+0x3c>
 800133e:	bf00      	nop
 8001340:	15010001 	strne	r0, [r1, #-1]
 8001344:	08003bfb 	stmdaeq	r0, {r0, r1, r3, r4, r5, r6, r7, r8, r9, fp, ip, sp}
 8001348:	40023800 	andmi	r3, r2, r0, lsl #16

0800134c <RCC_WaitForHSEStartUp>:
 800134c:	b513      	push	{r0, r1, r4, lr}
 800134e:	2300      	movs	r3, #0
 8001350:	9301      	str	r3, [sp, #4]
 8001352:	f241 3488 	movw	r4, #5000	; 0x1388
 8001356:	2031      	movs	r0, #49	; 0x31
 8001358:	f7ff ffc8 	bl	80012ec <RCC_GetFlagStatus>
 800135c:	9b01      	ldr	r3, [sp, #4]
 800135e:	3301      	adds	r3, #1
 8001360:	9301      	str	r3, [sp, #4]
 8001362:	9b01      	ldr	r3, [sp, #4]
 8001364:	42a3      	cmp	r3, r4
 8001366:	d001      	beq.n	800136c <RCC_WaitForHSEStartUp+0x20>
 8001368:	2800      	cmp	r0, #0
 800136a:	d0f4      	beq.n	8001356 <RCC_WaitForHSEStartUp+0xa>
 800136c:	2031      	movs	r0, #49	; 0x31
 800136e:	f7ff ffbd 	bl	80012ec <RCC_GetFlagStatus>
 8001372:	3000      	adds	r0, #0
 8001374:	bf18      	it	ne
 8001376:	2001      	movne	r0, #1
 8001378:	b002      	add	sp, #8
 800137a:	bd10      	pop	{r4, pc}

0800137c <_ZN12BackLedLightD1Ev>:
 800137c:	4770      	bx	lr

0800137e <_ZN12BackLedLightD0Ev>:
 800137e:	b510      	push	{r4, lr}
 8001380:	2114      	movs	r1, #20
 8001382:	4604      	mov	r4, r0
 8001384:	f000 fe8c 	bl	80020a0 <_ZdlPvj>
 8001388:	4620      	mov	r0, r4
 800138a:	bd10      	pop	{r4, pc}

0800138c <_ZN12BackLedLight4mainEv>:
 800138c:	b538      	push	{r3, r4, r5, lr}
 800138e:	6883      	ldr	r3, [r0, #8]
 8001390:	4604      	mov	r4, r0
 8001392:	b9fb      	cbnz	r3, 80013d4 <_ZN12BackLedLight4mainEv+0x48>
 8001394:	6842      	ldr	r2, [r0, #4]
 8001396:	6953      	ldr	r3, [r2, #20]
 8001398:	f423 5300 	bic.w	r3, r3, #8192	; 0x2000
 800139c:	6153      	str	r3, [r2, #20]
 800139e:	e9d4 2302 	ldrd	r2, r3, [r4, #8]
 80013a2:	2a05      	cmp	r2, #5
 80013a4:	d12b      	bne.n	80013fe <_ZN12BackLedLight4mainEv+0x72>
 80013a6:	2232      	movs	r2, #50	; 0x32
 80013a8:	210f      	movs	r1, #15
 80013aa:	fbb3 f2f2 	udiv	r2, r3, r2
 80013ae:	fbb2 f1f1 	udiv	r1, r2, r1
 80013b2:	ebc1 1101 	rsb	r1, r1, r1, lsl #4
 80013b6:	1a52      	subs	r2, r2, r1
 80013b8:	492a      	ldr	r1, [pc, #168]	; (8001464 <_ZN12BackLedLight4mainEv+0xd8>)
 80013ba:	6860      	ldr	r0, [r4, #4]
 80013bc:	5c89      	ldrb	r1, [r1, r2]
 80013be:	6942      	ldr	r2, [r0, #20]
 80013c0:	f003 0507 	and.w	r5, r3, #7
 80013c4:	428d      	cmp	r5, r1
 80013c6:	bf34      	ite	cc
 80013c8:	f442 5200 	orrcc.w	r2, r2, #8192	; 0x2000
 80013cc:	f422 5200 	biccs.w	r2, r2, #8192	; 0x2000
 80013d0:	6142      	str	r2, [r0, #20]
 80013d2:	e014      	b.n	80013fe <_ZN12BackLedLight4mainEv+0x72>
 80013d4:	2b01      	cmp	r3, #1
 80013d6:	d104      	bne.n	80013e2 <_ZN12BackLedLight4mainEv+0x56>
 80013d8:	6842      	ldr	r2, [r0, #4]
 80013da:	6953      	ldr	r3, [r2, #20]
 80013dc:	f443 5300 	orr.w	r3, r3, #8192	; 0x2000
 80013e0:	e7dc      	b.n	800139c <_ZN12BackLedLight4mainEv+0x10>
 80013e2:	2b02      	cmp	r3, #2
 80013e4:	d112      	bne.n	800140c <_ZN12BackLedLight4mainEv+0x80>
 80013e6:	68c3      	ldr	r3, [r0, #12]
 80013e8:	6842      	ldr	r2, [r0, #4]
 80013ea:	2064      	movs	r0, #100	; 0x64
 80013ec:	fbb3 f1f0 	udiv	r1, r3, r0
 80013f0:	fb00 3111 	mls	r1, r0, r1, r3
 80013f4:	b931      	cbnz	r1, 8001404 <_ZN12BackLedLight4mainEv+0x78>
 80013f6:	6951      	ldr	r1, [r2, #20]
 80013f8:	f441 5100 	orr.w	r1, r1, #8192	; 0x2000
 80013fc:	6151      	str	r1, [r2, #20]
 80013fe:	3301      	adds	r3, #1
 8001400:	60e3      	str	r3, [r4, #12]
 8001402:	bd38      	pop	{r3, r4, r5, pc}
 8001404:	6951      	ldr	r1, [r2, #20]
 8001406:	f421 5100 	bic.w	r1, r1, #8192	; 0x2000
 800140a:	e7f7      	b.n	80013fc <_ZN12BackLedLight4mainEv+0x70>
 800140c:	2b04      	cmp	r3, #4
 800140e:	d110      	bne.n	8001432 <_ZN12BackLedLight4mainEv+0xa6>
 8001410:	6843      	ldr	r3, [r0, #4]
 8001412:	68c0      	ldr	r0, [r0, #12]
 8001414:	2132      	movs	r1, #50	; 0x32
 8001416:	fbb0 f2f1 	udiv	r2, r0, r1
 800141a:	fb01 0212 	mls	r2, r1, r2, r0
 800141e:	b922      	cbnz	r2, 800142a <_ZN12BackLedLight4mainEv+0x9e>
 8001420:	695a      	ldr	r2, [r3, #20]
 8001422:	f442 5200 	orr.w	r2, r2, #8192	; 0x2000
 8001426:	615a      	str	r2, [r3, #20]
 8001428:	e7b9      	b.n	800139e <_ZN12BackLedLight4mainEv+0x12>
 800142a:	695a      	ldr	r2, [r3, #20]
 800142c:	f422 5200 	bic.w	r2, r2, #8192	; 0x2000
 8001430:	e7f9      	b.n	8001426 <_ZN12BackLedLight4mainEv+0x9a>
 8001432:	2b03      	cmp	r3, #3
 8001434:	d1b3      	bne.n	800139e <_ZN12BackLedLight4mainEv+0x12>
 8001436:	480c      	ldr	r0, [pc, #48]	; (8001468 <_ZN12BackLedLight4mainEv+0xdc>)
 8001438:	f001 fe1c 	bl	8003074 <_ZN5Timer8get_timeEv>
 800143c:	6923      	ldr	r3, [r4, #16]
 800143e:	f503 7348 	add.w	r3, r3, #800	; 0x320
 8001442:	4298      	cmp	r0, r3
 8001444:	d902      	bls.n	800144c <_ZN12BackLedLight4mainEv+0xc0>
 8001446:	2301      	movs	r3, #1
 8001448:	60a3      	str	r3, [r4, #8]
 800144a:	e7a8      	b.n	800139e <_ZN12BackLedLight4mainEv+0x12>
 800144c:	68e0      	ldr	r0, [r4, #12]
 800144e:	6863      	ldr	r3, [r4, #4]
 8001450:	2164      	movs	r1, #100	; 0x64
 8001452:	fbb0 f2f1 	udiv	r2, r0, r1
 8001456:	fb01 0212 	mls	r2, r1, r2, r0
 800145a:	2a18      	cmp	r2, #24
 800145c:	695a      	ldr	r2, [r3, #20]
 800145e:	d8e5      	bhi.n	800142c <_ZN12BackLedLight4mainEv+0xa0>
 8001460:	e7df      	b.n	8001422 <_ZN12BackLedLight4mainEv+0x96>
 8001462:	bf00      	nop
 8001464:	08003c2a 	stmdaeq	r0, {r1, r3, r5, sl, fp, ip, sp}
 8001468:	2000026c 	andcs	r0, r0, ip, ror #4

0800146c <_ZN12BackLedLight8set_modeEj>:
 800146c:	b510      	push	{r4, lr}
 800146e:	2300      	movs	r3, #0
 8001470:	4604      	mov	r4, r0
 8001472:	e9c0 1302 	strd	r1, r3, [r0, #8]
 8001476:	4802      	ldr	r0, [pc, #8]	; (8001480 <_ZN12BackLedLight8set_modeEj+0x14>)
 8001478:	f001 fdfc 	bl	8003074 <_ZN5Timer8get_timeEv>
 800147c:	6120      	str	r0, [r4, #16]
 800147e:	bd10      	pop	{r4, pc}
 8001480:	2000026c 	andcs	r0, r0, ip, ror #4

08001484 <_ZN12BackLedLightC1Ev>:
 8001484:	4a16      	ldr	r2, [pc, #88]	; (80014e0 <_ZN12BackLedLightC1Ev+0x5c>)
 8001486:	4b17      	ldr	r3, [pc, #92]	; (80014e4 <_ZN12BackLedLightC1Ev+0x60>)
 8001488:	b510      	push	{r4, lr}
 800148a:	6003      	str	r3, [r0, #0]
 800148c:	6b13      	ldr	r3, [r2, #48]	; 0x30
 800148e:	ea6f 2353 	mvn.w	r3, r3, lsr #9
 8001492:	ea6f 2343 	mvn.w	r3, r3, lsl #9
 8001496:	6313      	str	r3, [r2, #48]	; 0x30
 8001498:	4b13      	ldr	r3, [pc, #76]	; (80014e8 <_ZN12BackLedLightC1Ev+0x64>)
 800149a:	6043      	str	r3, [r0, #4]
 800149c:	689a      	ldr	r2, [r3, #8]
 800149e:	f022 6240 	bic.w	r2, r2, #201326592	; 0xc000000
 80014a2:	609a      	str	r2, [r3, #8]
 80014a4:	689a      	ldr	r2, [r3, #8]
 80014a6:	f042 6240 	orr.w	r2, r2, #201326592	; 0xc000000
 80014aa:	609a      	str	r2, [r3, #8]
 80014ac:	685a      	ldr	r2, [r3, #4]
 80014ae:	f422 5200 	bic.w	r2, r2, #8192	; 0x2000
 80014b2:	605a      	str	r2, [r3, #4]
 80014b4:	685a      	ldr	r2, [r3, #4]
 80014b6:	605a      	str	r2, [r3, #4]
 80014b8:	681a      	ldr	r2, [r3, #0]
 80014ba:	f022 6240 	bic.w	r2, r2, #201326592	; 0xc000000
 80014be:	601a      	str	r2, [r3, #0]
 80014c0:	681a      	ldr	r2, [r3, #0]
 80014c2:	f042 6280 	orr.w	r2, r2, #67108864	; 0x4000000
 80014c6:	4604      	mov	r4, r0
 80014c8:	601a      	str	r2, [r3, #0]
 80014ca:	2103      	movs	r1, #3
 80014cc:	f7ff ffce 	bl	800146c <_ZN12BackLedLight8set_modeEj>
 80014d0:	2300      	movs	r3, #0
 80014d2:	2201      	movs	r2, #1
 80014d4:	4621      	mov	r1, r4
 80014d6:	4805      	ldr	r0, [pc, #20]	; (80014ec <_ZN12BackLedLightC1Ev+0x68>)
 80014d8:	f001 fd98 	bl	800300c <_ZN5Timer8add_taskEP6Threadjb>
 80014dc:	4620      	mov	r0, r4
 80014de:	bd10      	pop	{r4, pc}
 80014e0:	40023800 	andmi	r3, r2, r0, lsl #16
 80014e4:	08003c44 	stmdaeq	r0, {r2, r6, sl, fp, ip, sp}
 80014e8:	40020c00 	andmi	r0, r2, r0, lsl #24
 80014ec:	2000026c 	andcs	r0, r0, ip, ror #4

080014f0 <_ZN4TI2CILh2ELh7ELh6ELh200ELh2EED1Ev>:
 80014f0:	b510      	push	{r4, lr}
 80014f2:	4b03      	ldr	r3, [pc, #12]	; (8001500 <_ZN4TI2CILh2ELh7ELh6ELh200ELh2EED1Ev+0x10>)
 80014f4:	6003      	str	r3, [r0, #0]
 80014f6:	4604      	mov	r4, r0
 80014f8:	f000 fd6d 	bl	8001fd6 <_ZN13I2C_InterfaceD1Ev>
 80014fc:	4620      	mov	r0, r4
 80014fe:	bd10      	pop	{r4, pc}
 8001500:	08003c58 	stmdaeq	r0, {r3, r4, r6, sl, fp, ip, sp}

08001504 <_ZN4TI2CILh2ELh7ELh6ELh200ELh2EED0Ev>:
 8001504:	b510      	push	{r4, lr}
 8001506:	4604      	mov	r4, r0
 8001508:	f7ff fff2 	bl	80014f0 <_ZN4TI2CILh2ELh7ELh6ELh200ELh2EED1Ev>
 800150c:	4620      	mov	r0, r4
 800150e:	2110      	movs	r1, #16
 8001510:	f000 fdc6 	bl	80020a0 <_ZdlPvj>
 8001514:	4620      	mov	r0, r4
 8001516:	bd10      	pop	{r4, pc}

08001518 <_ZN4TI2CILh1ELh5ELh4ELh200ELh1EED1Ev>:
 8001518:	b510      	push	{r4, lr}
 800151a:	4b03      	ldr	r3, [pc, #12]	; (8001528 <_ZN4TI2CILh1ELh5ELh4ELh200ELh1EED1Ev+0x10>)
 800151c:	6003      	str	r3, [r0, #0]
 800151e:	4604      	mov	r4, r0
 8001520:	f000 fd59 	bl	8001fd6 <_ZN13I2C_InterfaceD1Ev>
 8001524:	4620      	mov	r0, r4
 8001526:	bd10      	pop	{r4, pc}
 8001528:	08003c7c 	stmdaeq	r0, {r2, r3, r4, r5, r6, sl, fp, ip, sp}

0800152c <_ZN4TI2CILh1ELh5ELh4ELh200ELh1EED0Ev>:
 800152c:	b510      	push	{r4, lr}
 800152e:	4604      	mov	r4, r0
 8001530:	f7ff fff2 	bl	8001518 <_ZN4TI2CILh1ELh5ELh4ELh200ELh1EED1Ev>
 8001534:	4620      	mov	r0, r4
 8001536:	2110      	movs	r1, #16
 8001538:	f000 fdb2 	bl	80020a0 <_ZdlPvj>
 800153c:	4620      	mov	r0, r4
 800153e:	bd10      	pop	{r4, pc}

08001540 <_ZN4GpioILh2ELh7ELh1EE8set_modeEh>:
 8001540:	b9b9      	cbnz	r1, 8001572 <_ZN4GpioILh2ELh7ELh1EE8set_modeEh+0x32>
 8001542:	6803      	ldr	r3, [r0, #0]
 8001544:	689a      	ldr	r2, [r3, #8]
 8001546:	f422 4240 	bic.w	r2, r2, #49152	; 0xc000
 800154a:	609a      	str	r2, [r3, #8]
 800154c:	689a      	ldr	r2, [r3, #8]
 800154e:	f442 4240 	orr.w	r2, r2, #49152	; 0xc000
 8001552:	609a      	str	r2, [r3, #8]
 8001554:	685a      	ldr	r2, [r3, #4]
 8001556:	f022 0280 	bic.w	r2, r2, #128	; 0x80
 800155a:	605a      	str	r2, [r3, #4]
 800155c:	685a      	ldr	r2, [r3, #4]
 800155e:	605a      	str	r2, [r3, #4]
 8001560:	681a      	ldr	r2, [r3, #0]
 8001562:	f422 4240 	bic.w	r2, r2, #49152	; 0xc000
 8001566:	601a      	str	r2, [r3, #0]
 8001568:	681a      	ldr	r2, [r3, #0]
 800156a:	f442 4280 	orr.w	r2, r2, #16384	; 0x4000
 800156e:	601a      	str	r2, [r3, #0]
 8001570:	4770      	bx	lr
 8001572:	2901      	cmp	r1, #1
 8001574:	d10e      	bne.n	8001594 <_ZN4GpioILh2ELh7ELh1EE8set_modeEh+0x54>
 8001576:	6803      	ldr	r3, [r0, #0]
 8001578:	689a      	ldr	r2, [r3, #8]
 800157a:	f422 4240 	bic.w	r2, r2, #49152	; 0xc000
 800157e:	609a      	str	r2, [r3, #8]
 8001580:	689a      	ldr	r2, [r3, #8]
 8001582:	f442 4240 	orr.w	r2, r2, #49152	; 0xc000
 8001586:	609a      	str	r2, [r3, #8]
 8001588:	681a      	ldr	r2, [r3, #0]
 800158a:	f422 4240 	bic.w	r2, r2, #49152	; 0xc000
 800158e:	601a      	str	r2, [r3, #0]
 8001590:	681a      	ldr	r2, [r3, #0]
 8001592:	e7ec      	b.n	800156e <_ZN4GpioILh2ELh7ELh1EE8set_modeEh+0x2e>
 8001594:	2902      	cmp	r1, #2
 8001596:	d113      	bne.n	80015c0 <_ZN4GpioILh2ELh7ELh1EE8set_modeEh+0x80>
 8001598:	6803      	ldr	r3, [r0, #0]
 800159a:	689a      	ldr	r2, [r3, #8]
 800159c:	f422 4240 	bic.w	r2, r2, #49152	; 0xc000
 80015a0:	609a      	str	r2, [r3, #8]
 80015a2:	689a      	ldr	r2, [r3, #8]
 80015a4:	f442 4240 	orr.w	r2, r2, #49152	; 0xc000
 80015a8:	609a      	str	r2, [r3, #8]
 80015aa:	681a      	ldr	r2, [r3, #0]
 80015ac:	f422 4240 	bic.w	r2, r2, #49152	; 0xc000
 80015b0:	601a      	str	r2, [r3, #0]
 80015b2:	681a      	ldr	r2, [r3, #0]
 80015b4:	601a      	str	r2, [r3, #0]
 80015b6:	68da      	ldr	r2, [r3, #12]
 80015b8:	f442 4280 	orr.w	r2, r2, #16384	; 0x4000
 80015bc:	60da      	str	r2, [r3, #12]
 80015be:	4770      	bx	lr
 80015c0:	2905      	cmp	r1, #5
 80015c2:	d110      	bne.n	80015e6 <_ZN4GpioILh2ELh7ELh1EE8set_modeEh+0xa6>
 80015c4:	6803      	ldr	r3, [r0, #0]
 80015c6:	689a      	ldr	r2, [r3, #8]
 80015c8:	f422 4240 	bic.w	r2, r2, #49152	; 0xc000
 80015cc:	609a      	str	r2, [r3, #8]
 80015ce:	689a      	ldr	r2, [r3, #8]
 80015d0:	f442 4240 	orr.w	r2, r2, #49152	; 0xc000
 80015d4:	609a      	str	r2, [r3, #8]
 80015d6:	681a      	ldr	r2, [r3, #0]
 80015d8:	f422 4240 	bic.w	r2, r2, #49152	; 0xc000
 80015dc:	601a      	str	r2, [r3, #0]
 80015de:	681a      	ldr	r2, [r3, #0]
 80015e0:	f442 4200 	orr.w	r2, r2, #32768	; 0x8000
 80015e4:	e7c3      	b.n	800156e <_ZN4GpioILh2ELh7ELh1EE8set_modeEh+0x2e>
 80015e6:	2904      	cmp	r1, #4
 80015e8:	d1c2      	bne.n	8001570 <_ZN4GpioILh2ELh7ELh1EE8set_modeEh+0x30>
 80015ea:	6803      	ldr	r3, [r0, #0]
 80015ec:	681a      	ldr	r2, [r3, #0]
 80015ee:	f422 4240 	bic.w	r2, r2, #49152	; 0xc000
 80015f2:	601a      	str	r2, [r3, #0]
 80015f4:	681a      	ldr	r2, [r3, #0]
 80015f6:	f442 4240 	orr.w	r2, r2, #49152	; 0xc000
 80015fa:	e7b8      	b.n	800156e <_ZN4GpioILh2ELh7ELh1EE8set_modeEh+0x2e>

080015fc <_ZN4GpioILh2ELh7ELh1EE4initEv>:
 80015fc:	4a06      	ldr	r2, [pc, #24]	; (8001618 <_ZN4GpioILh2ELh7ELh1EE4initEv+0x1c>)
 80015fe:	b508      	push	{r3, lr}
 8001600:	6b13      	ldr	r3, [r2, #48]	; 0x30
 8001602:	ea6f 2353 	mvn.w	r3, r3, lsr #9
 8001606:	ea6f 2343 	mvn.w	r3, r3, lsl #9
 800160a:	6313      	str	r3, [r2, #48]	; 0x30
 800160c:	4b03      	ldr	r3, [pc, #12]	; (800161c <_ZN4GpioILh2ELh7ELh1EE4initEv+0x20>)
 800160e:	6003      	str	r3, [r0, #0]
 8001610:	2101      	movs	r1, #1
 8001612:	f7ff ff95 	bl	8001540 <_ZN4GpioILh2ELh7ELh1EE8set_modeEh>
 8001616:	bd08      	pop	{r3, pc}
 8001618:	40023800 	andmi	r3, r2, r0, lsl #16
 800161c:	40020800 	andmi	r0, r2, r0, lsl #16

08001620 <_ZN4GpioILh2ELh6ELh1EE8set_modeEh>:
 8001620:	b9b9      	cbnz	r1, 8001652 <_ZN4GpioILh2ELh6ELh1EE8set_modeEh+0x32>
 8001622:	6803      	ldr	r3, [r0, #0]
 8001624:	689a      	ldr	r2, [r3, #8]
 8001626:	f422 5240 	bic.w	r2, r2, #12288	; 0x3000
 800162a:	609a      	str	r2, [r3, #8]
 800162c:	689a      	ldr	r2, [r3, #8]
 800162e:	f442 5240 	orr.w	r2, r2, #12288	; 0x3000
 8001632:	609a      	str	r2, [r3, #8]
 8001634:	685a      	ldr	r2, [r3, #4]
 8001636:	f022 0240 	bic.w	r2, r2, #64	; 0x40
 800163a:	605a      	str	r2, [r3, #4]
 800163c:	685a      	ldr	r2, [r3, #4]
 800163e:	605a      	str	r2, [r3, #4]
 8001640:	681a      	ldr	r2, [r3, #0]
 8001642:	f422 5240 	bic.w	r2, r2, #12288	; 0x3000
 8001646:	601a      	str	r2, [r3, #0]
 8001648:	681a      	ldr	r2, [r3, #0]
 800164a:	f442 5280 	orr.w	r2, r2, #4096	; 0x1000
 800164e:	601a      	str	r2, [r3, #0]
 8001650:	4770      	bx	lr
 8001652:	2901      	cmp	r1, #1
 8001654:	d10e      	bne.n	8001674 <_ZN4GpioILh2ELh6ELh1EE8set_modeEh+0x54>
 8001656:	6803      	ldr	r3, [r0, #0]
 8001658:	689a      	ldr	r2, [r3, #8]
 800165a:	f422 5240 	bic.w	r2, r2, #12288	; 0x3000
 800165e:	609a      	str	r2, [r3, #8]
 8001660:	689a      	ldr	r2, [r3, #8]
 8001662:	f442 5240 	orr.w	r2, r2, #12288	; 0x3000
 8001666:	609a      	str	r2, [r3, #8]
 8001668:	681a      	ldr	r2, [r3, #0]
 800166a:	f422 5240 	bic.w	r2, r2, #12288	; 0x3000
 800166e:	601a      	str	r2, [r3, #0]
 8001670:	681a      	ldr	r2, [r3, #0]
 8001672:	e7ec      	b.n	800164e <_ZN4GpioILh2ELh6ELh1EE8set_modeEh+0x2e>
 8001674:	2902      	cmp	r1, #2
 8001676:	d113      	bne.n	80016a0 <_ZN4GpioILh2ELh6ELh1EE8set_modeEh+0x80>
 8001678:	6803      	ldr	r3, [r0, #0]
 800167a:	689a      	ldr	r2, [r3, #8]
 800167c:	f422 5240 	bic.w	r2, r2, #12288	; 0x3000
 8001680:	609a      	str	r2, [r3, #8]
 8001682:	689a      	ldr	r2, [r3, #8]
 8001684:	f442 5240 	orr.w	r2, r2, #12288	; 0x3000
 8001688:	609a      	str	r2, [r3, #8]
 800168a:	681a      	ldr	r2, [r3, #0]
 800168c:	f422 5240 	bic.w	r2, r2, #12288	; 0x3000
 8001690:	601a      	str	r2, [r3, #0]
 8001692:	681a      	ldr	r2, [r3, #0]
 8001694:	601a      	str	r2, [r3, #0]
 8001696:	68da      	ldr	r2, [r3, #12]
 8001698:	f442 5280 	orr.w	r2, r2, #4096	; 0x1000
 800169c:	60da      	str	r2, [r3, #12]
 800169e:	4770      	bx	lr
 80016a0:	2905      	cmp	r1, #5
 80016a2:	d110      	bne.n	80016c6 <_ZN4GpioILh2ELh6ELh1EE8set_modeEh+0xa6>
 80016a4:	6803      	ldr	r3, [r0, #0]
 80016a6:	689a      	ldr	r2, [r3, #8]
 80016a8:	f422 5240 	bic.w	r2, r2, #12288	; 0x3000
 80016ac:	609a      	str	r2, [r3, #8]
 80016ae:	689a      	ldr	r2, [r3, #8]
 80016b0:	f442 5240 	orr.w	r2, r2, #12288	; 0x3000
 80016b4:	609a      	str	r2, [r3, #8]
 80016b6:	681a      	ldr	r2, [r3, #0]
 80016b8:	f422 5240 	bic.w	r2, r2, #12288	; 0x3000
 80016bc:	601a      	str	r2, [r3, #0]
 80016be:	681a      	ldr	r2, [r3, #0]
 80016c0:	f442 5200 	orr.w	r2, r2, #8192	; 0x2000
 80016c4:	e7c3      	b.n	800164e <_ZN4GpioILh2ELh6ELh1EE8set_modeEh+0x2e>
 80016c6:	2904      	cmp	r1, #4
 80016c8:	d1c2      	bne.n	8001650 <_ZN4GpioILh2ELh6ELh1EE8set_modeEh+0x30>
 80016ca:	6803      	ldr	r3, [r0, #0]
 80016cc:	681a      	ldr	r2, [r3, #0]
 80016ce:	f422 5240 	bic.w	r2, r2, #12288	; 0x3000
 80016d2:	601a      	str	r2, [r3, #0]
 80016d4:	681a      	ldr	r2, [r3, #0]
 80016d6:	f442 5240 	orr.w	r2, r2, #12288	; 0x3000
 80016da:	e7b8      	b.n	800164e <_ZN4GpioILh2ELh6ELh1EE8set_modeEh+0x2e>

080016dc <_ZN4TI2CILh2ELh7ELh6ELh200ELh2EE4stopEv>:
 80016dc:	b570      	push	{r4, r5, r6, lr}
 80016de:	4604      	mov	r4, r0
 80016e0:	f100 060c 	add.w	r6, r0, #12
 80016e4:	f104 0508 	add.w	r5, r4, #8
 80016e8:	4630      	mov	r0, r6
 80016ea:	2100      	movs	r1, #0
 80016ec:	f7ff ff98 	bl	8001620 <_ZN4GpioILh2ELh6ELh1EE8set_modeEh>
 80016f0:	4628      	mov	r0, r5
 80016f2:	2100      	movs	r1, #0
 80016f4:	f7ff ff24 	bl	8001540 <_ZN4GpioILh2ELh7ELh1EE8set_modeEh>
 80016f8:	4630      	mov	r0, r6
 80016fa:	2101      	movs	r1, #1
 80016fc:	f7ff ff90 	bl	8001620 <_ZN4GpioILh2ELh6ELh1EE8set_modeEh>
 8001700:	4628      	mov	r0, r5
 8001702:	2100      	movs	r1, #0
 8001704:	f7ff ff1c 	bl	8001540 <_ZN4GpioILh2ELh7ELh1EE8set_modeEh>
 8001708:	4630      	mov	r0, r6
 800170a:	2101      	movs	r1, #1
 800170c:	f7ff ff88 	bl	8001620 <_ZN4GpioILh2ELh6ELh1EE8set_modeEh>
 8001710:	4628      	mov	r0, r5
 8001712:	2101      	movs	r1, #1
 8001714:	f7ff ff14 	bl	8001540 <_ZN4GpioILh2ELh7ELh1EE8set_modeEh>
 8001718:	4620      	mov	r0, r4
 800171a:	e8bd 4070 	ldmia.w	sp!, {r4, r5, r6, lr}
 800171e:	f000 bcae 	b.w	800207e <_ZN13I2C_Interface5delayEv>

08001722 <_ZN4TI2CILh2ELh7ELh6ELh200ELh2EE5startEv>:
 8001722:	b570      	push	{r4, r5, r6, lr}
 8001724:	4604      	mov	r4, r0
 8001726:	f100 060c 	add.w	r6, r0, #12
 800172a:	f104 0508 	add.w	r5, r4, #8
 800172e:	4630      	mov	r0, r6
 8001730:	2101      	movs	r1, #1
 8001732:	f7ff ff75 	bl	8001620 <_ZN4GpioILh2ELh6ELh1EE8set_modeEh>
 8001736:	4628      	mov	r0, r5
 8001738:	2101      	movs	r1, #1
 800173a:	f7ff ff01 	bl	8001540 <_ZN4GpioILh2ELh7ELh1EE8set_modeEh>
 800173e:	4630      	mov	r0, r6
 8001740:	2101      	movs	r1, #1
 8001742:	f7ff ff6d 	bl	8001620 <_ZN4GpioILh2ELh6ELh1EE8set_modeEh>
 8001746:	4628      	mov	r0, r5
 8001748:	2100      	movs	r1, #0
 800174a:	f7ff fef9 	bl	8001540 <_ZN4GpioILh2ELh7ELh1EE8set_modeEh>
 800174e:	4630      	mov	r0, r6
 8001750:	2100      	movs	r1, #0
 8001752:	f7ff ff65 	bl	8001620 <_ZN4GpioILh2ELh6ELh1EE8set_modeEh>
 8001756:	4628      	mov	r0, r5
 8001758:	2101      	movs	r1, #1
 800175a:	f7ff fef1 	bl	8001540 <_ZN4GpioILh2ELh7ELh1EE8set_modeEh>
 800175e:	4620      	mov	r0, r4
 8001760:	e8bd 4070 	ldmia.w	sp!, {r4, r5, r6, lr}
 8001764:	f000 bc8b 	b.w	800207e <_ZN13I2C_Interface5delayEv>

08001768 <_ZN4GpioILh2ELh6ELh1EE4initEv>:
 8001768:	4a06      	ldr	r2, [pc, #24]	; (8001784 <_ZN4GpioILh2ELh6ELh1EE4initEv+0x1c>)
 800176a:	b508      	push	{r3, lr}
 800176c:	6b13      	ldr	r3, [r2, #48]	; 0x30
 800176e:	ea6f 2353 	mvn.w	r3, r3, lsr #9
 8001772:	ea6f 2343 	mvn.w	r3, r3, lsl #9
 8001776:	6313      	str	r3, [r2, #48]	; 0x30
 8001778:	4b03      	ldr	r3, [pc, #12]	; (8001788 <_ZN4GpioILh2ELh6ELh1EE4initEv+0x20>)
 800177a:	6003      	str	r3, [r0, #0]
 800177c:	2101      	movs	r1, #1
 800177e:	f7ff ff4f 	bl	8001620 <_ZN4GpioILh2ELh6ELh1EE8set_modeEh>
 8001782:	bd08      	pop	{r3, pc}
 8001784:	40023800 	andmi	r3, r2, r0, lsl #16
 8001788:	40020800 	andmi	r0, r2, r0, lsl #16

0800178c <_ZN4TI2CILh2ELh7ELh6ELh200ELh2EE4initEv>:
 800178c:	23c8      	movs	r3, #200	; 0xc8
 800178e:	b510      	push	{r4, lr}
 8001790:	6043      	str	r3, [r0, #4]
 8001792:	4604      	mov	r4, r0
 8001794:	3008      	adds	r0, #8
 8001796:	f7ff ff31 	bl	80015fc <_ZN4GpioILh2ELh7ELh1EE4initEv>
 800179a:	f104 000c 	add.w	r0, r4, #12
 800179e:	f7ff ffe3 	bl	8001768 <_ZN4GpioILh2ELh6ELh1EE4initEv>
 80017a2:	68a2      	ldr	r2, [r4, #8]
 80017a4:	6953      	ldr	r3, [r2, #20]
 80017a6:	f023 0380 	bic.w	r3, r3, #128	; 0x80
 80017aa:	6153      	str	r3, [r2, #20]
 80017ac:	68e2      	ldr	r2, [r4, #12]
 80017ae:	6953      	ldr	r3, [r2, #20]
 80017b0:	f023 0340 	bic.w	r3, r3, #64	; 0x40
 80017b4:	6153      	str	r3, [r2, #20]
 80017b6:	bd10      	pop	{r4, pc}

080017b8 <_ZN4TI2CILh2ELh7ELh6ELh200ELh2EE4readEh>:
 80017b8:	e92d 43f8 	stmdb	sp!, {r3, r4, r5, r6, r7, r8, r9, lr}
 80017bc:	4604      	mov	r4, r0
 80017be:	f100 0808 	add.w	r8, r0, #8
 80017c2:	4640      	mov	r0, r8
 80017c4:	4689      	mov	r9, r1
 80017c6:	f104 070c 	add.w	r7, r4, #12
 80017ca:	2101      	movs	r1, #1
 80017cc:	f7ff feb8 	bl	8001540 <_ZN4GpioILh2ELh7ELh1EE8set_modeEh>
 80017d0:	2100      	movs	r1, #0
 80017d2:	4638      	mov	r0, r7
 80017d4:	f7ff ff24 	bl	8001620 <_ZN4GpioILh2ELh6ELh1EE8set_modeEh>
 80017d8:	4620      	mov	r0, r4
 80017da:	f000 fc50 	bl	800207e <_ZN13I2C_Interface5delayEv>
 80017de:	2608      	movs	r6, #8
 80017e0:	2500      	movs	r5, #0
 80017e2:	2101      	movs	r1, #1
 80017e4:	4638      	mov	r0, r7
 80017e6:	f7ff ff1b 	bl	8001620 <_ZN4GpioILh2ELh6ELh1EE8set_modeEh>
 80017ea:	4620      	mov	r0, r4
 80017ec:	f000 fc47 	bl	800207e <_ZN13I2C_Interface5delayEv>
 80017f0:	68a3      	ldr	r3, [r4, #8]
 80017f2:	691b      	ldr	r3, [r3, #16]
 80017f4:	006d      	lsls	r5, r5, #1
 80017f6:	061b      	lsls	r3, r3, #24
 80017f8:	f04f 0100 	mov.w	r1, #0
 80017fc:	4638      	mov	r0, r7
 80017fe:	b2ed      	uxtb	r5, r5
 8001800:	bf48      	it	mi
 8001802:	f045 0501 	orrmi.w	r5, r5, #1
 8001806:	3e01      	subs	r6, #1
 8001808:	f7ff ff0a 	bl	8001620 <_ZN4GpioILh2ELh6ELh1EE8set_modeEh>
 800180c:	4620      	mov	r0, r4
 800180e:	f000 fc36 	bl	800207e <_ZN13I2C_Interface5delayEv>
 8001812:	f016 06ff 	ands.w	r6, r6, #255	; 0xff
 8001816:	d1e4      	bne.n	80017e2 <_ZN4TI2CILh2ELh7ELh6ELh200ELh2EE4readEh+0x2a>
 8001818:	f1b9 0f00 	cmp.w	r9, #0
 800181c:	d01e      	beq.n	800185c <_ZN4TI2CILh2ELh7ELh6ELh200ELh2EE4readEh+0xa4>
 800181e:	4631      	mov	r1, r6
 8001820:	4640      	mov	r0, r8
 8001822:	f7ff fe8d 	bl	8001540 <_ZN4GpioILh2ELh7ELh1EE8set_modeEh>
 8001826:	4620      	mov	r0, r4
 8001828:	f000 fc29 	bl	800207e <_ZN13I2C_Interface5delayEv>
 800182c:	2101      	movs	r1, #1
 800182e:	4638      	mov	r0, r7
 8001830:	f7ff fef6 	bl	8001620 <_ZN4GpioILh2ELh6ELh1EE8set_modeEh>
 8001834:	4620      	mov	r0, r4
 8001836:	f000 fc22 	bl	800207e <_ZN13I2C_Interface5delayEv>
 800183a:	2100      	movs	r1, #0
 800183c:	4638      	mov	r0, r7
 800183e:	f7ff feef 	bl	8001620 <_ZN4GpioILh2ELh6ELh1EE8set_modeEh>
 8001842:	4620      	mov	r0, r4
 8001844:	f000 fc1b 	bl	800207e <_ZN13I2C_Interface5delayEv>
 8001848:	2101      	movs	r1, #1
 800184a:	4640      	mov	r0, r8
 800184c:	f7ff fe78 	bl	8001540 <_ZN4GpioILh2ELh7ELh1EE8set_modeEh>
 8001850:	4620      	mov	r0, r4
 8001852:	f000 fc14 	bl	800207e <_ZN13I2C_Interface5delayEv>
 8001856:	4628      	mov	r0, r5
 8001858:	e8bd 83f8 	ldmia.w	sp!, {r3, r4, r5, r6, r7, r8, r9, pc}
 800185c:	2101      	movs	r1, #1
 800185e:	e7df      	b.n	8001820 <_ZN4TI2CILh2ELh7ELh6ELh200ELh2EE4readEh+0x68>

08001860 <_ZN4TI2CILh2ELh7ELh6ELh200ELh2EE5writeEh>:
 8001860:	e92d 41f0 	stmdb	sp!, {r4, r5, r6, r7, r8, lr}
 8001864:	2508      	movs	r5, #8
 8001866:	4604      	mov	r4, r0
 8001868:	460f      	mov	r7, r1
 800186a:	eb00 0805 	add.w	r8, r0, r5
 800186e:	f104 060c 	add.w	r6, r4, #12
 8001872:	2100      	movs	r1, #0
 8001874:	4630      	mov	r0, r6
 8001876:	f7ff fed3 	bl	8001620 <_ZN4GpioILh2ELh6ELh1EE8set_modeEh>
 800187a:	4620      	mov	r0, r4
 800187c:	f000 fbff 	bl	800207e <_ZN13I2C_Interface5delayEv>
 8001880:	063b      	lsls	r3, r7, #24
 8001882:	bf4c      	ite	mi
 8001884:	2101      	movmi	r1, #1
 8001886:	2100      	movpl	r1, #0
 8001888:	4640      	mov	r0, r8
 800188a:	f7ff fe59 	bl	8001540 <_ZN4GpioILh2ELh7ELh1EE8set_modeEh>
 800188e:	4620      	mov	r0, r4
 8001890:	f000 fbf5 	bl	800207e <_ZN13I2C_Interface5delayEv>
 8001894:	2101      	movs	r1, #1
 8001896:	4630      	mov	r0, r6
 8001898:	f7ff fec2 	bl	8001620 <_ZN4GpioILh2ELh6ELh1EE8set_modeEh>
 800189c:	3d01      	subs	r5, #1
 800189e:	4620      	mov	r0, r4
 80018a0:	f000 fbed 	bl	800207e <_ZN13I2C_Interface5delayEv>
 80018a4:	007f      	lsls	r7, r7, #1
 80018a6:	f015 05ff 	ands.w	r5, r5, #255	; 0xff
 80018aa:	b2ff      	uxtb	r7, r7
 80018ac:	d1df      	bne.n	800186e <_ZN4TI2CILh2ELh7ELh6ELh200ELh2EE5writeEh+0xe>
 80018ae:	4629      	mov	r1, r5
 80018b0:	4630      	mov	r0, r6
 80018b2:	f7ff feb5 	bl	8001620 <_ZN4GpioILh2ELh6ELh1EE8set_modeEh>
 80018b6:	4620      	mov	r0, r4
 80018b8:	f000 fbe1 	bl	800207e <_ZN13I2C_Interface5delayEv>
 80018bc:	2101      	movs	r1, #1
 80018be:	4640      	mov	r0, r8
 80018c0:	f7ff fe3e 	bl	8001540 <_ZN4GpioILh2ELh7ELh1EE8set_modeEh>
 80018c4:	4620      	mov	r0, r4
 80018c6:	f000 fbda 	bl	800207e <_ZN13I2C_Interface5delayEv>
 80018ca:	2101      	movs	r1, #1
 80018cc:	4630      	mov	r0, r6
 80018ce:	f7ff fea7 	bl	8001620 <_ZN4GpioILh2ELh6ELh1EE8set_modeEh>
 80018d2:	4620      	mov	r0, r4
 80018d4:	f000 fbd3 	bl	800207e <_ZN13I2C_Interface5delayEv>
 80018d8:	68a3      	ldr	r3, [r4, #8]
 80018da:	4629      	mov	r1, r5
 80018dc:	691f      	ldr	r7, [r3, #16]
 80018de:	4630      	mov	r0, r6
 80018e0:	f7ff fe9e 	bl	8001620 <_ZN4GpioILh2ELh6ELh1EE8set_modeEh>
 80018e4:	4620      	mov	r0, r4
 80018e6:	f000 fbca 	bl	800207e <_ZN13I2C_Interface5delayEv>
 80018ea:	f087 0080 	eor.w	r0, r7, #128	; 0x80
 80018ee:	f3c0 10c0 	ubfx	r0, r0, #7, #1
 80018f2:	e8bd 81f0 	ldmia.w	sp!, {r4, r5, r6, r7, r8, pc}

080018f6 <_ZN4GpioILh1ELh5ELh1EE8set_modeEh>:
 80018f6:	b9b9      	cbnz	r1, 8001928 <_ZN4GpioILh1ELh5ELh1EE8set_modeEh+0x32>
 80018f8:	6803      	ldr	r3, [r0, #0]
 80018fa:	689a      	ldr	r2, [r3, #8]
 80018fc:	f422 6240 	bic.w	r2, r2, #3072	; 0xc00
 8001900:	609a      	str	r2, [r3, #8]
 8001902:	689a      	ldr	r2, [r3, #8]
 8001904:	f442 6240 	orr.w	r2, r2, #3072	; 0xc00
 8001908:	609a      	str	r2, [r3, #8]
 800190a:	685a      	ldr	r2, [r3, #4]
 800190c:	f022 0220 	bic.w	r2, r2, #32
 8001910:	605a      	str	r2, [r3, #4]
 8001912:	685a      	ldr	r2, [r3, #4]
 8001914:	605a      	str	r2, [r3, #4]
 8001916:	681a      	ldr	r2, [r3, #0]
 8001918:	f422 6240 	bic.w	r2, r2, #3072	; 0xc00
 800191c:	601a      	str	r2, [r3, #0]
 800191e:	681a      	ldr	r2, [r3, #0]
 8001920:	f442 6280 	orr.w	r2, r2, #1024	; 0x400
 8001924:	601a      	str	r2, [r3, #0]
 8001926:	4770      	bx	lr
 8001928:	2901      	cmp	r1, #1
 800192a:	d10e      	bne.n	800194a <_ZN4GpioILh1ELh5ELh1EE8set_modeEh+0x54>
 800192c:	6803      	ldr	r3, [r0, #0]
 800192e:	689a      	ldr	r2, [r3, #8]
 8001930:	f422 6240 	bic.w	r2, r2, #3072	; 0xc00
 8001934:	609a      	str	r2, [r3, #8]
 8001936:	689a      	ldr	r2, [r3, #8]
 8001938:	f442 6240 	orr.w	r2, r2, #3072	; 0xc00
 800193c:	609a      	str	r2, [r3, #8]
 800193e:	681a      	ldr	r2, [r3, #0]
 8001940:	f422 6240 	bic.w	r2, r2, #3072	; 0xc00
 8001944:	601a      	str	r2, [r3, #0]
 8001946:	681a      	ldr	r2, [r3, #0]
 8001948:	e7ec      	b.n	8001924 <_ZN4GpioILh1ELh5ELh1EE8set_modeEh+0x2e>
 800194a:	2902      	cmp	r1, #2
 800194c:	d113      	bne.n	8001976 <_ZN4GpioILh1ELh5ELh1EE8set_modeEh+0x80>
 800194e:	6803      	ldr	r3, [r0, #0]
 8001950:	689a      	ldr	r2, [r3, #8]
 8001952:	f422 6240 	bic.w	r2, r2, #3072	; 0xc00
 8001956:	609a      	str	r2, [r3, #8]
 8001958:	689a      	ldr	r2, [r3, #8]
 800195a:	f442 6240 	orr.w	r2, r2, #3072	; 0xc00
 800195e:	609a      	str	r2, [r3, #8]
 8001960:	681a      	ldr	r2, [r3, #0]
 8001962:	f422 6240 	bic.w	r2, r2, #3072	; 0xc00
 8001966:	601a      	str	r2, [r3, #0]
 8001968:	681a      	ldr	r2, [r3, #0]
 800196a:	601a      	str	r2, [r3, #0]
 800196c:	68da      	ldr	r2, [r3, #12]
 800196e:	f442 6280 	orr.w	r2, r2, #1024	; 0x400
 8001972:	60da      	str	r2, [r3, #12]
 8001974:	4770      	bx	lr
 8001976:	2905      	cmp	r1, #5
 8001978:	d110      	bne.n	800199c <_ZN4GpioILh1ELh5ELh1EE8set_modeEh+0xa6>
 800197a:	6803      	ldr	r3, [r0, #0]
 800197c:	689a      	ldr	r2, [r3, #8]
 800197e:	f422 6240 	bic.w	r2, r2, #3072	; 0xc00
 8001982:	609a      	str	r2, [r3, #8]
 8001984:	689a      	ldr	r2, [r3, #8]
 8001986:	f442 6240 	orr.w	r2, r2, #3072	; 0xc00
 800198a:	609a      	str	r2, [r3, #8]
 800198c:	681a      	ldr	r2, [r3, #0]
 800198e:	f422 6240 	bic.w	r2, r2, #3072	; 0xc00
 8001992:	601a      	str	r2, [r3, #0]
 8001994:	681a      	ldr	r2, [r3, #0]
 8001996:	f442 6200 	orr.w	r2, r2, #2048	; 0x800
 800199a:	e7c3      	b.n	8001924 <_ZN4GpioILh1ELh5ELh1EE8set_modeEh+0x2e>
 800199c:	2904      	cmp	r1, #4
 800199e:	d1c2      	bne.n	8001926 <_ZN4GpioILh1ELh5ELh1EE8set_modeEh+0x30>
 80019a0:	6803      	ldr	r3, [r0, #0]
 80019a2:	681a      	ldr	r2, [r3, #0]
 80019a4:	f422 6240 	bic.w	r2, r2, #3072	; 0xc00
 80019a8:	601a      	str	r2, [r3, #0]
 80019aa:	681a      	ldr	r2, [r3, #0]
 80019ac:	f442 6240 	orr.w	r2, r2, #3072	; 0xc00
 80019b0:	e7b8      	b.n	8001924 <_ZN4GpioILh1ELh5ELh1EE8set_modeEh+0x2e>
 80019b2:	0000      	movs	r0, r0

080019b4 <_ZN4GpioILh1ELh5ELh1EE4initEv>:
 80019b4:	4a06      	ldr	r2, [pc, #24]	; (80019d0 <_ZN4GpioILh1ELh5ELh1EE4initEv+0x1c>)
 80019b6:	b508      	push	{r3, lr}
 80019b8:	6b13      	ldr	r3, [r2, #48]	; 0x30
 80019ba:	ea6f 2353 	mvn.w	r3, r3, lsr #9
 80019be:	ea6f 2343 	mvn.w	r3, r3, lsl #9
 80019c2:	6313      	str	r3, [r2, #48]	; 0x30
 80019c4:	4b03      	ldr	r3, [pc, #12]	; (80019d4 <_ZN4GpioILh1ELh5ELh1EE4initEv+0x20>)
 80019c6:	6003      	str	r3, [r0, #0]
 80019c8:	2101      	movs	r1, #1
 80019ca:	f7ff ff94 	bl	80018f6 <_ZN4GpioILh1ELh5ELh1EE8set_modeEh>
 80019ce:	bd08      	pop	{r3, pc}
 80019d0:	40023800 	andmi	r3, r2, r0, lsl #16
 80019d4:	40020400 	andmi	r0, r2, r0, lsl #8

080019d8 <_ZN4GpioILh1ELh4ELh1EE8set_modeEh>:
 80019d8:	b9b9      	cbnz	r1, 8001a0a <_ZN4GpioILh1ELh4ELh1EE8set_modeEh+0x32>
 80019da:	6803      	ldr	r3, [r0, #0]
 80019dc:	689a      	ldr	r2, [r3, #8]
 80019de:	f422 7240 	bic.w	r2, r2, #768	; 0x300
 80019e2:	609a      	str	r2, [r3, #8]
 80019e4:	689a      	ldr	r2, [r3, #8]
 80019e6:	f442 7240 	orr.w	r2, r2, #768	; 0x300
 80019ea:	609a      	str	r2, [r3, #8]
 80019ec:	685a      	ldr	r2, [r3, #4]
 80019ee:	f022 0210 	bic.w	r2, r2, #16
 80019f2:	605a      	str	r2, [r3, #4]
 80019f4:	685a      	ldr	r2, [r3, #4]
 80019f6:	605a      	str	r2, [r3, #4]
 80019f8:	681a      	ldr	r2, [r3, #0]
 80019fa:	f422 7240 	bic.w	r2, r2, #768	; 0x300
 80019fe:	601a      	str	r2, [r3, #0]
 8001a00:	681a      	ldr	r2, [r3, #0]
 8001a02:	f442 7280 	orr.w	r2, r2, #256	; 0x100
 8001a06:	601a      	str	r2, [r3, #0]
 8001a08:	4770      	bx	lr
 8001a0a:	2901      	cmp	r1, #1
 8001a0c:	d10e      	bne.n	8001a2c <_ZN4GpioILh1ELh4ELh1EE8set_modeEh+0x54>
 8001a0e:	6803      	ldr	r3, [r0, #0]
 8001a10:	689a      	ldr	r2, [r3, #8]
 8001a12:	f422 7240 	bic.w	r2, r2, #768	; 0x300
 8001a16:	609a      	str	r2, [r3, #8]
 8001a18:	689a      	ldr	r2, [r3, #8]
 8001a1a:	f442 7240 	orr.w	r2, r2, #768	; 0x300
 8001a1e:	609a      	str	r2, [r3, #8]
 8001a20:	681a      	ldr	r2, [r3, #0]
 8001a22:	f422 7240 	bic.w	r2, r2, #768	; 0x300
 8001a26:	601a      	str	r2, [r3, #0]
 8001a28:	681a      	ldr	r2, [r3, #0]
 8001a2a:	e7ec      	b.n	8001a06 <_ZN4GpioILh1ELh4ELh1EE8set_modeEh+0x2e>
 8001a2c:	2902      	cmp	r1, #2
 8001a2e:	d113      	bne.n	8001a58 <_ZN4GpioILh1ELh4ELh1EE8set_modeEh+0x80>
 8001a30:	6803      	ldr	r3, [r0, #0]
 8001a32:	689a      	ldr	r2, [r3, #8]
 8001a34:	f422 7240 	bic.w	r2, r2, #768	; 0x300
 8001a38:	609a      	str	r2, [r3, #8]
 8001a3a:	689a      	ldr	r2, [r3, #8]
 8001a3c:	f442 7240 	orr.w	r2, r2, #768	; 0x300
 8001a40:	609a      	str	r2, [r3, #8]
 8001a42:	681a      	ldr	r2, [r3, #0]
 8001a44:	f422 7240 	bic.w	r2, r2, #768	; 0x300
 8001a48:	601a      	str	r2, [r3, #0]
 8001a4a:	681a      	ldr	r2, [r3, #0]
 8001a4c:	601a      	str	r2, [r3, #0]
 8001a4e:	68da      	ldr	r2, [r3, #12]
 8001a50:	f442 7280 	orr.w	r2, r2, #256	; 0x100
 8001a54:	60da      	str	r2, [r3, #12]
 8001a56:	4770      	bx	lr
 8001a58:	2905      	cmp	r1, #5
 8001a5a:	d110      	bne.n	8001a7e <_ZN4GpioILh1ELh4ELh1EE8set_modeEh+0xa6>
 8001a5c:	6803      	ldr	r3, [r0, #0]
 8001a5e:	689a      	ldr	r2, [r3, #8]
 8001a60:	f422 7240 	bic.w	r2, r2, #768	; 0x300
 8001a64:	609a      	str	r2, [r3, #8]
 8001a66:	689a      	ldr	r2, [r3, #8]
 8001a68:	f442 7240 	orr.w	r2, r2, #768	; 0x300
 8001a6c:	609a      	str	r2, [r3, #8]
 8001a6e:	681a      	ldr	r2, [r3, #0]
 8001a70:	f422 7240 	bic.w	r2, r2, #768	; 0x300
 8001a74:	601a      	str	r2, [r3, #0]
 8001a76:	681a      	ldr	r2, [r3, #0]
 8001a78:	f442 7200 	orr.w	r2, r2, #512	; 0x200
 8001a7c:	e7c3      	b.n	8001a06 <_ZN4GpioILh1ELh4ELh1EE8set_modeEh+0x2e>
 8001a7e:	2904      	cmp	r1, #4
 8001a80:	d1c2      	bne.n	8001a08 <_ZN4GpioILh1ELh4ELh1EE8set_modeEh+0x30>
 8001a82:	6803      	ldr	r3, [r0, #0]
 8001a84:	681a      	ldr	r2, [r3, #0]
 8001a86:	f422 7240 	bic.w	r2, r2, #768	; 0x300
 8001a8a:	601a      	str	r2, [r3, #0]
 8001a8c:	681a      	ldr	r2, [r3, #0]
 8001a8e:	f442 7240 	orr.w	r2, r2, #768	; 0x300
 8001a92:	e7b8      	b.n	8001a06 <_ZN4GpioILh1ELh4ELh1EE8set_modeEh+0x2e>

08001a94 <_ZN4TI2CILh1ELh5ELh4ELh200ELh1EE4stopEv>:
 8001a94:	b570      	push	{r4, r5, r6, lr}
 8001a96:	4604      	mov	r4, r0
 8001a98:	f100 060c 	add.w	r6, r0, #12
 8001a9c:	f104 0508 	add.w	r5, r4, #8
 8001aa0:	4630      	mov	r0, r6
 8001aa2:	2100      	movs	r1, #0
 8001aa4:	f7ff ff98 	bl	80019d8 <_ZN4GpioILh1ELh4ELh1EE8set_modeEh>
 8001aa8:	4628      	mov	r0, r5
 8001aaa:	2100      	movs	r1, #0
 8001aac:	f7ff ff23 	bl	80018f6 <_ZN4GpioILh1ELh5ELh1EE8set_modeEh>
 8001ab0:	4630      	mov	r0, r6
 8001ab2:	2101      	movs	r1, #1
 8001ab4:	f7ff ff90 	bl	80019d8 <_ZN4GpioILh1ELh4ELh1EE8set_modeEh>
 8001ab8:	4628      	mov	r0, r5
 8001aba:	2100      	movs	r1, #0
 8001abc:	f7ff ff1b 	bl	80018f6 <_ZN4GpioILh1ELh5ELh1EE8set_modeEh>
 8001ac0:	4630      	mov	r0, r6
 8001ac2:	2101      	movs	r1, #1
 8001ac4:	f7ff ff88 	bl	80019d8 <_ZN4GpioILh1ELh4ELh1EE8set_modeEh>
 8001ac8:	4628      	mov	r0, r5
 8001aca:	2101      	movs	r1, #1
 8001acc:	f7ff ff13 	bl	80018f6 <_ZN4GpioILh1ELh5ELh1EE8set_modeEh>
 8001ad0:	4620      	mov	r0, r4
 8001ad2:	e8bd 4070 	ldmia.w	sp!, {r4, r5, r6, lr}
 8001ad6:	f000 bad2 	b.w	800207e <_ZN13I2C_Interface5delayEv>

08001ada <_ZN4TI2CILh1ELh5ELh4ELh200ELh1EE5startEv>:
 8001ada:	b570      	push	{r4, r5, r6, lr}
 8001adc:	4604      	mov	r4, r0
 8001ade:	f100 060c 	add.w	r6, r0, #12
 8001ae2:	f104 0508 	add.w	r5, r4, #8
 8001ae6:	4630      	mov	r0, r6
 8001ae8:	2101      	movs	r1, #1
 8001aea:	f7ff ff75 	bl	80019d8 <_ZN4GpioILh1ELh4ELh1EE8set_modeEh>
 8001aee:	4628      	mov	r0, r5
 8001af0:	2101      	movs	r1, #1
 8001af2:	f7ff ff00 	bl	80018f6 <_ZN4GpioILh1ELh5ELh1EE8set_modeEh>
 8001af6:	4630      	mov	r0, r6
 8001af8:	2101      	movs	r1, #1
 8001afa:	f7ff ff6d 	bl	80019d8 <_ZN4GpioILh1ELh4ELh1EE8set_modeEh>
 8001afe:	4628      	mov	r0, r5
 8001b00:	2100      	movs	r1, #0
 8001b02:	f7ff fef8 	bl	80018f6 <_ZN4GpioILh1ELh5ELh1EE8set_modeEh>
 8001b06:	4630      	mov	r0, r6
 8001b08:	2100      	movs	r1, #0
 8001b0a:	f7ff ff65 	bl	80019d8 <_ZN4GpioILh1ELh4ELh1EE8set_modeEh>
 8001b0e:	4628      	mov	r0, r5
 8001b10:	2101      	movs	r1, #1
 8001b12:	f7ff fef0 	bl	80018f6 <_ZN4GpioILh1ELh5ELh1EE8set_modeEh>
 8001b16:	4620      	mov	r0, r4
 8001b18:	e8bd 4070 	ldmia.w	sp!, {r4, r5, r6, lr}
 8001b1c:	f000 baaf 	b.w	800207e <_ZN13I2C_Interface5delayEv>

08001b20 <_ZN4GpioILh1ELh4ELh1EE4initEv>:
 8001b20:	4a06      	ldr	r2, [pc, #24]	; (8001b3c <_ZN4GpioILh1ELh4ELh1EE4initEv+0x1c>)
 8001b22:	b508      	push	{r3, lr}
 8001b24:	6b13      	ldr	r3, [r2, #48]	; 0x30
 8001b26:	ea6f 2353 	mvn.w	r3, r3, lsr #9
 8001b2a:	ea6f 2343 	mvn.w	r3, r3, lsl #9
 8001b2e:	6313      	str	r3, [r2, #48]	; 0x30
 8001b30:	4b03      	ldr	r3, [pc, #12]	; (8001b40 <_ZN4GpioILh1ELh4ELh1EE4initEv+0x20>)
 8001b32:	6003      	str	r3, [r0, #0]
 8001b34:	2101      	movs	r1, #1
 8001b36:	f7ff ff4f 	bl	80019d8 <_ZN4GpioILh1ELh4ELh1EE8set_modeEh>
 8001b3a:	bd08      	pop	{r3, pc}
 8001b3c:	40023800 	andmi	r3, r2, r0, lsl #16
 8001b40:	40020400 	andmi	r0, r2, r0, lsl #8

08001b44 <_ZN4TI2CILh1ELh5ELh4ELh200ELh1EE4initEv>:
 8001b44:	23c8      	movs	r3, #200	; 0xc8
 8001b46:	b510      	push	{r4, lr}
 8001b48:	6043      	str	r3, [r0, #4]
 8001b4a:	4604      	mov	r4, r0
 8001b4c:	3008      	adds	r0, #8
 8001b4e:	f7ff ff31 	bl	80019b4 <_ZN4GpioILh1ELh5ELh1EE4initEv>
 8001b52:	f104 000c 	add.w	r0, r4, #12
 8001b56:	f7ff ffe3 	bl	8001b20 <_ZN4GpioILh1ELh4ELh1EE4initEv>
 8001b5a:	68a2      	ldr	r2, [r4, #8]
 8001b5c:	6953      	ldr	r3, [r2, #20]
 8001b5e:	f023 0320 	bic.w	r3, r3, #32
 8001b62:	6153      	str	r3, [r2, #20]
 8001b64:	68e2      	ldr	r2, [r4, #12]
 8001b66:	6953      	ldr	r3, [r2, #20]
 8001b68:	f023 0310 	bic.w	r3, r3, #16
 8001b6c:	6153      	str	r3, [r2, #20]
 8001b6e:	bd10      	pop	{r4, pc}

08001b70 <main>:
 8001b70:	b500      	push	{lr}
 8001b72:	b099      	sub	sp, #100	; 0x64
 8001b74:	f000 f95b 	bl	8001e2e <_Z27core_SystemClock_Config_216v>
 8001b78:	482c      	ldr	r0, [pc, #176]	; (8001c2c <main+0xbc>)
 8001b7a:	4e2d      	ldr	r6, [pc, #180]	; (8001c30 <main+0xc0>)
 8001b7c:	4d2d      	ldr	r5, [pc, #180]	; (8001c34 <main+0xc4>)
 8001b7e:	4c2e      	ldr	r4, [pc, #184]	; (8001c38 <main+0xc8>)
 8001b80:	f000 fe4a 	bl	8002818 <_ZN7Drivers4initEv>
 8001b84:	a809      	add	r0, sp, #36	; 0x24
 8001b86:	f7ff fc7d 	bl	8001484 <_ZN12BackLedLightC1Ev>
 8001b8a:	f44f 7148 	mov.w	r1, #800	; 0x320
 8001b8e:	482a      	ldr	r0, [pc, #168]	; (8001c38 <main+0xc8>)
 8001b90:	f001 fa7c 	bl	800308c <_ZN5Timer8delay_msEj>
 8001b94:	2105      	movs	r1, #5
 8001b96:	a809      	add	r0, sp, #36	; 0x24
 8001b98:	f7ff fc68 	bl	800146c <_ZN12BackLedLight8set_modeEj>
 8001b9c:	4827      	ldr	r0, [pc, #156]	; (8001c3c <main+0xcc>)
 8001b9e:	f001 fe09 	bl	80037b4 <_ZN3Key4readEv>
 8001ba2:	2104      	movs	r1, #4
 8001ba4:	a809      	add	r0, sp, #36	; 0x24
 8001ba6:	f7ff fc61 	bl	800146c <_ZN12BackLedLight8set_modeEj>
 8001baa:	4925      	ldr	r1, [pc, #148]	; (8001c40 <main+0xd0>)
 8001bac:	4821      	ldr	r0, [pc, #132]	; (8001c34 <main+0xc4>)
 8001bae:	f001 fc21 	bl	80033f4 <_ZN8Terminal4putsEPKc>
 8001bb2:	a801      	add	r0, sp, #4
 8001bb4:	f000 fa18 	bl	8001fe8 <_ZN13I2C_InterfaceC1Ev>
 8001bb8:	4b22      	ldr	r3, [pc, #136]	; (8001c44 <main+0xd4>)
 8001bba:	9301      	str	r3, [sp, #4]
 8001bbc:	a803      	add	r0, sp, #12
 8001bbe:	f7ff fd1d 	bl	80015fc <_ZN4GpioILh2ELh7ELh1EE4initEv>
 8001bc2:	a804      	add	r0, sp, #16
 8001bc4:	f7ff fdd0 	bl	8001768 <_ZN4GpioILh2ELh6ELh1EE4initEv>
 8001bc8:	a805      	add	r0, sp, #20
 8001bca:	f000 fa0d 	bl	8001fe8 <_ZN13I2C_InterfaceC1Ev>
 8001bce:	4b1e      	ldr	r3, [pc, #120]	; (8001c48 <main+0xd8>)
 8001bd0:	9305      	str	r3, [sp, #20]
 8001bd2:	a807      	add	r0, sp, #28
 8001bd4:	f7ff feee 	bl	80019b4 <_ZN4GpioILh1ELh5ELh1EE4initEv>
 8001bd8:	a808      	add	r0, sp, #32
 8001bda:	f7ff ffa1 	bl	8001b20 <_ZN4GpioILh1ELh4ELh1EE4initEv>
 8001bde:	a801      	add	r0, sp, #4
 8001be0:	f7ff fdd4 	bl	800178c <_ZN4TI2CILh2ELh7ELh6ELh200ELh2EE4initEv>
 8001be4:	a805      	add	r0, sp, #20
 8001be6:	f7ff ffad 	bl	8001b44 <_ZN4TI2CILh1ELh5ELh4ELh200ELh1EE4initEv>
 8001bea:	4918      	ldr	r1, [pc, #96]	; (8001c4c <main+0xdc>)
 8001bec:	4811      	ldr	r0, [pc, #68]	; (8001c34 <main+0xc4>)
 8001bee:	f001 fc01 	bl	80033f4 <_ZN8Terminal4putsEPKc>
 8001bf2:	a901      	add	r1, sp, #4
 8001bf4:	a80e      	add	r0, sp, #56	; 0x38
 8001bf6:	f000 f92b 	bl	8001e50 <_ZN7LSM303DC1ER13I2C_Interface>
 8001bfa:	a905      	add	r1, sp, #20
 8001bfc:	a813      	add	r0, sp, #76	; 0x4c
 8001bfe:	f000 f927 	bl	8001e50 <_ZN7LSM303DC1ER13I2C_Interface>
 8001c02:	4913      	ldr	r1, [pc, #76]	; (8001c50 <main+0xe0>)
 8001c04:	480b      	ldr	r0, [pc, #44]	; (8001c34 <main+0xc4>)
 8001c06:	f001 fbf5 	bl	80033f4 <_ZN8Terminal4putsEPKc>
 8001c0a:	a80e      	add	r0, sp, #56	; 0x38
 8001c0c:	f000 f94e 	bl	8001eac <_ZN7LSM303D4testEv>
 8001c10:	a813      	add	r0, sp, #76	; 0x4c
 8001c12:	f000 f94b 	bl	8001eac <_ZN7LSM303D4testEv>
 8001c16:	4631      	mov	r1, r6
 8001c18:	4628      	mov	r0, r5
 8001c1a:	f001 fbeb 	bl	80033f4 <_ZN8Terminal4putsEPKc>
 8001c1e:	f44f 71fa 	mov.w	r1, #500	; 0x1f4
 8001c22:	4620      	mov	r0, r4
 8001c24:	f001 fa32 	bl	800308c <_ZN5Timer8delay_msEj>
 8001c28:	e7ef      	b.n	8001c0a <main+0x9a>
 8001c2a:	bf00      	nop
 8001c2c:	20000050 	andcs	r0, r0, r0, asr r0
 8001c30:	08003dcd 	stmdaeq	r0, {r0, r2, r3, r6, r7, r8, sl, fp, ip, sp}
 8001c34:	20000268 	andcs	r0, r0, r8, ror #4
 8001c38:	2000026c 	andcs	r0, r0, ip, ror #4
 8001c3c:	200000b0 	strhcs	r0, [r0], -r0	; <UNPREDICTABLE>
 8001c40:	08003c98 	stmdaeq	r0, {r3, r4, r7, sl, fp, ip, sp}
 8001c44:	08003c58 	stmdaeq	r0, {r3, r4, r6, sl, fp, ip, sp}
 8001c48:	08003c7c 	stmdaeq	r0, {r2, r3, r4, r5, r6, sl, fp, ip, sp}
 8001c4c:	08003c9d 	stmdaeq	r0, {r0, r2, r3, r4, r7, sl, fp, ip, sp}
 8001c50:	08003cb4 	stmdaeq	r0, {r2, r4, r5, r7, sl, fp, ip, sp}

08001c54 <_ZN4TI2CILh1ELh5ELh4ELh200ELh1EE4readEh>:
 8001c54:	e92d 43f8 	stmdb	sp!, {r3, r4, r5, r6, r7, r8, r9, lr}
 8001c58:	4604      	mov	r4, r0
 8001c5a:	f100 0808 	add.w	r8, r0, #8
 8001c5e:	4640      	mov	r0, r8
 8001c60:	4689      	mov	r9, r1
 8001c62:	f104 070c 	add.w	r7, r4, #12
 8001c66:	2101      	movs	r1, #1
 8001c68:	f7ff fe45 	bl	80018f6 <_ZN4GpioILh1ELh5ELh1EE8set_modeEh>
 8001c6c:	2100      	movs	r1, #0
 8001c6e:	4638      	mov	r0, r7
 8001c70:	f7ff feb2 	bl	80019d8 <_ZN4GpioILh1ELh4ELh1EE8set_modeEh>
 8001c74:	4620      	mov	r0, r4
 8001c76:	f000 fa02 	bl	800207e <_ZN13I2C_Interface5delayEv>
 8001c7a:	2608      	movs	r6, #8
 8001c7c:	2500      	movs	r5, #0
 8001c7e:	2101      	movs	r1, #1
 8001c80:	4638      	mov	r0, r7
 8001c82:	f7ff fea9 	bl	80019d8 <_ZN4GpioILh1ELh4ELh1EE8set_modeEh>
 8001c86:	4620      	mov	r0, r4
 8001c88:	f000 f9f9 	bl	800207e <_ZN13I2C_Interface5delayEv>
 8001c8c:	68a3      	ldr	r3, [r4, #8]
 8001c8e:	691b      	ldr	r3, [r3, #16]
 8001c90:	006d      	lsls	r5, r5, #1
 8001c92:	069b      	lsls	r3, r3, #26
 8001c94:	f04f 0100 	mov.w	r1, #0
 8001c98:	4638      	mov	r0, r7
 8001c9a:	b2ed      	uxtb	r5, r5
 8001c9c:	bf48      	it	mi
 8001c9e:	f045 0501 	orrmi.w	r5, r5, #1
 8001ca2:	3e01      	subs	r6, #1
 8001ca4:	f7ff fe98 	bl	80019d8 <_ZN4GpioILh1ELh4ELh1EE8set_modeEh>
 8001ca8:	4620      	mov	r0, r4
 8001caa:	f000 f9e8 	bl	800207e <_ZN13I2C_Interface5delayEv>
 8001cae:	f016 06ff 	ands.w	r6, r6, #255	; 0xff
 8001cb2:	d1e4      	bne.n	8001c7e <_ZN4TI2CILh1ELh5ELh4ELh200ELh1EE4readEh+0x2a>
 8001cb4:	f1b9 0f00 	cmp.w	r9, #0
 8001cb8:	d01e      	beq.n	8001cf8 <_ZN4TI2CILh1ELh5ELh4ELh200ELh1EE4readEh+0xa4>
 8001cba:	4631      	mov	r1, r6
 8001cbc:	4640      	mov	r0, r8
 8001cbe:	f7ff fe1a 	bl	80018f6 <_ZN4GpioILh1ELh5ELh1EE8set_modeEh>
 8001cc2:	4620      	mov	r0, r4
 8001cc4:	f000 f9db 	bl	800207e <_ZN13I2C_Interface5delayEv>
 8001cc8:	2101      	movs	r1, #1
 8001cca:	4638      	mov	r0, r7
 8001ccc:	f7ff fe84 	bl	80019d8 <_ZN4GpioILh1ELh4ELh1EE8set_modeEh>
 8001cd0:	4620      	mov	r0, r4
 8001cd2:	f000 f9d4 	bl	800207e <_ZN13I2C_Interface5delayEv>
 8001cd6:	2100      	movs	r1, #0
 8001cd8:	4638      	mov	r0, r7
 8001cda:	f7ff fe7d 	bl	80019d8 <_ZN4GpioILh1ELh4ELh1EE8set_modeEh>
 8001cde:	4620      	mov	r0, r4
 8001ce0:	f000 f9cd 	bl	800207e <_ZN13I2C_Interface5delayEv>
 8001ce4:	2101      	movs	r1, #1
 8001ce6:	4640      	mov	r0, r8
 8001ce8:	f7ff fe05 	bl	80018f6 <_ZN4GpioILh1ELh5ELh1EE8set_modeEh>
 8001cec:	4620      	mov	r0, r4
 8001cee:	f000 f9c6 	bl	800207e <_ZN13I2C_Interface5delayEv>
 8001cf2:	4628      	mov	r0, r5
 8001cf4:	e8bd 83f8 	ldmia.w	sp!, {r3, r4, r5, r6, r7, r8, r9, pc}
 8001cf8:	2101      	movs	r1, #1
 8001cfa:	e7df      	b.n	8001cbc <_ZN4TI2CILh1ELh5ELh4ELh200ELh1EE4readEh+0x68>

08001cfc <_ZN4TI2CILh1ELh5ELh4ELh200ELh1EE5writeEh>:
 8001cfc:	e92d 41f0 	stmdb	sp!, {r4, r5, r6, r7, r8, lr}
 8001d00:	2508      	movs	r5, #8
 8001d02:	4604      	mov	r4, r0
 8001d04:	460f      	mov	r7, r1
 8001d06:	eb00 0805 	add.w	r8, r0, r5
 8001d0a:	f104 060c 	add.w	r6, r4, #12
 8001d0e:	2100      	movs	r1, #0
 8001d10:	4630      	mov	r0, r6
 8001d12:	f7ff fe61 	bl	80019d8 <_ZN4GpioILh1ELh4ELh1EE8set_modeEh>
 8001d16:	4620      	mov	r0, r4
 8001d18:	f000 f9b1 	bl	800207e <_ZN13I2C_Interface5delayEv>
 8001d1c:	063b      	lsls	r3, r7, #24
 8001d1e:	bf4c      	ite	mi
 8001d20:	2101      	movmi	r1, #1
 8001d22:	2100      	movpl	r1, #0
 8001d24:	4640      	mov	r0, r8
 8001d26:	f7ff fde6 	bl	80018f6 <_ZN4GpioILh1ELh5ELh1EE8set_modeEh>
 8001d2a:	4620      	mov	r0, r4
 8001d2c:	f000 f9a7 	bl	800207e <_ZN13I2C_Interface5delayEv>
 8001d30:	2101      	movs	r1, #1
 8001d32:	4630      	mov	r0, r6
 8001d34:	f7ff fe50 	bl	80019d8 <_ZN4GpioILh1ELh4ELh1EE8set_modeEh>
 8001d38:	3d01      	subs	r5, #1
 8001d3a:	4620      	mov	r0, r4
 8001d3c:	f000 f99f 	bl	800207e <_ZN13I2C_Interface5delayEv>
 8001d40:	007f      	lsls	r7, r7, #1
 8001d42:	f015 05ff 	ands.w	r5, r5, #255	; 0xff
 8001d46:	b2ff      	uxtb	r7, r7
 8001d48:	d1df      	bne.n	8001d0a <_ZN4TI2CILh1ELh5ELh4ELh200ELh1EE5writeEh+0xe>
 8001d4a:	4629      	mov	r1, r5
 8001d4c:	4630      	mov	r0, r6
 8001d4e:	f7ff fe43 	bl	80019d8 <_ZN4GpioILh1ELh4ELh1EE8set_modeEh>
 8001d52:	4620      	mov	r0, r4
 8001d54:	f000 f993 	bl	800207e <_ZN13I2C_Interface5delayEv>
 8001d58:	2101      	movs	r1, #1
 8001d5a:	4640      	mov	r0, r8
 8001d5c:	f7ff fdcb 	bl	80018f6 <_ZN4GpioILh1ELh5ELh1EE8set_modeEh>
 8001d60:	4620      	mov	r0, r4
 8001d62:	f000 f98c 	bl	800207e <_ZN13I2C_Interface5delayEv>
 8001d66:	2101      	movs	r1, #1
 8001d68:	4630      	mov	r0, r6
 8001d6a:	f7ff fe35 	bl	80019d8 <_ZN4GpioILh1ELh4ELh1EE8set_modeEh>
 8001d6e:	4620      	mov	r0, r4
 8001d70:	f000 f985 	bl	800207e <_ZN13I2C_Interface5delayEv>
 8001d74:	68a3      	ldr	r3, [r4, #8]
 8001d76:	4629      	mov	r1, r5
 8001d78:	691f      	ldr	r7, [r3, #16]
 8001d7a:	4630      	mov	r0, r6
 8001d7c:	f7ff fe2c 	bl	80019d8 <_ZN4GpioILh1ELh4ELh1EE8set_modeEh>
 8001d80:	4620      	mov	r0, r4
 8001d82:	f000 f97c 	bl	800207e <_ZN13I2C_Interface5delayEv>
 8001d86:	f087 0020 	eor.w	r0, r7, #32
 8001d8a:	f3c0 1040 	ubfx	r0, r0, #5, #1
 8001d8e:	e8bd 81f0 	ldmia.w	sp!, {r4, r5, r6, r7, r8, pc}

08001d92 <_Z14SetSysClock216v>:
 8001d92:	b513      	push	{r0, r1, r4, lr}
 8001d94:	2001      	movs	r0, #1
 8001d96:	f7ff f925 	bl	8000fe4 <RCC_HSEConfig>
 8001d9a:	f7ff fad7 	bl	800134c <RCC_WaitForHSEStartUp>
 8001d9e:	2801      	cmp	r0, #1
 8001da0:	4604      	mov	r4, r0
 8001da2:	d000      	beq.n	8001da6 <_Z14SetSysClock216v+0x14>
 8001da4:	e7fe      	b.n	8001da4 <_Z14SetSysClock216v+0x12>
 8001da6:	2309      	movs	r3, #9
 8001da8:	9300      	str	r3, [sp, #0]
 8001daa:	f44f 0080 	mov.w	r0, #4194304	; 0x400000
 8001dae:	2302      	movs	r3, #2
 8001db0:	f44f 72d8 	mov.w	r2, #432	; 0x1b0
 8001db4:	2108      	movs	r1, #8
 8001db6:	f7ff f929 	bl	800100c <RCC_PLLConfig>
 8001dba:	4620      	mov	r0, r4
 8001dbc:	f7ff f980 	bl	80010c0 <RCC_PLLCmd>
 8001dc0:	2039      	movs	r0, #57	; 0x39
 8001dc2:	f7ff fa93 	bl	80012ec <RCC_GetFlagStatus>
 8001dc6:	2800      	cmp	r0, #0
 8001dc8:	d0fa      	beq.n	8001dc0 <_Z14SetSysClock216v+0x2e>
 8001dca:	f04f 5080 	mov.w	r0, #268435456	; 0x10000000
 8001dce:	2101      	movs	r1, #1
 8001dd0:	f7ff fa46 	bl	8001260 <RCC_APB1PeriphClockCmd>
 8001dd4:	2001      	movs	r0, #1
 8001dd6:	f7ff f89b 	bl	8000f10 <PWR_OverDriveCmd>
 8001dda:	f44f 3080 	mov.w	r0, #65536	; 0x10000
 8001dde:	f7ff f8c7 	bl	8000f70 <PWR_GetFlagStatus>
 8001de2:	2800      	cmp	r0, #0
 8001de4:	d0f9      	beq.n	8001dda <_Z14SetSysClock216v+0x48>
 8001de6:	2031      	movs	r0, #49	; 0x31
 8001de8:	f7ff fa80 	bl	80012ec <RCC_GetFlagStatus>
 8001dec:	2800      	cmp	r0, #0
 8001dee:	d0fa      	beq.n	8001de6 <_Z14SetSysClock216v+0x54>
 8001df0:	2001      	movs	r0, #1
 8001df2:	f7ff f8a5 	bl	8000f40 <PWR_OverDriveSWCmd>
 8001df6:	f44f 3000 	mov.w	r0, #131072	; 0x20000
 8001dfa:	f7ff f8b9 	bl	8000f70 <PWR_GetFlagStatus>
 8001dfe:	2800      	cmp	r0, #0
 8001e00:	d0f9      	beq.n	8001df6 <_Z14SetSysClock216v+0x64>
 8001e02:	2007      	movs	r0, #7
 8001e04:	f7ff f870 	bl	8000ee8 <FLASH_SetLatency>
 8001e08:	2002      	movs	r0, #2
 8001e0a:	f7ff f971 	bl	80010f0 <RCC_SYSCLKConfig>
 8001e0e:	2000      	movs	r0, #0
 8001e10:	f7ff f982 	bl	8001118 <RCC_HCLKConfig>
 8001e14:	f44f 50a0 	mov.w	r0, #5120	; 0x1400
 8001e18:	f7ff f9a2 	bl	8001160 <RCC_PCLK1Config>
 8001e1c:	f44f 5080 	mov.w	r0, #4096	; 0x1000
 8001e20:	f7ff f9bc 	bl	800119c <RCC_PCLK2Config>
 8001e24:	b002      	add	sp, #8
 8001e26:	e8bd 4010 	ldmia.w	sp!, {r4, lr}
 8001e2a:	f7fe ba39 	b.w	80002a0 <SystemCoreClockUpdate>

08001e2e <_Z27core_SystemClock_Config_216v>:
 8001e2e:	b508      	push	{r3, lr}
 8001e30:	f7fe fa10 	bl	8000254 <SystemInit>
 8001e34:	f7ff ffad 	bl	8001d92 <_Z14SetSysClock216v>
 8001e38:	e8bd 4008 	ldmia.w	sp!, {r3, lr}
 8001e3c:	f7fe ba30 	b.w	80002a0 <SystemCoreClockUpdate>

08001e40 <_ZN7LSM303DD1Ev>:
 8001e40:	4770      	bx	lr

08001e42 <_ZN7LSM303DD0Ev>:
 8001e42:	b510      	push	{r4, lr}
 8001e44:	2114      	movs	r1, #20
 8001e46:	4604      	mov	r4, r0
 8001e48:	f000 f92a 	bl	80020a0 <_ZdlPvj>
 8001e4c:	4620      	mov	r0, r4
 8001e4e:	bd10      	pop	{r4, pc}

08001e50 <_ZN7LSM303DC1ER13I2C_Interface>:
 8001e50:	b538      	push	{r3, r4, r5, lr}
 8001e52:	4b12      	ldr	r3, [pc, #72]	; (8001e9c <_ZN7LSM303DC1ER13I2C_Interface+0x4c>)
 8001e54:	4d12      	ldr	r5, [pc, #72]	; (8001ea0 <_ZN7LSM303DC1ER13I2C_Interface+0x50>)
 8001e56:	4604      	mov	r4, r0
 8001e58:	e9c0 3100 	strd	r3, r1, [r0]
 8001e5c:	4628      	mov	r0, r5
 8001e5e:	4911      	ldr	r1, [pc, #68]	; (8001ea4 <_ZN7LSM303DC1ER13I2C_Interface+0x54>)
 8001e60:	f001 fac8 	bl	80033f4 <_ZN8Terminal4putsEPKc>
 8001e64:	6860      	ldr	r0, [r4, #4]
 8001e66:	237c      	movs	r3, #124	; 0x7c
 8001e68:	2220      	movs	r2, #32
 8001e6a:	213c      	movs	r1, #60	; 0x3c
 8001e6c:	f000 f8c2 	bl	8001ff4 <_ZN13I2C_Interface9write_regEhhh>
 8001e70:	6860      	ldr	r0, [r4, #4]
 8001e72:	2300      	movs	r3, #0
 8001e74:	2222      	movs	r2, #34	; 0x22
 8001e76:	213c      	movs	r1, #60	; 0x3c
 8001e78:	f000 f8bc 	bl	8001ff4 <_ZN13I2C_Interface9write_regEhhh>
 8001e7c:	2223      	movs	r2, #35	; 0x23
 8001e7e:	6860      	ldr	r0, [r4, #4]
 8001e80:	230c      	movs	r3, #12
 8001e82:	213c      	movs	r1, #60	; 0x3c
 8001e84:	f000 f8b6 	bl	8001ff4 <_ZN13I2C_Interface9write_regEhhh>
 8001e88:	2300      	movs	r3, #0
 8001e8a:	4628      	mov	r0, r5
 8001e8c:	e9c4 3302 	strd	r3, r3, [r4, #8]
 8001e90:	6123      	str	r3, [r4, #16]
 8001e92:	4905      	ldr	r1, [pc, #20]	; (8001ea8 <_ZN7LSM303DC1ER13I2C_Interface+0x58>)
 8001e94:	f001 faae 	bl	80033f4 <_ZN8Terminal4putsEPKc>
 8001e98:	4620      	mov	r0, r4
 8001e9a:	bd38      	pop	{r3, r4, r5, pc}
 8001e9c:	08003cfc 	stmdaeq	r0, {r2, r3, r4, r5, r6, r7, sl, fp, ip, sp}
 8001ea0:	20000268 	andcs	r0, r0, r8, ror #4
 8001ea4:	08003cd9 	stmdaeq	r0, {r0, r3, r4, r6, r7, sl, fp, ip, sp}
 8001ea8:	08003ce3 	stmdaeq	r0, {r0, r1, r5, r6, r7, sl, fp, ip, sp}

08001eac <_ZN7LSM303D4testEv>:
 8001eac:	e92d 41f0 	stmdb	sp!, {r4, r5, r6, r7, r8, lr}
 8001eb0:	220f      	movs	r2, #15
 8001eb2:	4604      	mov	r4, r0
 8001eb4:	213c      	movs	r1, #60	; 0x3c
 8001eb6:	6840      	ldr	r0, [r0, #4]
 8001eb8:	4d3c      	ldr	r5, [pc, #240]	; (8001fac <_ZN7LSM303D4testEv+0x100>)
 8001eba:	f000 f8b9 	bl	8002030 <_ZN13I2C_Interface8read_regEhh>
 8001ebe:	493c      	ldr	r1, [pc, #240]	; (8001fb0 <_ZN7LSM303D4testEv+0x104>)
 8001ec0:	4606      	mov	r6, r0
 8001ec2:	4628      	mov	r0, r5
 8001ec4:	f001 fa96 	bl	80033f4 <_ZN8Terminal4putsEPKc>
 8001ec8:	4631      	mov	r1, r6
 8001eca:	4628      	mov	r0, r5
 8001ecc:	f001 fa9d 	bl	800340a <_ZN8Terminal4putiEl>
 8001ed0:	4938      	ldr	r1, [pc, #224]	; (8001fb4 <_ZN7LSM303D4testEv+0x108>)
 8001ed2:	4628      	mov	r0, r5
 8001ed4:	f001 fa8e 	bl	80033f4 <_ZN8Terminal4putsEPKc>
 8001ed8:	6860      	ldr	r0, [r4, #4]
 8001eda:	6803      	ldr	r3, [r0, #0]
 8001edc:	689b      	ldr	r3, [r3, #8]
 8001ede:	4798      	blx	r3
 8001ee0:	6860      	ldr	r0, [r4, #4]
 8001ee2:	6803      	ldr	r3, [r0, #0]
 8001ee4:	213c      	movs	r1, #60	; 0x3c
 8001ee6:	695b      	ldr	r3, [r3, #20]
 8001ee8:	4798      	blx	r3
 8001eea:	6860      	ldr	r0, [r4, #4]
 8001eec:	6803      	ldr	r3, [r0, #0]
 8001eee:	2128      	movs	r1, #40	; 0x28
 8001ef0:	695b      	ldr	r3, [r3, #20]
 8001ef2:	4798      	blx	r3
 8001ef4:	6860      	ldr	r0, [r4, #4]
 8001ef6:	6803      	ldr	r3, [r0, #0]
 8001ef8:	689b      	ldr	r3, [r3, #8]
 8001efa:	4798      	blx	r3
 8001efc:	6860      	ldr	r0, [r4, #4]
 8001efe:	6803      	ldr	r3, [r0, #0]
 8001f00:	213d      	movs	r1, #61	; 0x3d
 8001f02:	695b      	ldr	r3, [r3, #20]
 8001f04:	4798      	blx	r3
 8001f06:	6860      	ldr	r0, [r4, #4]
 8001f08:	6803      	ldr	r3, [r0, #0]
 8001f0a:	2101      	movs	r1, #1
 8001f0c:	699b      	ldr	r3, [r3, #24]
 8001f0e:	4798      	blx	r3
 8001f10:	0200      	lsls	r0, r0, #8
 8001f12:	fa0f f880 	sxth.w	r8, r0
 8001f16:	6860      	ldr	r0, [r4, #4]
 8001f18:	6803      	ldr	r3, [r0, #0]
 8001f1a:	2101      	movs	r1, #1
 8001f1c:	699b      	ldr	r3, [r3, #24]
 8001f1e:	4798      	blx	r3
 8001f20:	ea48 0800 	orr.w	r8, r8, r0
 8001f24:	6860      	ldr	r0, [r4, #4]
 8001f26:	6803      	ldr	r3, [r0, #0]
 8001f28:	2101      	movs	r1, #1
 8001f2a:	699b      	ldr	r3, [r3, #24]
 8001f2c:	4798      	blx	r3
 8001f2e:	0200      	lsls	r0, r0, #8
 8001f30:	b207      	sxth	r7, r0
 8001f32:	6860      	ldr	r0, [r4, #4]
 8001f34:	6803      	ldr	r3, [r0, #0]
 8001f36:	2101      	movs	r1, #1
 8001f38:	699b      	ldr	r3, [r3, #24]
 8001f3a:	4798      	blx	r3
 8001f3c:	4307      	orrs	r7, r0
 8001f3e:	6860      	ldr	r0, [r4, #4]
 8001f40:	6803      	ldr	r3, [r0, #0]
 8001f42:	2101      	movs	r1, #1
 8001f44:	699b      	ldr	r3, [r3, #24]
 8001f46:	4798      	blx	r3
 8001f48:	0200      	lsls	r0, r0, #8
 8001f4a:	b206      	sxth	r6, r0
 8001f4c:	6860      	ldr	r0, [r4, #4]
 8001f4e:	6803      	ldr	r3, [r0, #0]
 8001f50:	2100      	movs	r1, #0
 8001f52:	699b      	ldr	r3, [r3, #24]
 8001f54:	4798      	blx	r3
 8001f56:	4306      	orrs	r6, r0
 8001f58:	6860      	ldr	r0, [r4, #4]
 8001f5a:	6803      	ldr	r3, [r0, #0]
 8001f5c:	fa0f f888 	sxth.w	r8, r8
 8001f60:	68db      	ldr	r3, [r3, #12]
 8001f62:	b23f      	sxth	r7, r7
 8001f64:	b236      	sxth	r6, r6
 8001f66:	4798      	blx	r3
 8001f68:	6126      	str	r6, [r4, #16]
 8001f6a:	4628      	mov	r0, r5
 8001f6c:	4e12      	ldr	r6, [pc, #72]	; (8001fb8 <_ZN7LSM303D4testEv+0x10c>)
 8001f6e:	4913      	ldr	r1, [pc, #76]	; (8001fbc <_ZN7LSM303D4testEv+0x110>)
 8001f70:	e9c4 8702 	strd	r8, r7, [r4, #8]
 8001f74:	f001 fa3e 	bl	80033f4 <_ZN8Terminal4putsEPKc>
 8001f78:	68a1      	ldr	r1, [r4, #8]
 8001f7a:	4628      	mov	r0, r5
 8001f7c:	f001 fa45 	bl	800340a <_ZN8Terminal4putiEl>
 8001f80:	4631      	mov	r1, r6
 8001f82:	4628      	mov	r0, r5
 8001f84:	f001 fa36 	bl	80033f4 <_ZN8Terminal4putsEPKc>
 8001f88:	68e1      	ldr	r1, [r4, #12]
 8001f8a:	4628      	mov	r0, r5
 8001f8c:	f001 fa3d 	bl	800340a <_ZN8Terminal4putiEl>
 8001f90:	4631      	mov	r1, r6
 8001f92:	4628      	mov	r0, r5
 8001f94:	f001 fa2e 	bl	80033f4 <_ZN8Terminal4putsEPKc>
 8001f98:	6921      	ldr	r1, [r4, #16]
 8001f9a:	4628      	mov	r0, r5
 8001f9c:	f001 fa35 	bl	800340a <_ZN8Terminal4putiEl>
 8001fa0:	4628      	mov	r0, r5
 8001fa2:	4907      	ldr	r1, [pc, #28]	; (8001fc0 <_ZN7LSM303D4testEv+0x114>)
 8001fa4:	e8bd 41f0 	ldmia.w	sp!, {r4, r5, r6, r7, r8, lr}
 8001fa8:	f001 ba24 	b.w	80033f4 <_ZN8Terminal4putsEPKc>
 8001fac:	20000268 	andcs	r0, r0, r8, ror #4
 8001fb0:	08003cc3 	stmdaeq	r0, {r0, r1, r6, r7, sl, fp, ip, sp}
 8001fb4:	08003dcf 	stmdaeq	r0, {r0, r1, r2, r3, r6, r7, r8, sl, fp, ip, sp}
 8001fb8:	08003dc3 	stmdaeq	r0, {r0, r1, r6, r7, r8, sl, fp, ip, sp}
 8001fbc:	08003cd4 	stmdaeq	r0, {r2, r4, r6, r7, sl, fp, ip, sp}
 8001fc0:	08003cd6 	stmdaeq	r0, {r1, r2, r4, r6, r7, sl, fp, ip, sp}

08001fc4 <_ZN13I2C_Interface5startEv>:
 8001fc4:	4770      	bx	lr

08001fc6 <_ZN13I2C_Interface4stopEv>:
 8001fc6:	4770      	bx	lr

08001fc8 <_ZN13I2C_Interface4initEv>:
 8001fc8:	2314      	movs	r3, #20
 8001fca:	6043      	str	r3, [r0, #4]
 8001fcc:	4770      	bx	lr

08001fce <_ZN13I2C_Interface5writeEh>:
 8001fce:	2000      	movs	r0, #0
 8001fd0:	4770      	bx	lr

08001fd2 <_ZN13I2C_Interface4readEh>:
 8001fd2:	2000      	movs	r0, #0
 8001fd4:	4770      	bx	lr

08001fd6 <_ZN13I2C_InterfaceD1Ev>:
 8001fd6:	4770      	bx	lr

08001fd8 <_ZN13I2C_InterfaceD0Ev>:
 8001fd8:	b510      	push	{r4, lr}
 8001fda:	2108      	movs	r1, #8
 8001fdc:	4604      	mov	r4, r0
 8001fde:	f000 f85f 	bl	80020a0 <_ZdlPvj>
 8001fe2:	4620      	mov	r0, r4
 8001fe4:	bd10      	pop	{r4, pc}
 8001fe6:	0000      	movs	r0, r0

08001fe8 <_ZN13I2C_InterfaceC1Ev>:
 8001fe8:	4b01      	ldr	r3, [pc, #4]	; (8001ff0 <_ZN13I2C_InterfaceC1Ev+0x8>)
 8001fea:	6003      	str	r3, [r0, #0]
 8001fec:	4770      	bx	lr
 8001fee:	bf00      	nop
 8001ff0:	08003d0c 	stmdaeq	r0, {r2, r3, r8, sl, fp, ip, sp}

08001ff4 <_ZN13I2C_Interface9write_regEhhh>:
 8001ff4:	e92d 41f0 	stmdb	sp!, {r4, r5, r6, r7, r8, lr}
 8001ff8:	461d      	mov	r5, r3
 8001ffa:	6803      	ldr	r3, [r0, #0]
 8001ffc:	4604      	mov	r4, r0
 8001ffe:	689b      	ldr	r3, [r3, #8]
 8002000:	4616      	mov	r6, r2
 8002002:	460f      	mov	r7, r1
 8002004:	4798      	blx	r3
 8002006:	6823      	ldr	r3, [r4, #0]
 8002008:	4639      	mov	r1, r7
 800200a:	695b      	ldr	r3, [r3, #20]
 800200c:	4620      	mov	r0, r4
 800200e:	4798      	blx	r3
 8002010:	6823      	ldr	r3, [r4, #0]
 8002012:	4631      	mov	r1, r6
 8002014:	695b      	ldr	r3, [r3, #20]
 8002016:	4620      	mov	r0, r4
 8002018:	4798      	blx	r3
 800201a:	6823      	ldr	r3, [r4, #0]
 800201c:	4629      	mov	r1, r5
 800201e:	695a      	ldr	r2, [r3, #20]
 8002020:	4620      	mov	r0, r4
 8002022:	4790      	blx	r2
 8002024:	6823      	ldr	r3, [r4, #0]
 8002026:	4620      	mov	r0, r4
 8002028:	68db      	ldr	r3, [r3, #12]
 800202a:	e8bd 41f0 	ldmia.w	sp!, {r4, r5, r6, r7, r8, lr}
 800202e:	4718      	bx	r3

08002030 <_ZN13I2C_Interface8read_regEhh>:
 8002030:	6803      	ldr	r3, [r0, #0]
 8002032:	b570      	push	{r4, r5, r6, lr}
 8002034:	4604      	mov	r4, r0
 8002036:	689b      	ldr	r3, [r3, #8]
 8002038:	4616      	mov	r6, r2
 800203a:	460d      	mov	r5, r1
 800203c:	4798      	blx	r3
 800203e:	6823      	ldr	r3, [r4, #0]
 8002040:	4629      	mov	r1, r5
 8002042:	695b      	ldr	r3, [r3, #20]
 8002044:	4620      	mov	r0, r4
 8002046:	4798      	blx	r3
 8002048:	6823      	ldr	r3, [r4, #0]
 800204a:	4631      	mov	r1, r6
 800204c:	695b      	ldr	r3, [r3, #20]
 800204e:	4620      	mov	r0, r4
 8002050:	4798      	blx	r3
 8002052:	6823      	ldr	r3, [r4, #0]
 8002054:	4620      	mov	r0, r4
 8002056:	689b      	ldr	r3, [r3, #8]
 8002058:	4798      	blx	r3
 800205a:	6823      	ldr	r3, [r4, #0]
 800205c:	f045 0101 	orr.w	r1, r5, #1
 8002060:	695b      	ldr	r3, [r3, #20]
 8002062:	4620      	mov	r0, r4
 8002064:	4798      	blx	r3
 8002066:	6823      	ldr	r3, [r4, #0]
 8002068:	2100      	movs	r1, #0
 800206a:	699b      	ldr	r3, [r3, #24]
 800206c:	4620      	mov	r0, r4
 800206e:	4798      	blx	r3
 8002070:	6823      	ldr	r3, [r4, #0]
 8002072:	4605      	mov	r5, r0
 8002074:	68db      	ldr	r3, [r3, #12]
 8002076:	4620      	mov	r0, r4
 8002078:	4798      	blx	r3
 800207a:	4628      	mov	r0, r5
 800207c:	bd70      	pop	{r4, r5, r6, pc}

0800207e <_ZN13I2C_Interface5delayEv>:
 800207e:	2300      	movs	r3, #0
 8002080:	6842      	ldr	r2, [r0, #4]
 8002082:	429a      	cmp	r2, r3
 8002084:	d902      	bls.n	800208c <_ZN13I2C_Interface5delayEv+0xe>
 8002086:	bf00      	nop
 8002088:	3301      	adds	r3, #1
 800208a:	e7f9      	b.n	8002080 <_ZN13I2C_Interface5delayEv+0x2>
 800208c:	4770      	bx	lr
 800208e:	0000      	movs	r0, r0

08002090 <_Z8mem_initv>:
 8002090:	4b01      	ldr	r3, [pc, #4]	; (8002098 <_Z8mem_initv+0x8>)
 8002092:	4802      	ldr	r0, [pc, #8]	; (800209c <_Z8mem_initv+0xc>)
 8002094:	6018      	str	r0, [r3, #0]
 8002096:	4770      	bx	lr
 8002098:	20000004 	andcs	r0, r0, r4
 800209c:	200003b4 			; <UNDEFINED> instruction: 0x200003b4

080020a0 <_ZdlPvj>:
 80020a0:	4770      	bx	lr

080020a2 <__aeabi_atexit>:
 80020a2:	2000      	movs	r0, #0
 80020a4:	4770      	bx	lr

080020a6 <_ZN3PIDD1Ev>:
 80020a6:	4770      	bx	lr

080020a8 <_ZN3PIDD0Ev>:
 80020a8:	b510      	push	{r4, lr}
 80020aa:	212c      	movs	r1, #44	; 0x2c
 80020ac:	4604      	mov	r4, r0
 80020ae:	f7ff fff7 	bl	80020a0 <_ZdlPvj>
 80020b2:	4620      	mov	r0, r4
 80020b4:	bd10      	pop	{r4, pc}

080020b6 <_ZN3PID7processEff>:
 80020b6:	edd0 6a03 	vldr	s13, [r0, #12]
 80020ba:	edd0 7a01 	vldr	s15, [r0, #4]
 80020be:	ed90 6a04 	vldr	s12, [r0, #16]
 80020c2:	edd0 4a07 	vldr	s9, [r0, #28]
 80020c6:	edc0 6a04 	vstr	s13, [r0, #16]
 80020ca:	ee07 2a10 	vmov	s14, r2
 80020ce:	ee76 6aa6 	vadd.f32	s13, s13, s13
 80020d2:	ed90 5a06 	vldr	s10, [r0, #24]
 80020d6:	edc0 7a02 	vstr	s15, [r0, #8]
 80020da:	ee05 1a90 	vmov	s11, r1
 80020de:	ee67 7aa4 	vmul.f32	s15, s15, s9
 80020e2:	ee37 7a66 	vsub.f32	s14, s14, s13
 80020e6:	ee45 7a85 	vmla.f32	s15, s11, s10
 80020ea:	6041      	str	r1, [r0, #4]
 80020ec:	60c2      	str	r2, [r0, #12]
 80020ee:	ee37 7a06 	vadd.f32	s14, s14, s12
 80020f2:	edd0 6a08 	vldr	s13, [r0, #32]
 80020f6:	ed80 6a05 	vstr	s12, [r0, #20]
 80020fa:	ee47 7a66 	vmls.f32	s15, s14, s13
 80020fe:	ed90 7a0a 	vldr	s14, [r0, #40]	; 0x28
 8002102:	ee77 7a87 	vadd.f32	s15, s15, s14
 8002106:	ed90 7a09 	vldr	s14, [r0, #36]	; 0x24
 800210a:	edc0 7a0a 	vstr	s15, [r0, #40]	; 0x28
 800210e:	eef4 7ac7 	vcmpe.f32	s15, s14
 8002112:	eef1 fa10 	vmrs	APSR_nzcv, fpscr
 8002116:	bfc8      	it	gt
 8002118:	ed80 7a0a 	vstrgt	s14, [r0, #40]	; 0x28
 800211c:	edd0 7a0a 	vldr	s15, [r0, #40]	; 0x28
 8002120:	eeb1 7a47 	vneg.f32	s14, s14
 8002124:	eef4 7ac7 	vcmpe.f32	s15, s14
 8002128:	eef1 fa10 	vmrs	APSR_nzcv, fpscr
 800212c:	bf48      	it	mi
 800212e:	ed80 7a0a 	vstrmi	s14, [r0, #40]	; 0x28
 8002132:	6a80      	ldr	r0, [r0, #40]	; 0x28
 8002134:	4770      	bx	lr

08002136 <_ZN3PID5resetEv>:
 8002136:	2300      	movs	r3, #0
 8002138:	6043      	str	r3, [r0, #4]
 800213a:	6083      	str	r3, [r0, #8]
 800213c:	60c3      	str	r3, [r0, #12]
 800213e:	6103      	str	r3, [r0, #16]
 8002140:	6143      	str	r3, [r0, #20]
 8002142:	6283      	str	r3, [r0, #40]	; 0x28
 8002144:	4770      	bx	lr

08002146 <_ZN3PID4initEffff>:
 8002146:	b510      	push	{r4, lr}
 8002148:	ee07 1a90 	vmov	s15, r1
 800214c:	ee07 2a10 	vmov	s14, r2
 8002150:	461a      	mov	r2, r3
 8002152:	f7ff fff0 	bl	8002136 <_ZN3PID5resetEv>
 8002156:	ee37 7a87 	vadd.f32	s14, s15, s14
 800215a:	9b02      	ldr	r3, [sp, #8]
 800215c:	ed80 7a06 	vstr	s14, [r0, #24]
 8002160:	eef1 7a67 	vneg.f32	s15, s15
 8002164:	edc0 7a07 	vstr	s15, [r0, #28]
 8002168:	6202      	str	r2, [r0, #32]
 800216a:	6243      	str	r3, [r0, #36]	; 0x24
 800216c:	bd10      	pop	{r4, pc}
 800216e:	0000      	movs	r0, r0

08002170 <_ZN3PIDC1Effff>:
 8002170:	ee07 2a10 	vmov	s14, r2
 8002174:	461a      	mov	r2, r3
 8002176:	4b09      	ldr	r3, [pc, #36]	; (800219c <_ZN3PIDC1Effff+0x2c>)
 8002178:	6003      	str	r3, [r0, #0]
 800217a:	b510      	push	{r4, lr}
 800217c:	ee07 1a90 	vmov	s15, r1
 8002180:	f7ff ffd9 	bl	8002136 <_ZN3PID5resetEv>
 8002184:	ee37 7a87 	vadd.f32	s14, s15, s14
 8002188:	9b02      	ldr	r3, [sp, #8]
 800218a:	ed80 7a06 	vstr	s14, [r0, #24]
 800218e:	eef1 7a67 	vneg.f32	s15, s15
 8002192:	edc0 7a07 	vstr	s15, [r0, #28]
 8002196:	6202      	str	r2, [r0, #32]
 8002198:	6243      	str	r3, [r0, #36]	; 0x24
 800219a:	bd10      	pop	{r4, pc}
 800219c:	08003d30 	stmdaeq	r0, {r4, r5, r8, sl, fp, ip, sp}

080021a0 <_ZN5UsartD1Ev>:
 80021a0:	4770      	bx	lr

080021a2 <_ZN5UsartD0Ev>:
 80021a2:	b510      	push	{r4, lr}
 80021a4:	2104      	movs	r1, #4
 80021a6:	4604      	mov	r4, r0
 80021a8:	f7ff ff7a 	bl	80020a0 <_ZdlPvj>
 80021ac:	4620      	mov	r0, r4
 80021ae:	bd10      	pop	{r4, pc}

080021b0 <_ZN5UsartC1Ev>:
 80021b0:	4b01      	ldr	r3, [pc, #4]	; (80021b8 <_ZN5UsartC1Ev+0x8>)
 80021b2:	6003      	str	r3, [r0, #0]
 80021b4:	4770      	bx	lr
 80021b6:	bf00      	nop
 80021b8:	08003d40 	stmdaeq	r0, {r6, r8, sl, fp, ip, sp}

080021bc <_ZN5Usart4initEj>:
 80021bc:	4a27      	ldr	r2, [pc, #156]	; (800225c <_ZN5Usart4initEj+0xa0>)
 80021be:	6b13      	ldr	r3, [r2, #48]	; 0x30
 80021c0:	b530      	push	{r4, r5, lr}
 80021c2:	f240 15ff 	movw	r5, #511	; 0x1ff
 80021c6:	432b      	orrs	r3, r5
 80021c8:	6313      	str	r3, [r2, #48]	; 0x30
 80021ca:	4b25      	ldr	r3, [pc, #148]	; (8002260 <_ZN5Usart4initEj+0xa4>)
 80021cc:	689c      	ldr	r4, [r3, #8]
 80021ce:	f424 2440 	bic.w	r4, r4, #786432	; 0xc0000
 80021d2:	609c      	str	r4, [r3, #8]
 80021d4:	689c      	ldr	r4, [r3, #8]
 80021d6:	f444 2440 	orr.w	r4, r4, #786432	; 0xc0000
 80021da:	609c      	str	r4, [r3, #8]
 80021dc:	681c      	ldr	r4, [r3, #0]
 80021de:	f424 2440 	bic.w	r4, r4, #786432	; 0xc0000
 80021e2:	601c      	str	r4, [r3, #0]
 80021e4:	681c      	ldr	r4, [r3, #0]
 80021e6:	f444 2400 	orr.w	r4, r4, #524288	; 0x80000
 80021ea:	601c      	str	r4, [r3, #0]
 80021ec:	6b10      	ldr	r0, [r2, #48]	; 0x30
 80021ee:	4328      	orrs	r0, r5
 80021f0:	6310      	str	r0, [r2, #48]	; 0x30
 80021f2:	6898      	ldr	r0, [r3, #8]
 80021f4:	f420 1040 	bic.w	r0, r0, #3145728	; 0x300000
 80021f8:	6098      	str	r0, [r3, #8]
 80021fa:	6898      	ldr	r0, [r3, #8]
 80021fc:	f440 1040 	orr.w	r0, r0, #3145728	; 0x300000
 8002200:	6098      	str	r0, [r3, #8]
 8002202:	6818      	ldr	r0, [r3, #0]
 8002204:	f420 1040 	bic.w	r0, r0, #3145728	; 0x300000
 8002208:	6018      	str	r0, [r3, #0]
 800220a:	6818      	ldr	r0, [r3, #0]
 800220c:	f440 1000 	orr.w	r0, r0, #2097152	; 0x200000
 8002210:	6018      	str	r0, [r3, #0]
 8002212:	6a58      	ldr	r0, [r3, #36]	; 0x24
 8002214:	f020 00f0 	bic.w	r0, r0, #240	; 0xf0
 8002218:	6258      	str	r0, [r3, #36]	; 0x24
 800221a:	6a58      	ldr	r0, [r3, #36]	; 0x24
 800221c:	f040 0070 	orr.w	r0, r0, #112	; 0x70
 8002220:	6258      	str	r0, [r3, #36]	; 0x24
 8002222:	6a58      	ldr	r0, [r3, #36]	; 0x24
 8002224:	f420 6070 	bic.w	r0, r0, #3840	; 0xf00
 8002228:	6258      	str	r0, [r3, #36]	; 0x24
 800222a:	6a58      	ldr	r0, [r3, #36]	; 0x24
 800222c:	f440 60e0 	orr.w	r0, r0, #1792	; 0x700
 8002230:	6258      	str	r0, [r3, #36]	; 0x24
 8002232:	6c53      	ldr	r3, [r2, #68]	; 0x44
 8002234:	f043 0310 	orr.w	r3, r3, #16
 8002238:	6453      	str	r3, [r2, #68]	; 0x44
 800223a:	4b0a      	ldr	r3, [pc, #40]	; (8002264 <_ZN5Usart4initEj+0xa8>)
 800223c:	2200      	movs	r2, #0
 800223e:	200c      	movs	r0, #12
 8002240:	605a      	str	r2, [r3, #4]
 8002242:	0049      	lsls	r1, r1, #1
 8002244:	6018      	str	r0, [r3, #0]
 8002246:	609a      	str	r2, [r3, #8]
 8002248:	4a07      	ldr	r2, [pc, #28]	; (8002268 <_ZN5Usart4initEj+0xac>)
 800224a:	fbb2 f1f1 	udiv	r1, r2, r1
 800224e:	60d9      	str	r1, [r3, #12]
 8002250:	681a      	ldr	r2, [r3, #0]
 8002252:	f042 0201 	orr.w	r2, r2, #1
 8002256:	601a      	str	r2, [r3, #0]
 8002258:	bd30      	pop	{r4, r5, pc}
 800225a:	bf00      	nop
 800225c:	40023800 	andmi	r3, r2, r0, lsl #16
 8002260:	40020000 	andmi	r0, r2, r0
 8002264:	40011000 	andmi	r1, r1, r0
 8002268:	0cdfe600 	ldcleq	6, cr14, [pc], {0}

0800226c <_ZN5Usart8put_charEc>:
 800226c:	b510      	push	{r4, lr}
 800226e:	460c      	mov	r4, r1
 8002270:	2180      	movs	r1, #128	; 0x80
 8002272:	4805      	ldr	r0, [pc, #20]	; (8002288 <_ZN5Usart8put_charEc+0x1c>)
 8002274:	f7fe f928 	bl	80004c8 <USART_GetFlagStatus>
 8002278:	2800      	cmp	r0, #0
 800227a:	d0f9      	beq.n	8002270 <_ZN5Usart8put_charEc+0x4>
 800227c:	4621      	mov	r1, r4
 800227e:	4802      	ldr	r0, [pc, #8]	; (8002288 <_ZN5Usart8put_charEc+0x1c>)
 8002280:	e8bd 4010 	ldmia.w	sp!, {r4, lr}
 8002284:	f7fe b8e8 	b.w	8000458 <USART_SendData>
 8002288:	40011000 	andmi	r1, r1, r0

0800228c <_ZN13EncoderSensorD1Ev>:
 800228c:	4770      	bx	lr

0800228e <_ZN13EncoderSensorD0Ev>:
 800228e:	b510      	push	{r4, lr}
 8002290:	2104      	movs	r1, #4
 8002292:	4604      	mov	r4, r0
 8002294:	f7ff ff04 	bl	80020a0 <_ZdlPvj>
 8002298:	4620      	mov	r0, r4
 800229a:	bd10      	pop	{r4, pc}

0800229c <_ZN13EncoderSensorC1Ev>:
 800229c:	4b01      	ldr	r3, [pc, #4]	; (80022a4 <_ZN13EncoderSensorC1Ev+0x8>)
 800229e:	6003      	str	r3, [r0, #0]
 80022a0:	4770      	bx	lr
 80022a2:	bf00      	nop
 80022a4:	08003d50 	stmdaeq	r0, {r4, r6, r8, sl, fp, ip, sp}

080022a8 <_ZN13EncoderSensor4initEv>:
 80022a8:	4a02      	ldr	r2, [pc, #8]	; (80022b4 <_ZN13EncoderSensor4initEv+0xc>)
 80022aa:	2300      	movs	r3, #0
 80022ac:	6013      	str	r3, [r2, #0]
 80022ae:	4a02      	ldr	r2, [pc, #8]	; (80022b8 <_ZN13EncoderSensor4initEv+0x10>)
 80022b0:	6013      	str	r3, [r2, #0]
 80022b2:	4770      	bx	lr
 80022b4:	2000000c 	andcs	r0, r0, ip
 80022b8:	20000010 	andcs	r0, r0, r0, lsl r0

080022bc <_ZN13EncoderSensor18get_left_no_atomicEv>:
 80022bc:	4b03      	ldr	r3, [pc, #12]	; (80022cc <_ZN13EncoderSensor18get_left_no_atomicEv+0x10>)
 80022be:	6818      	ldr	r0, [r3, #0]
 80022c0:	232c      	movs	r3, #44	; 0x2c
 80022c2:	4343      	muls	r3, r0
 80022c4:	20b4      	movs	r0, #180	; 0xb4
 80022c6:	fb93 f0f0 	sdiv	r0, r3, r0
 80022ca:	4770      	bx	lr
 80022cc:	2000000c 	andcs	r0, r0, ip

080022d0 <_ZN13EncoderSensor19get_right_no_atomicEv>:
 80022d0:	4b03      	ldr	r3, [pc, #12]	; (80022e0 <_ZN13EncoderSensor19get_right_no_atomicEv+0x10>)
 80022d2:	6818      	ldr	r0, [r3, #0]
 80022d4:	232c      	movs	r3, #44	; 0x2c
 80022d6:	4343      	muls	r3, r0
 80022d8:	20b4      	movs	r0, #180	; 0xb4
 80022da:	fb93 f0f0 	sdiv	r0, r3, r0
 80022de:	4770      	bx	lr
 80022e0:	20000010 	andcs	r0, r0, r0, lsl r0

080022e4 <_ZN5MotorD1Ev>:
 80022e4:	4770      	bx	lr

080022e6 <_ZN5MotorD0Ev>:
 80022e6:	b510      	push	{r4, lr}
 80022e8:	2154      	movs	r1, #84	; 0x54
 80022ea:	4604      	mov	r4, r0
 80022ec:	f7ff fed8 	bl	80020a0 <_ZdlPvj>
 80022f0:	4620      	mov	r0, r4
 80022f2:	bd10      	pop	{r4, pc}

080022f4 <_ZN5MotorC1Ev>:
 80022f4:	4a3f      	ldr	r2, [pc, #252]	; (80023f4 <_ZN5MotorC1Ev+0x100>)
 80022f6:	4b40      	ldr	r3, [pc, #256]	; (80023f8 <_ZN5MotorC1Ev+0x104>)
 80022f8:	6003      	str	r3, [r0, #0]
 80022fa:	6b13      	ldr	r3, [r2, #48]	; 0x30
 80022fc:	b530      	push	{r4, r5, lr}
 80022fe:	f240 14ff 	movw	r4, #511	; 0x1ff
 8002302:	4323      	orrs	r3, r4
 8002304:	6313      	str	r3, [r2, #48]	; 0x30
 8002306:	4b3d      	ldr	r3, [pc, #244]	; (80023fc <_ZN5MotorC1Ev+0x108>)
 8002308:	6043      	str	r3, [r0, #4]
 800230a:	689d      	ldr	r5, [r3, #8]
 800230c:	f025 0503 	bic.w	r5, r5, #3
 8002310:	609d      	str	r5, [r3, #8]
 8002312:	689d      	ldr	r5, [r3, #8]
 8002314:	f045 0503 	orr.w	r5, r5, #3
 8002318:	609d      	str	r5, [r3, #8]
 800231a:	685d      	ldr	r5, [r3, #4]
 800231c:	f025 0501 	bic.w	r5, r5, #1
 8002320:	605d      	str	r5, [r3, #4]
 8002322:	685d      	ldr	r5, [r3, #4]
 8002324:	605d      	str	r5, [r3, #4]
 8002326:	681d      	ldr	r5, [r3, #0]
 8002328:	f025 0503 	bic.w	r5, r5, #3
 800232c:	601d      	str	r5, [r3, #0]
 800232e:	681d      	ldr	r5, [r3, #0]
 8002330:	f045 0501 	orr.w	r5, r5, #1
 8002334:	601d      	str	r5, [r3, #0]
 8002336:	6b13      	ldr	r3, [r2, #48]	; 0x30
 8002338:	4323      	orrs	r3, r4
 800233a:	6313      	str	r3, [r2, #48]	; 0x30
 800233c:	4b30      	ldr	r3, [pc, #192]	; (8002400 <_ZN5MotorC1Ev+0x10c>)
 800233e:	6083      	str	r3, [r0, #8]
 8002340:	689d      	ldr	r5, [r3, #8]
 8002342:	f025 7540 	bic.w	r5, r5, #50331648	; 0x3000000
 8002346:	609d      	str	r5, [r3, #8]
 8002348:	689d      	ldr	r5, [r3, #8]
 800234a:	f045 7540 	orr.w	r5, r5, #50331648	; 0x3000000
 800234e:	609d      	str	r5, [r3, #8]
 8002350:	685d      	ldr	r5, [r3, #4]
 8002352:	f425 5580 	bic.w	r5, r5, #4096	; 0x1000
 8002356:	605d      	str	r5, [r3, #4]
 8002358:	685d      	ldr	r5, [r3, #4]
 800235a:	605d      	str	r5, [r3, #4]
 800235c:	681d      	ldr	r5, [r3, #0]
 800235e:	f025 7540 	bic.w	r5, r5, #50331648	; 0x3000000
 8002362:	601d      	str	r5, [r3, #0]
 8002364:	681d      	ldr	r5, [r3, #0]
 8002366:	f045 7580 	orr.w	r5, r5, #16777216	; 0x1000000
 800236a:	601d      	str	r5, [r3, #0]
 800236c:	6b15      	ldr	r5, [r2, #48]	; 0x30
 800236e:	4325      	orrs	r5, r4
 8002370:	6315      	str	r5, [r2, #48]	; 0x30
 8002372:	689d      	ldr	r5, [r3, #8]
 8002374:	60c3      	str	r3, [r0, #12]
 8002376:	f025 6540 	bic.w	r5, r5, #201326592	; 0xc000000
 800237a:	609d      	str	r5, [r3, #8]
 800237c:	689d      	ldr	r5, [r3, #8]
 800237e:	f045 6540 	orr.w	r5, r5, #201326592	; 0xc000000
 8002382:	609d      	str	r5, [r3, #8]
 8002384:	681d      	ldr	r5, [r3, #0]
 8002386:	f025 6540 	bic.w	r5, r5, #201326592	; 0xc000000
 800238a:	601d      	str	r5, [r3, #0]
 800238c:	681d      	ldr	r5, [r3, #0]
 800238e:	f045 6500 	orr.w	r5, r5, #134217728	; 0x8000000
 8002392:	601d      	str	r5, [r3, #0]
 8002394:	6b15      	ldr	r5, [r2, #48]	; 0x30
 8002396:	4325      	orrs	r5, r4
 8002398:	6315      	str	r5, [r2, #48]	; 0x30
 800239a:	689d      	ldr	r5, [r3, #8]
 800239c:	6103      	str	r3, [r0, #16]
 800239e:	f425 1540 	bic.w	r5, r5, #3145728	; 0x300000
 80023a2:	609d      	str	r5, [r3, #8]
 80023a4:	689d      	ldr	r5, [r3, #8]
 80023a6:	f445 1540 	orr.w	r5, r5, #3145728	; 0x300000
 80023aa:	609d      	str	r5, [r3, #8]
 80023ac:	685d      	ldr	r5, [r3, #4]
 80023ae:	f425 6580 	bic.w	r5, r5, #1024	; 0x400
 80023b2:	605d      	str	r5, [r3, #4]
 80023b4:	685d      	ldr	r5, [r3, #4]
 80023b6:	605d      	str	r5, [r3, #4]
 80023b8:	681d      	ldr	r5, [r3, #0]
 80023ba:	f425 1540 	bic.w	r5, r5, #3145728	; 0x300000
 80023be:	601d      	str	r5, [r3, #0]
 80023c0:	681d      	ldr	r5, [r3, #0]
 80023c2:	f445 1580 	orr.w	r5, r5, #1048576	; 0x100000
 80023c6:	601d      	str	r5, [r3, #0]
 80023c8:	6b15      	ldr	r5, [r2, #48]	; 0x30
 80023ca:	432c      	orrs	r4, r5
 80023cc:	6314      	str	r4, [r2, #48]	; 0x30
 80023ce:	689a      	ldr	r2, [r3, #8]
 80023d0:	6143      	str	r3, [r0, #20]
 80023d2:	f422 0240 	bic.w	r2, r2, #12582912	; 0xc00000
 80023d6:	609a      	str	r2, [r3, #8]
 80023d8:	689a      	ldr	r2, [r3, #8]
 80023da:	f442 0240 	orr.w	r2, r2, #12582912	; 0xc00000
 80023de:	609a      	str	r2, [r3, #8]
 80023e0:	681a      	ldr	r2, [r3, #0]
 80023e2:	f422 0240 	bic.w	r2, r2, #12582912	; 0xc00000
 80023e6:	601a      	str	r2, [r3, #0]
 80023e8:	681a      	ldr	r2, [r3, #0]
 80023ea:	f442 0200 	orr.w	r2, r2, #8388608	; 0x800000
 80023ee:	601a      	str	r2, [r3, #0]
 80023f0:	bd30      	pop	{r4, r5, pc}
 80023f2:	bf00      	nop
 80023f4:	40023800 	andmi	r3, r2, r0, lsl #16
 80023f8:	08003d84 	stmdaeq	r0, {r2, r7, r8, sl, fp, ip, sp}
 80023fc:	40020c00 	andmi	r0, r2, r0, lsl #24
 8002400:	40021000 	andmi	r1, r2, r0

08002404 <_ZN5Motor8run_leftEi>:
 8002404:	6883      	ldr	r3, [r0, #8]
 8002406:	2900      	cmp	r1, #0
 8002408:	695a      	ldr	r2, [r3, #20]
 800240a:	dd0f      	ble.n	800242c <_ZN5Motor8run_leftEi+0x28>
 800240c:	f422 5280 	bic.w	r2, r2, #4096	; 0x1000
 8002410:	29ff      	cmp	r1, #255	; 0xff
 8002412:	615a      	str	r2, [r3, #20]
 8002414:	460b      	mov	r3, r1
 8002416:	bfa8      	it	ge
 8002418:	23ff      	movge	r3, #255	; 0xff
 800241a:	f240 5144 	movw	r1, #1348	; 0x544
 800241e:	4359      	muls	r1, r3
 8002420:	23ff      	movs	r3, #255	; 0xff
 8002422:	fbb1 f1f3 	udiv	r1, r1, r3
 8002426:	4b04      	ldr	r3, [pc, #16]	; (8002438 <_ZN5Motor8run_leftEi+0x34>)
 8002428:	63d9      	str	r1, [r3, #60]	; 0x3c
 800242a:	4770      	bx	lr
 800242c:	f442 5280 	orr.w	r2, r2, #4096	; 0x1000
 8002430:	615a      	str	r2, [r3, #20]
 8002432:	f101 03ff 	add.w	r3, r1, #255	; 0xff
 8002436:	e7f0      	b.n	800241a <_ZN5Motor8run_leftEi+0x16>
 8002438:	40010000 	andmi	r0, r1, r0

0800243c <_ZN5Motor9run_rightEi>:
 800243c:	6903      	ldr	r3, [r0, #16]
 800243e:	2900      	cmp	r1, #0
 8002440:	695a      	ldr	r2, [r3, #20]
 8002442:	dd0d      	ble.n	8002460 <_ZN5Motor9run_rightEi+0x24>
 8002444:	f442 6280 	orr.w	r2, r2, #1024	; 0x400
 8002448:	615a      	str	r2, [r3, #20]
 800244a:	f1c1 01ff 	rsb	r1, r1, #255	; 0xff
 800244e:	f240 5344 	movw	r3, #1348	; 0x544
 8002452:	4359      	muls	r1, r3
 8002454:	23ff      	movs	r3, #255	; 0xff
 8002456:	fbb1 f1f3 	udiv	r1, r1, r3
 800245a:	4b05      	ldr	r3, [pc, #20]	; (8002470 <_ZN5Motor9run_rightEi+0x34>)
 800245c:	6399      	str	r1, [r3, #56]	; 0x38
 800245e:	4770      	bx	lr
 8002460:	4249      	negs	r1, r1
 8002462:	f422 6280 	bic.w	r2, r2, #1024	; 0x400
 8002466:	29ff      	cmp	r1, #255	; 0xff
 8002468:	615a      	str	r2, [r3, #20]
 800246a:	bfa8      	it	ge
 800246c:	21ff      	movge	r1, #255	; 0xff
 800246e:	e7ee      	b.n	800244e <_ZN5Motor9run_rightEi+0x12>
 8002470:	40010000 	andmi	r0, r1, r0

08002474 <_ZN5Motor4initEv>:
 8002474:	e92d 43f8 	stmdb	sp!, {r3, r4, r5, r6, r7, r8, r9, lr}
 8002478:	4d36      	ldr	r5, [pc, #216]	; (8002554 <_ZN5Motor4initEv+0xe0>)
 800247a:	4937      	ldr	r1, [pc, #220]	; (8002558 <_ZN5Motor4initEv+0xe4>)
 800247c:	4e37      	ldr	r6, [pc, #220]	; (800255c <_ZN5Motor4initEv+0xe8>)
 800247e:	4604      	mov	r4, r0
 8002480:	4628      	mov	r0, r5
 8002482:	f000 ffb7 	bl	80033f4 <_ZN8Terminal4putsEPKc>
 8002486:	4628      	mov	r0, r5
 8002488:	4935      	ldr	r1, [pc, #212]	; (8002560 <_ZN5Motor4initEv+0xec>)
 800248a:	f000 ffb3 	bl	80033f4 <_ZN8Terminal4putsEPKc>
 800248e:	6862      	ldr	r2, [r4, #4]
 8002490:	6953      	ldr	r3, [r2, #20]
 8002492:	f043 0301 	orr.w	r3, r3, #1
 8002496:	6153      	str	r3, [r2, #20]
 8002498:	68a2      	ldr	r2, [r4, #8]
 800249a:	6953      	ldr	r3, [r2, #20]
 800249c:	f423 5380 	bic.w	r3, r3, #4096	; 0x1000
 80024a0:	6153      	str	r3, [r2, #20]
 80024a2:	6922      	ldr	r2, [r4, #16]
 80024a4:	6953      	ldr	r3, [r2, #20]
 80024a6:	f423 6380 	bic.w	r3, r3, #1024	; 0x400
 80024aa:	6153      	str	r3, [r2, #20]
 80024ac:	68e3      	ldr	r3, [r4, #12]
 80024ae:	6a5a      	ldr	r2, [r3, #36]	; 0x24
 80024b0:	f422 0270 	bic.w	r2, r2, #15728640	; 0xf00000
 80024b4:	625a      	str	r2, [r3, #36]	; 0x24
 80024b6:	6a5a      	ldr	r2, [r3, #36]	; 0x24
 80024b8:	f442 1280 	orr.w	r2, r2, #1048576	; 0x100000
 80024bc:	625a      	str	r2, [r3, #36]	; 0x24
 80024be:	6963      	ldr	r3, [r4, #20]
 80024c0:	6a5a      	ldr	r2, [r3, #36]	; 0x24
 80024c2:	f422 4270 	bic.w	r2, r2, #61440	; 0xf000
 80024c6:	625a      	str	r2, [r3, #36]	; 0x24
 80024c8:	6a5a      	ldr	r2, [r3, #36]	; 0x24
 80024ca:	2101      	movs	r1, #1
 80024cc:	f442 5280 	orr.w	r2, r2, #4096	; 0x1000
 80024d0:	625a      	str	r2, [r3, #36]	; 0x24
 80024d2:	4608      	mov	r0, r1
 80024d4:	f7fe fee6 	bl	80012a4 <RCC_APB2PeriphClockCmd>
 80024d8:	2500      	movs	r5, #0
 80024da:	f240 5245 	movw	r2, #1349	; 0x545
 80024de:	2708      	movs	r7, #8
 80024e0:	f44f 7380 	mov.w	r3, #256	; 0x100
 80024e4:	e9c4 230a 	strd	r2, r3, [r4, #40]	; 0x28
 80024e8:	f104 0120 	add.w	r1, r4, #32
 80024ec:	4630      	mov	r0, r6
 80024ee:	e9c4 7508 	strd	r7, r5, [r4, #32]
 80024f2:	6325      	str	r5, [r4, #48]	; 0x30
 80024f4:	f7fe f9d6 	bl	80008a4 <TIM_TimeBaseInit>
 80024f8:	4630      	mov	r0, r6
 80024fa:	2101      	movs	r1, #1
 80024fc:	f7fe fa66 	bl	80009cc <TIM_Cmd>
 8002500:	f04f 0801 	mov.w	r8, #1
 8002504:	2360      	movs	r3, #96	; 0x60
 8002506:	f104 0934 	add.w	r9, r4, #52	; 0x34
 800250a:	6363      	str	r3, [r4, #52]	; 0x34
 800250c:	4649      	mov	r1, r9
 800250e:	4630      	mov	r0, r6
 8002510:	6425      	str	r5, [r4, #64]	; 0x40
 8002512:	e9c4 850e 	strd	r8, r5, [r4, #56]	; 0x38
 8002516:	e9c4 5511 	strd	r5, r5, [r4, #68]	; 0x44
 800251a:	e9c4 5513 	strd	r5, r5, [r4, #76]	; 0x4c
 800251e:	f7fe fb53 	bl	8000bc8 <TIM_OC3Init>
 8002522:	4639      	mov	r1, r7
 8002524:	4630      	mov	r0, r6
 8002526:	f7fe fc2b 	bl	8000d80 <TIM_OC3PreloadConfig>
 800252a:	4649      	mov	r1, r9
 800252c:	4630      	mov	r0, r6
 800252e:	f7fe faa1 	bl	8000a74 <TIM_OC2Init>
 8002532:	4639      	mov	r1, r7
 8002534:	4630      	mov	r0, r6
 8002536:	f7fe fbe9 	bl	8000d0c <TIM_OC2PreloadConfig>
 800253a:	4641      	mov	r1, r8
 800253c:	4630      	mov	r0, r6
 800253e:	f7fe fc4f 	bl	8000de0 <TIM_CtrlPWMOutputs>
 8002542:	4629      	mov	r1, r5
 8002544:	4620      	mov	r0, r4
 8002546:	f7ff ff5d 	bl	8002404 <_ZN5Motor8run_leftEi>
 800254a:	4629      	mov	r1, r5
 800254c:	e8bd 43f8 	ldmia.w	sp!, {r3, r4, r5, r6, r7, r8, r9, lr}
 8002550:	f7ff bf74 	b.w	800243c <_ZN5Motor9run_rightEi>
 8002554:	20000268 	andcs	r0, r0, r8, ror #4
 8002558:	08003d58 	stmdaeq	r0, {r3, r4, r6, r8, sl, fp, ip, sp}
 800255c:	40010000 	andmi	r0, r1, r0
 8002560:	08003d68 	stmdaeq	r0, {r3, r5, r6, r8, sl, fp, ip, sp}

08002564 <_ZN7DriversD1Ev>:
 8002564:	4770      	bx	lr

08002566 <_ZN5ArrayIiLj8EED1Ev>:
 8002566:	4770      	bx	lr

08002568 <_ZN7DriversD0Ev>:
 8002568:	b510      	push	{r4, lr}
 800256a:	2108      	movs	r1, #8
 800256c:	4604      	mov	r4, r0
 800256e:	f7ff fd97 	bl	80020a0 <_ZdlPvj>
 8002572:	4620      	mov	r0, r4
 8002574:	bd10      	pop	{r4, pc}

08002576 <_ZN5ArrayIiLj8EED0Ev>:
 8002576:	b510      	push	{r4, lr}
 8002578:	2124      	movs	r1, #36	; 0x24
 800257a:	4604      	mov	r4, r0
 800257c:	f7ff fd90 	bl	80020a0 <_ZdlPvj>
 8002580:	4620      	mov	r0, r4
 8002582:	bd10      	pop	{r4, pc}

08002584 <_ZN4TI2CILh3ELh1ELh2ELh20ELh3EED1Ev>:
 8002584:	b510      	push	{r4, lr}
 8002586:	4b03      	ldr	r3, [pc, #12]	; (8002594 <_ZN4TI2CILh3ELh1ELh2ELh20ELh3EED1Ev+0x10>)
 8002588:	6003      	str	r3, [r0, #0]
 800258a:	4604      	mov	r4, r0
 800258c:	f7ff fd23 	bl	8001fd6 <_ZN13I2C_InterfaceD1Ev>
 8002590:	4620      	mov	r0, r4
 8002592:	bd10      	pop	{r4, pc}
 8002594:	08003d94 	stmdaeq	r0, {r2, r4, r7, r8, sl, fp, ip, sp}

08002598 <_ZN4TI2CILh3ELh1ELh2ELh20ELh3EED0Ev>:
 8002598:	b510      	push	{r4, lr}
 800259a:	4604      	mov	r4, r0
 800259c:	f7ff fff2 	bl	8002584 <_ZN4TI2CILh3ELh1ELh2ELh20ELh3EED1Ev>
 80025a0:	4620      	mov	r0, r4
 80025a2:	2110      	movs	r1, #16
 80025a4:	f7ff fd7c 	bl	80020a0 <_ZdlPvj>
 80025a8:	4620      	mov	r0, r4
 80025aa:	bd10      	pop	{r4, pc}

080025ac <_ZN8TerminallsEb>:
 80025ac:	b510      	push	{r4, lr}
 80025ae:	4604      	mov	r4, r0
 80025b0:	b121      	cbz	r1, 80025bc <_ZN8TerminallsEb+0x10>
 80025b2:	4903      	ldr	r1, [pc, #12]	; (80025c0 <_ZN8TerminallsEb+0x14>)
 80025b4:	f000 ff1e 	bl	80033f4 <_ZN8Terminal4putsEPKc>
 80025b8:	4620      	mov	r0, r4
 80025ba:	bd10      	pop	{r4, pc}
 80025bc:	4901      	ldr	r1, [pc, #4]	; (80025c4 <_ZN8TerminallsEb+0x18>)
 80025be:	e7f9      	b.n	80025b4 <_ZN8TerminallsEb+0x8>
 80025c0:	08003ecc 	stmdaeq	r0, {r2, r3, r6, r7, r9, sl, fp, ip, sp}
 80025c4:	08003ed1 	stmdaeq	r0, {r0, r4, r6, r7, r9, sl, fp, ip, sp}

080025c8 <_ZN7DriversC1Ev>:
 80025c8:	4910      	ldr	r1, [pc, #64]	; (800260c <_ZN7DriversC1Ev+0x44>)
 80025ca:	4b11      	ldr	r3, [pc, #68]	; (8002610 <_ZN7DriversC1Ev+0x48>)
 80025cc:	6003      	str	r3, [r0, #0]
 80025ce:	6b0b      	ldr	r3, [r1, #48]	; 0x30
 80025d0:	ea6f 2353 	mvn.w	r3, r3, lsr #9
 80025d4:	ea6f 2343 	mvn.w	r3, r3, lsl #9
 80025d8:	630b      	str	r3, [r1, #48]	; 0x30
 80025da:	4b0e      	ldr	r3, [pc, #56]	; (8002614 <_ZN7DriversC1Ev+0x4c>)
 80025dc:	6043      	str	r3, [r0, #4]
 80025de:	689a      	ldr	r2, [r3, #8]
 80025e0:	f422 3240 	bic.w	r2, r2, #196608	; 0x30000
 80025e4:	609a      	str	r2, [r3, #8]
 80025e6:	689a      	ldr	r2, [r3, #8]
 80025e8:	f442 3240 	orr.w	r2, r2, #196608	; 0x30000
 80025ec:	609a      	str	r2, [r3, #8]
 80025ee:	685a      	ldr	r2, [r3, #4]
 80025f0:	f422 7280 	bic.w	r2, r2, #256	; 0x100
 80025f4:	605a      	str	r2, [r3, #4]
 80025f6:	685a      	ldr	r2, [r3, #4]
 80025f8:	605a      	str	r2, [r3, #4]
 80025fa:	681a      	ldr	r2, [r3, #0]
 80025fc:	f422 3240 	bic.w	r2, r2, #196608	; 0x30000
 8002600:	601a      	str	r2, [r3, #0]
 8002602:	681a      	ldr	r2, [r3, #0]
 8002604:	f442 3280 	orr.w	r2, r2, #65536	; 0x10000
 8002608:	601a      	str	r2, [r3, #0]
 800260a:	4770      	bx	lr
 800260c:	40023800 	andmi	r3, r2, r0, lsl #16
 8002610:	08003ee0 	stmdaeq	r0, {r5, r6, r7, r9, sl, fp, ip, sp}
 8002614:	40020000 	andmi	r0, r2, r0

08002618 <_ZN4GpioILh0ELh8ELh0EE5writeEi>:
 8002618:	6803      	ldr	r3, [r0, #0]
 800261a:	695a      	ldr	r2, [r3, #20]
 800261c:	b119      	cbz	r1, 8002626 <_ZN4GpioILh0ELh8ELh0EE5writeEi+0xe>
 800261e:	f442 7280 	orr.w	r2, r2, #256	; 0x100
 8002622:	615a      	str	r2, [r3, #20]
 8002624:	4770      	bx	lr
 8002626:	f422 7280 	bic.w	r2, r2, #256	; 0x100
 800262a:	e7fa      	b.n	8002622 <_ZN4GpioILh0ELh8ELh0EE5writeEi+0xa>

0800262c <_ZN4GpioILh3ELh1ELh1EE8set_modeEh>:
 800262c:	b9b9      	cbnz	r1, 800265e <_ZN4GpioILh3ELh1ELh1EE8set_modeEh+0x32>
 800262e:	6803      	ldr	r3, [r0, #0]
 8002630:	689a      	ldr	r2, [r3, #8]
 8002632:	f022 020c 	bic.w	r2, r2, #12
 8002636:	609a      	str	r2, [r3, #8]
 8002638:	689a      	ldr	r2, [r3, #8]
 800263a:	f042 020c 	orr.w	r2, r2, #12
 800263e:	609a      	str	r2, [r3, #8]
 8002640:	685a      	ldr	r2, [r3, #4]
 8002642:	f022 0202 	bic.w	r2, r2, #2
 8002646:	605a      	str	r2, [r3, #4]
 8002648:	685a      	ldr	r2, [r3, #4]
 800264a:	605a      	str	r2, [r3, #4]
 800264c:	681a      	ldr	r2, [r3, #0]
 800264e:	f022 020c 	bic.w	r2, r2, #12
 8002652:	601a      	str	r2, [r3, #0]
 8002654:	681a      	ldr	r2, [r3, #0]
 8002656:	f042 0204 	orr.w	r2, r2, #4
 800265a:	601a      	str	r2, [r3, #0]
 800265c:	4770      	bx	lr
 800265e:	2901      	cmp	r1, #1
 8002660:	d10e      	bne.n	8002680 <_ZN4GpioILh3ELh1ELh1EE8set_modeEh+0x54>
 8002662:	6803      	ldr	r3, [r0, #0]
 8002664:	689a      	ldr	r2, [r3, #8]
 8002666:	f022 020c 	bic.w	r2, r2, #12
 800266a:	609a      	str	r2, [r3, #8]
 800266c:	689a      	ldr	r2, [r3, #8]
 800266e:	f042 020c 	orr.w	r2, r2, #12
 8002672:	609a      	str	r2, [r3, #8]
 8002674:	681a      	ldr	r2, [r3, #0]
 8002676:	f022 020c 	bic.w	r2, r2, #12
 800267a:	601a      	str	r2, [r3, #0]
 800267c:	681a      	ldr	r2, [r3, #0]
 800267e:	e7ec      	b.n	800265a <_ZN4GpioILh3ELh1ELh1EE8set_modeEh+0x2e>
 8002680:	2902      	cmp	r1, #2
 8002682:	d113      	bne.n	80026ac <_ZN4GpioILh3ELh1ELh1EE8set_modeEh+0x80>
 8002684:	6803      	ldr	r3, [r0, #0]
 8002686:	689a      	ldr	r2, [r3, #8]
 8002688:	f022 020c 	bic.w	r2, r2, #12
 800268c:	609a      	str	r2, [r3, #8]
 800268e:	689a      	ldr	r2, [r3, #8]
 8002690:	f042 020c 	orr.w	r2, r2, #12
 8002694:	609a      	str	r2, [r3, #8]
 8002696:	681a      	ldr	r2, [r3, #0]
 8002698:	f022 020c 	bic.w	r2, r2, #12
 800269c:	601a      	str	r2, [r3, #0]
 800269e:	681a      	ldr	r2, [r3, #0]
 80026a0:	601a      	str	r2, [r3, #0]
 80026a2:	68da      	ldr	r2, [r3, #12]
 80026a4:	f042 0204 	orr.w	r2, r2, #4
 80026a8:	60da      	str	r2, [r3, #12]
 80026aa:	4770      	bx	lr
 80026ac:	2905      	cmp	r1, #5
 80026ae:	d110      	bne.n	80026d2 <_ZN4GpioILh3ELh1ELh1EE8set_modeEh+0xa6>
 80026b0:	6803      	ldr	r3, [r0, #0]
 80026b2:	689a      	ldr	r2, [r3, #8]
 80026b4:	f022 020c 	bic.w	r2, r2, #12
 80026b8:	609a      	str	r2, [r3, #8]
 80026ba:	689a      	ldr	r2, [r3, #8]
 80026bc:	f042 020c 	orr.w	r2, r2, #12
 80026c0:	609a      	str	r2, [r3, #8]
 80026c2:	681a      	ldr	r2, [r3, #0]
 80026c4:	f022 020c 	bic.w	r2, r2, #12
 80026c8:	601a      	str	r2, [r3, #0]
 80026ca:	681a      	ldr	r2, [r3, #0]
 80026cc:	f042 0208 	orr.w	r2, r2, #8
 80026d0:	e7c3      	b.n	800265a <_ZN4GpioILh3ELh1ELh1EE8set_modeEh+0x2e>
 80026d2:	2904      	cmp	r1, #4
 80026d4:	d1c2      	bne.n	800265c <_ZN4GpioILh3ELh1ELh1EE8set_modeEh+0x30>
 80026d6:	6803      	ldr	r3, [r0, #0]
 80026d8:	681a      	ldr	r2, [r3, #0]
 80026da:	f022 020c 	bic.w	r2, r2, #12
 80026de:	601a      	str	r2, [r3, #0]
 80026e0:	681a      	ldr	r2, [r3, #0]
 80026e2:	f042 020c 	orr.w	r2, r2, #12
 80026e6:	e7b8      	b.n	800265a <_ZN4GpioILh3ELh1ELh1EE8set_modeEh+0x2e>

080026e8 <_ZN4GpioILh3ELh1ELh1EE4initEv>:
 80026e8:	4a06      	ldr	r2, [pc, #24]	; (8002704 <_ZN4GpioILh3ELh1ELh1EE4initEv+0x1c>)
 80026ea:	b508      	push	{r3, lr}
 80026ec:	6b13      	ldr	r3, [r2, #48]	; 0x30
 80026ee:	ea6f 2353 	mvn.w	r3, r3, lsr #9
 80026f2:	ea6f 2343 	mvn.w	r3, r3, lsl #9
 80026f6:	6313      	str	r3, [r2, #48]	; 0x30
 80026f8:	4b03      	ldr	r3, [pc, #12]	; (8002708 <_ZN4GpioILh3ELh1ELh1EE4initEv+0x20>)
 80026fa:	6003      	str	r3, [r0, #0]
 80026fc:	2101      	movs	r1, #1
 80026fe:	f7ff ff95 	bl	800262c <_ZN4GpioILh3ELh1ELh1EE8set_modeEh>
 8002702:	bd08      	pop	{r3, pc}
 8002704:	40023800 	andmi	r3, r2, r0, lsl #16
 8002708:	40020c00 	andmi	r0, r2, r0, lsl #24

0800270c <_ZN4GpioILh3ELh2ELh1EE8set_modeEh>:
 800270c:	b9b9      	cbnz	r1, 800273e <_ZN4GpioILh3ELh2ELh1EE8set_modeEh+0x32>
 800270e:	6803      	ldr	r3, [r0, #0]
 8002710:	689a      	ldr	r2, [r3, #8]
 8002712:	f022 0230 	bic.w	r2, r2, #48	; 0x30
 8002716:	609a      	str	r2, [r3, #8]
 8002718:	689a      	ldr	r2, [r3, #8]
 800271a:	f042 0230 	orr.w	r2, r2, #48	; 0x30
 800271e:	609a      	str	r2, [r3, #8]
 8002720:	685a      	ldr	r2, [r3, #4]
 8002722:	f022 0204 	bic.w	r2, r2, #4
 8002726:	605a      	str	r2, [r3, #4]
 8002728:	685a      	ldr	r2, [r3, #4]
 800272a:	605a      	str	r2, [r3, #4]
 800272c:	681a      	ldr	r2, [r3, #0]
 800272e:	f022 0230 	bic.w	r2, r2, #48	; 0x30
 8002732:	601a      	str	r2, [r3, #0]
 8002734:	681a      	ldr	r2, [r3, #0]
 8002736:	f042 0210 	orr.w	r2, r2, #16
 800273a:	601a      	str	r2, [r3, #0]
 800273c:	4770      	bx	lr
 800273e:	2901      	cmp	r1, #1
 8002740:	d10e      	bne.n	8002760 <_ZN4GpioILh3ELh2ELh1EE8set_modeEh+0x54>
 8002742:	6803      	ldr	r3, [r0, #0]
 8002744:	689a      	ldr	r2, [r3, #8]
 8002746:	f022 0230 	bic.w	r2, r2, #48	; 0x30
 800274a:	609a      	str	r2, [r3, #8]
 800274c:	689a      	ldr	r2, [r3, #8]
 800274e:	f042 0230 	orr.w	r2, r2, #48	; 0x30
 8002752:	609a      	str	r2, [r3, #8]
 8002754:	681a      	ldr	r2, [r3, #0]
 8002756:	f022 0230 	bic.w	r2, r2, #48	; 0x30
 800275a:	601a      	str	r2, [r3, #0]
 800275c:	681a      	ldr	r2, [r3, #0]
 800275e:	e7ec      	b.n	800273a <_ZN4GpioILh3ELh2ELh1EE8set_modeEh+0x2e>
 8002760:	2902      	cmp	r1, #2
 8002762:	d113      	bne.n	800278c <_ZN4GpioILh3ELh2ELh1EE8set_modeEh+0x80>
 8002764:	6803      	ldr	r3, [r0, #0]
 8002766:	689a      	ldr	r2, [r3, #8]
 8002768:	f022 0230 	bic.w	r2, r2, #48	; 0x30
 800276c:	609a      	str	r2, [r3, #8]
 800276e:	689a      	ldr	r2, [r3, #8]
 8002770:	f042 0230 	orr.w	r2, r2, #48	; 0x30
 8002774:	609a      	str	r2, [r3, #8]
 8002776:	681a      	ldr	r2, [r3, #0]
 8002778:	f022 0230 	bic.w	r2, r2, #48	; 0x30
 800277c:	601a      	str	r2, [r3, #0]
 800277e:	681a      	ldr	r2, [r3, #0]
 8002780:	601a      	str	r2, [r3, #0]
 8002782:	68da      	ldr	r2, [r3, #12]
 8002784:	f042 0210 	orr.w	r2, r2, #16
 8002788:	60da      	str	r2, [r3, #12]
 800278a:	4770      	bx	lr
 800278c:	2905      	cmp	r1, #5
 800278e:	d110      	bne.n	80027b2 <_ZN4GpioILh3ELh2ELh1EE8set_modeEh+0xa6>
 8002790:	6803      	ldr	r3, [r0, #0]
 8002792:	689a      	ldr	r2, [r3, #8]
 8002794:	f022 0230 	bic.w	r2, r2, #48	; 0x30
 8002798:	609a      	str	r2, [r3, #8]
 800279a:	689a      	ldr	r2, [r3, #8]
 800279c:	f042 0230 	orr.w	r2, r2, #48	; 0x30
 80027a0:	609a      	str	r2, [r3, #8]
 80027a2:	681a      	ldr	r2, [r3, #0]
 80027a4:	f022 0230 	bic.w	r2, r2, #48	; 0x30
 80027a8:	601a      	str	r2, [r3, #0]
 80027aa:	681a      	ldr	r2, [r3, #0]
 80027ac:	f042 0220 	orr.w	r2, r2, #32
 80027b0:	e7c3      	b.n	800273a <_ZN4GpioILh3ELh2ELh1EE8set_modeEh+0x2e>
 80027b2:	2904      	cmp	r1, #4
 80027b4:	d1c2      	bne.n	800273c <_ZN4GpioILh3ELh2ELh1EE8set_modeEh+0x30>
 80027b6:	6803      	ldr	r3, [r0, #0]
 80027b8:	681a      	ldr	r2, [r3, #0]
 80027ba:	f022 0230 	bic.w	r2, r2, #48	; 0x30
 80027be:	601a      	str	r2, [r3, #0]
 80027c0:	681a      	ldr	r2, [r3, #0]
 80027c2:	f042 0230 	orr.w	r2, r2, #48	; 0x30
 80027c6:	e7b8      	b.n	800273a <_ZN4GpioILh3ELh2ELh1EE8set_modeEh+0x2e>

080027c8 <_ZN4GpioILh3ELh2ELh1EE4initEv>:
 80027c8:	4a06      	ldr	r2, [pc, #24]	; (80027e4 <_ZN4GpioILh3ELh2ELh1EE4initEv+0x1c>)
 80027ca:	b508      	push	{r3, lr}
 80027cc:	6b13      	ldr	r3, [r2, #48]	; 0x30
 80027ce:	ea6f 2353 	mvn.w	r3, r3, lsr #9
 80027d2:	ea6f 2343 	mvn.w	r3, r3, lsl #9
 80027d6:	6313      	str	r3, [r2, #48]	; 0x30
 80027d8:	4b03      	ldr	r3, [pc, #12]	; (80027e8 <_ZN4GpioILh3ELh2ELh1EE4initEv+0x20>)
 80027da:	6003      	str	r3, [r0, #0]
 80027dc:	2101      	movs	r1, #1
 80027de:	f7ff ff95 	bl	800270c <_ZN4GpioILh3ELh2ELh1EE8set_modeEh>
 80027e2:	bd08      	pop	{r3, pc}
 80027e4:	40023800 	andmi	r3, r2, r0, lsl #16
 80027e8:	40020c00 	andmi	r0, r2, r0, lsl #24

080027ec <_ZN4TI2CILh3ELh1ELh2ELh20ELh3EE4initEv>:
 80027ec:	2314      	movs	r3, #20
 80027ee:	b510      	push	{r4, lr}
 80027f0:	6043      	str	r3, [r0, #4]
 80027f2:	4604      	mov	r4, r0
 80027f4:	3008      	adds	r0, #8
 80027f6:	f7ff ff77 	bl	80026e8 <_ZN4GpioILh3ELh1ELh1EE4initEv>
 80027fa:	f104 000c 	add.w	r0, r4, #12
 80027fe:	f7ff ffe3 	bl	80027c8 <_ZN4GpioILh3ELh2ELh1EE4initEv>
 8002802:	68a2      	ldr	r2, [r4, #8]
 8002804:	6953      	ldr	r3, [r2, #20]
 8002806:	f023 0302 	bic.w	r3, r3, #2
 800280a:	6153      	str	r3, [r2, #20]
 800280c:	68e2      	ldr	r2, [r4, #12]
 800280e:	6953      	ldr	r3, [r2, #20]
 8002810:	f023 0304 	bic.w	r3, r3, #4
 8002814:	6153      	str	r3, [r2, #20]
 8002816:	bd10      	pop	{r4, pc}

08002818 <_ZN7Drivers4initEv>:
 8002818:	e92d 41f0 	stmdb	sp!, {r4, r5, r6, r7, r8, lr}
 800281c:	4c45      	ldr	r4, [pc, #276]	; (8002934 <_ZN7Drivers4initEv+0x11c>)
 800281e:	4f46      	ldr	r7, [pc, #280]	; (8002938 <_ZN7Drivers4initEv+0x120>)
 8002820:	f8df 8178 	ldr.w	r8, [pc, #376]	; 800299c <_ZN7Drivers4initEv+0x184>
 8002824:	1d05      	adds	r5, r0, #4
 8002826:	4628      	mov	r0, r5
 8002828:	2101      	movs	r1, #1
 800282a:	f7ff fef5 	bl	8002618 <_ZN4GpioILh0ELh8ELh0EE5writeEi>
 800282e:	4620      	mov	r0, r4
 8002830:	f44f 31e1 	mov.w	r1, #115200	; 0x1c200
 8002834:	f7ff fcc2 	bl	80021bc <_ZN5Usart4initEj>
 8002838:	4620      	mov	r0, r4
 800283a:	4940      	ldr	r1, [pc, #256]	; (800293c <_ZN7Drivers4initEv+0x124>)
 800283c:	f000 fdda 	bl	80033f4 <_ZN8Terminal4putsEPKc>
 8002840:	493f      	ldr	r1, [pc, #252]	; (8002940 <_ZN7Drivers4initEv+0x128>)
 8002842:	4620      	mov	r0, r4
 8002844:	f000 fdd6 	bl	80033f4 <_ZN8Terminal4putsEPKc>
 8002848:	f7ff fc22 	bl	8002090 <_Z8mem_initv>
 800284c:	493d      	ldr	r1, [pc, #244]	; (8002944 <_ZN7Drivers4initEv+0x12c>)
 800284e:	4606      	mov	r6, r0
 8002850:	4620      	mov	r0, r4
 8002852:	f000 fdcf 	bl	80033f4 <_ZN8Terminal4putsEPKc>
 8002856:	4631      	mov	r1, r6
 8002858:	4e3b      	ldr	r6, [pc, #236]	; (8002948 <_ZN7Drivers4initEv+0x130>)
 800285a:	4620      	mov	r0, r4
 800285c:	f000 fdfe 	bl	800345c <_ZN8Terminal5putuiEm>
 8002860:	4631      	mov	r1, r6
 8002862:	4620      	mov	r0, r4
 8002864:	f000 fdc6 	bl	80033f4 <_ZN8Terminal4putsEPKc>
 8002868:	4638      	mov	r0, r7
 800286a:	f000 fc9b 	bl	80031a4 <_ZN5Timer4initEv>
 800286e:	4620      	mov	r0, r4
 8002870:	4936      	ldr	r1, [pc, #216]	; (800294c <_ZN7Drivers4initEv+0x134>)
 8002872:	f000 fdbf 	bl	80033f4 <_ZN8Terminal4putsEPKc>
 8002876:	4620      	mov	r0, r4
 8002878:	4935      	ldr	r1, [pc, #212]	; (8002950 <_ZN7Drivers4initEv+0x138>)
 800287a:	f000 fdbb 	bl	80033f4 <_ZN8Terminal4putsEPKc>
 800287e:	4638      	mov	r0, r7
 8002880:	21c8      	movs	r1, #200	; 0xc8
 8002882:	f000 fc03 	bl	800308c <_ZN5Timer8delay_msEj>
 8002886:	4933      	ldr	r1, [pc, #204]	; (8002954 <_ZN7Drivers4initEv+0x13c>)
 8002888:	4f33      	ldr	r7, [pc, #204]	; (8002958 <_ZN7Drivers4initEv+0x140>)
 800288a:	4620      	mov	r0, r4
 800288c:	f000 fdb2 	bl	80033f4 <_ZN8Terminal4putsEPKc>
 8002890:	4640      	mov	r0, r8
 8002892:	f7ff ffab 	bl	80027ec <_ZN4TI2CILh3ELh1ELh2ELh20ELh3EE4initEv>
 8002896:	4620      	mov	r0, r4
 8002898:	4930      	ldr	r1, [pc, #192]	; (800295c <_ZN7Drivers4initEv+0x144>)
 800289a:	f000 fdab 	bl	80033f4 <_ZN8Terminal4putsEPKc>
 800289e:	4641      	mov	r1, r8
 80028a0:	4638      	mov	r0, r7
 80028a2:	f001 f88f 	bl	80039c4 <_ZN3IMU4initER13I2C_Interface>
 80028a6:	492e      	ldr	r1, [pc, #184]	; (8002960 <_ZN7Drivers4initEv+0x148>)
 80028a8:	4620      	mov	r0, r4
 80028aa:	f000 fda3 	bl	80033f4 <_ZN8Terminal4putsEPKc>
 80028ae:	4638      	mov	r0, r7
 80028b0:	f001 f87d 	bl	80039ae <_ZN3IMU7presentEv>
 80028b4:	4601      	mov	r1, r0
 80028b6:	4620      	mov	r0, r4
 80028b8:	f7ff fe78 	bl	80025ac <_ZN8TerminallsEb>
 80028bc:	4631      	mov	r1, r6
 80028be:	f000 fd99 	bl	80033f4 <_ZN8Terminal4putsEPKc>
 80028c2:	4828      	ldr	r0, [pc, #160]	; (8002964 <_ZN7Drivers4initEv+0x14c>)
 80028c4:	f000 fa9a 	bl	8002dfc <_ZN9ADCDriver4initEv>
 80028c8:	4927      	ldr	r1, [pc, #156]	; (8002968 <_ZN7Drivers4initEv+0x150>)
 80028ca:	4620      	mov	r0, r4
 80028cc:	f000 fd92 	bl	80033f4 <_ZN8Terminal4putsEPKc>
 80028d0:	4826      	ldr	r0, [pc, #152]	; (800296c <_ZN7Drivers4initEv+0x154>)
 80028d2:	f000 fe23 	bl	800351c <_ZN10LineSensor4initEv>
 80028d6:	4926      	ldr	r1, [pc, #152]	; (8002970 <_ZN7Drivers4initEv+0x158>)
 80028d8:	4620      	mov	r0, r4
 80028da:	f000 fd8b 	bl	80033f4 <_ZN8Terminal4putsEPKc>
 80028de:	4825      	ldr	r0, [pc, #148]	; (8002974 <_ZN7Drivers4initEv+0x15c>)
 80028e0:	f000 fac6 	bl	8002e70 <_ZN14DistanceSensor4initEv>
 80028e4:	4924      	ldr	r1, [pc, #144]	; (8002978 <_ZN7Drivers4initEv+0x160>)
 80028e6:	4620      	mov	r0, r4
 80028e8:	f000 fd84 	bl	80033f4 <_ZN8Terminal4putsEPKc>
 80028ec:	4823      	ldr	r0, [pc, #140]	; (800297c <_ZN7Drivers4initEv+0x164>)
 80028ee:	f7ff fcdb 	bl	80022a8 <_ZN13EncoderSensor4initEv>
 80028f2:	4923      	ldr	r1, [pc, #140]	; (8002980 <_ZN7Drivers4initEv+0x168>)
 80028f4:	4620      	mov	r0, r4
 80028f6:	f000 fd7d 	bl	80033f4 <_ZN8Terminal4putsEPKc>
 80028fa:	4822      	ldr	r0, [pc, #136]	; (8002984 <_ZN7Drivers4initEv+0x16c>)
 80028fc:	f000 fd0c 	bl	8003318 <_ZN13MotorControll4initEv>
 8002900:	4921      	ldr	r1, [pc, #132]	; (8002988 <_ZN7Drivers4initEv+0x170>)
 8002902:	4620      	mov	r0, r4
 8002904:	f000 fd76 	bl	80033f4 <_ZN8Terminal4putsEPKc>
 8002908:	4820      	ldr	r0, [pc, #128]	; (800298c <_ZN7Drivers4initEv+0x174>)
 800290a:	f000 ff41 	bl	8003790 <_ZN3Key4initEv>
 800290e:	4620      	mov	r0, r4
 8002910:	491f      	ldr	r1, [pc, #124]	; (8002990 <_ZN7Drivers4initEv+0x178>)
 8002912:	f000 fd6f 	bl	80033f4 <_ZN8Terminal4putsEPKc>
 8002916:	4620      	mov	r0, r4
 8002918:	491e      	ldr	r1, [pc, #120]	; (8002994 <_ZN7Drivers4initEv+0x17c>)
 800291a:	f000 fd6b 	bl	80033f4 <_ZN8Terminal4putsEPKc>
 800291e:	4620      	mov	r0, r4
 8002920:	491d      	ldr	r1, [pc, #116]	; (8002998 <_ZN7Drivers4initEv+0x180>)
 8002922:	f000 fd67 	bl	80033f4 <_ZN8Terminal4putsEPKc>
 8002926:	4628      	mov	r0, r5
 8002928:	2100      	movs	r1, #0
 800292a:	f7ff fe75 	bl	8002618 <_ZN4GpioILh0ELh8ELh0EE5writeEi>
 800292e:	2000      	movs	r0, #0
 8002930:	e8bd 81f0 	ldmia.w	sp!, {r4, r5, r6, r7, r8, pc}
 8002934:	20000268 	andcs	r0, r0, r8, ror #4
 8002938:	2000026c 	andcs	r0, r0, ip, ror #4
 800293c:	08003dc5 	stmdaeq	r0, {r0, r2, r6, r7, r8, sl, fp, ip, sp}
 8002940:	08003dd1 	stmdaeq	r0, {r0, r4, r6, r7, r8, sl, fp, ip, sp}
 8002944:	08003de5 	stmdaeq	r0, {r0, r2, r5, r6, r7, r8, sl, fp, ip, sp}
 8002948:	08003dcf 	stmdaeq	r0, {r0, r1, r2, r3, r6, r7, r8, sl, fp, ip, sp}
 800294c:	08003e03 	stmdaeq	r0, {r0, r1, r9, sl, fp, ip, sp}
 8002950:	08003e14 	stmdaeq	r0, {r2, r4, r9, sl, fp, ip, sp}
 8002954:	08003cae 	stmdaeq	r0, {r1, r2, r3, r5, r7, sl, fp, ip, sp}
 8002958:	2000006c 	andcs	r0, r0, ip, rrx
 800295c:	08003ca5 	stmdaeq	r0, {r0, r2, r5, r7, sl, fp, ip, sp}
 8002960:	08003e22 	stmdaeq	r0, {r1, r5, r9, sl, fp, ip, sp}
 8002964:	20000014 	andcs	r0, r0, r4, lsl r0
 8002968:	08003e36 	stmdaeq	r0, {r1, r2, r4, r5, r9, sl, fp, ip, sp}
 800296c:	200000c8 	andcs	r0, r0, r8, asr #1
 8002970:	08003e45 	stmdaeq	r0, {r0, r2, r6, r9, sl, fp, ip, sp}
 8002974:	20000018 	andcs	r0, r0, r8, lsl r0
 8002978:	08003e5c 	stmdaeq	r0, {r2, r3, r4, r6, r9, sl, fp, ip, sp}
 800297c:	20000058 	andcs	r0, r0, r8, asr r0
 8002980:	08003e77 	stmdaeq	r0, {r0, r1, r2, r4, r5, r6, r9, sl, fp, ip, sp}
 8002984:	20000198 	mulcs	r0, r8, r1
 8002988:	08003e91 	stmdaeq	r0, {r0, r4, r7, r9, sl, fp, ip, sp}
 800298c:	200000b0 	strhcs	r0, [r0], -r0	; <UNPREDICTABLE>
 8002990:	08003eab 	stmdaeq	r0, {r0, r1, r3, r5, r7, r9, sl, fp, ip, sp}
 8002994:	08003dce 	stmdaeq	r0, {r1, r2, r3, r6, r7, r8, sl, fp, ip, sp}
 8002998:	08003eba 	stmdaeq	r0, {r1, r3, r4, r5, r7, r9, sl, fp, ip, sp}
 800299c:	2000005c 	andcs	r0, r0, ip, asr r0

080029a0 <_ZN4TI2CILh3ELh1ELh2ELh20ELh3EE4stopEv>:
 80029a0:	b570      	push	{r4, r5, r6, lr}
 80029a2:	4604      	mov	r4, r0
 80029a4:	f100 060c 	add.w	r6, r0, #12
 80029a8:	f104 0508 	add.w	r5, r4, #8
 80029ac:	4630      	mov	r0, r6
 80029ae:	2100      	movs	r1, #0
 80029b0:	f7ff feac 	bl	800270c <_ZN4GpioILh3ELh2ELh1EE8set_modeEh>
 80029b4:	4628      	mov	r0, r5
 80029b6:	2100      	movs	r1, #0
 80029b8:	f7ff fe38 	bl	800262c <_ZN4GpioILh3ELh1ELh1EE8set_modeEh>
 80029bc:	4630      	mov	r0, r6
 80029be:	2101      	movs	r1, #1
 80029c0:	f7ff fea4 	bl	800270c <_ZN4GpioILh3ELh2ELh1EE8set_modeEh>
 80029c4:	4628      	mov	r0, r5
 80029c6:	2100      	movs	r1, #0
 80029c8:	f7ff fe30 	bl	800262c <_ZN4GpioILh3ELh1ELh1EE8set_modeEh>
 80029cc:	4630      	mov	r0, r6
 80029ce:	2101      	movs	r1, #1
 80029d0:	f7ff fe9c 	bl	800270c <_ZN4GpioILh3ELh2ELh1EE8set_modeEh>
 80029d4:	4628      	mov	r0, r5
 80029d6:	2101      	movs	r1, #1
 80029d8:	f7ff fe28 	bl	800262c <_ZN4GpioILh3ELh1ELh1EE8set_modeEh>
 80029dc:	4620      	mov	r0, r4
 80029de:	e8bd 4070 	ldmia.w	sp!, {r4, r5, r6, lr}
 80029e2:	f7ff bb4c 	b.w	800207e <_ZN13I2C_Interface5delayEv>

080029e6 <_ZN4TI2CILh3ELh1ELh2ELh20ELh3EE5startEv>:
 80029e6:	b570      	push	{r4, r5, r6, lr}
 80029e8:	4604      	mov	r4, r0
 80029ea:	f100 060c 	add.w	r6, r0, #12
 80029ee:	f104 0508 	add.w	r5, r4, #8
 80029f2:	4630      	mov	r0, r6
 80029f4:	2101      	movs	r1, #1
 80029f6:	f7ff fe89 	bl	800270c <_ZN4GpioILh3ELh2ELh1EE8set_modeEh>
 80029fa:	4628      	mov	r0, r5
 80029fc:	2101      	movs	r1, #1
 80029fe:	f7ff fe15 	bl	800262c <_ZN4GpioILh3ELh1ELh1EE8set_modeEh>
 8002a02:	4630      	mov	r0, r6
 8002a04:	2101      	movs	r1, #1
 8002a06:	f7ff fe81 	bl	800270c <_ZN4GpioILh3ELh2ELh1EE8set_modeEh>
 8002a0a:	4628      	mov	r0, r5
 8002a0c:	2100      	movs	r1, #0
 8002a0e:	f7ff fe0d 	bl	800262c <_ZN4GpioILh3ELh1ELh1EE8set_modeEh>
 8002a12:	4630      	mov	r0, r6
 8002a14:	2100      	movs	r1, #0
 8002a16:	f7ff fe79 	bl	800270c <_ZN4GpioILh3ELh2ELh1EE8set_modeEh>
 8002a1a:	4628      	mov	r0, r5
 8002a1c:	2101      	movs	r1, #1
 8002a1e:	f7ff fe05 	bl	800262c <_ZN4GpioILh3ELh1ELh1EE8set_modeEh>
 8002a22:	4620      	mov	r0, r4
 8002a24:	e8bd 4070 	ldmia.w	sp!, {r4, r5, r6, lr}
 8002a28:	f7ff bb29 	b.w	800207e <_ZN13I2C_Interface5delayEv>

08002a2c <_ZN4TI2CILh3ELh1ELh2ELh20ELh3EE4readEh>:
 8002a2c:	e92d 43f8 	stmdb	sp!, {r3, r4, r5, r6, r7, r8, r9, lr}
 8002a30:	4604      	mov	r4, r0
 8002a32:	f100 0808 	add.w	r8, r0, #8
 8002a36:	4640      	mov	r0, r8
 8002a38:	4689      	mov	r9, r1
 8002a3a:	f104 070c 	add.w	r7, r4, #12
 8002a3e:	2101      	movs	r1, #1
 8002a40:	f7ff fdf4 	bl	800262c <_ZN4GpioILh3ELh1ELh1EE8set_modeEh>
 8002a44:	2100      	movs	r1, #0
 8002a46:	4638      	mov	r0, r7
 8002a48:	f7ff fe60 	bl	800270c <_ZN4GpioILh3ELh2ELh1EE8set_modeEh>
 8002a4c:	4620      	mov	r0, r4
 8002a4e:	f7ff fb16 	bl	800207e <_ZN13I2C_Interface5delayEv>
 8002a52:	2608      	movs	r6, #8
 8002a54:	2500      	movs	r5, #0
 8002a56:	2101      	movs	r1, #1
 8002a58:	4638      	mov	r0, r7
 8002a5a:	f7ff fe57 	bl	800270c <_ZN4GpioILh3ELh2ELh1EE8set_modeEh>
 8002a5e:	4620      	mov	r0, r4
 8002a60:	f7ff fb0d 	bl	800207e <_ZN13I2C_Interface5delayEv>
 8002a64:	68a3      	ldr	r3, [r4, #8]
 8002a66:	691b      	ldr	r3, [r3, #16]
 8002a68:	006d      	lsls	r5, r5, #1
 8002a6a:	079b      	lsls	r3, r3, #30
 8002a6c:	f04f 0100 	mov.w	r1, #0
 8002a70:	4638      	mov	r0, r7
 8002a72:	b2ed      	uxtb	r5, r5
 8002a74:	bf48      	it	mi
 8002a76:	f045 0501 	orrmi.w	r5, r5, #1
 8002a7a:	3e01      	subs	r6, #1
 8002a7c:	f7ff fe46 	bl	800270c <_ZN4GpioILh3ELh2ELh1EE8set_modeEh>
 8002a80:	4620      	mov	r0, r4
 8002a82:	f7ff fafc 	bl	800207e <_ZN13I2C_Interface5delayEv>
 8002a86:	f016 06ff 	ands.w	r6, r6, #255	; 0xff
 8002a8a:	d1e4      	bne.n	8002a56 <_ZN4TI2CILh3ELh1ELh2ELh20ELh3EE4readEh+0x2a>
 8002a8c:	f1b9 0f00 	cmp.w	r9, #0
 8002a90:	d01e      	beq.n	8002ad0 <_ZN4TI2CILh3ELh1ELh2ELh20ELh3EE4readEh+0xa4>
 8002a92:	4631      	mov	r1, r6
 8002a94:	4640      	mov	r0, r8
 8002a96:	f7ff fdc9 	bl	800262c <_ZN4GpioILh3ELh1ELh1EE8set_modeEh>
 8002a9a:	4620      	mov	r0, r4
 8002a9c:	f7ff faef 	bl	800207e <_ZN13I2C_Interface5delayEv>
 8002aa0:	2101      	movs	r1, #1
 8002aa2:	4638      	mov	r0, r7
 8002aa4:	f7ff fe32 	bl	800270c <_ZN4GpioILh3ELh2ELh1EE8set_modeEh>
 8002aa8:	4620      	mov	r0, r4
 8002aaa:	f7ff fae8 	bl	800207e <_ZN13I2C_Interface5delayEv>
 8002aae:	2100      	movs	r1, #0
 8002ab0:	4638      	mov	r0, r7
 8002ab2:	f7ff fe2b 	bl	800270c <_ZN4GpioILh3ELh2ELh1EE8set_modeEh>
 8002ab6:	4620      	mov	r0, r4
 8002ab8:	f7ff fae1 	bl	800207e <_ZN13I2C_Interface5delayEv>
 8002abc:	2101      	movs	r1, #1
 8002abe:	4640      	mov	r0, r8
 8002ac0:	f7ff fdb4 	bl	800262c <_ZN4GpioILh3ELh1ELh1EE8set_modeEh>
 8002ac4:	4620      	mov	r0, r4
 8002ac6:	f7ff fada 	bl	800207e <_ZN13I2C_Interface5delayEv>
 8002aca:	4628      	mov	r0, r5
 8002acc:	e8bd 83f8 	ldmia.w	sp!, {r3, r4, r5, r6, r7, r8, r9, pc}
 8002ad0:	2101      	movs	r1, #1
 8002ad2:	e7df      	b.n	8002a94 <_ZN4TI2CILh3ELh1ELh2ELh20ELh3EE4readEh+0x68>

08002ad4 <_ZN4TI2CILh3ELh1ELh2ELh20ELh3EE5writeEh>:
 8002ad4:	e92d 41f0 	stmdb	sp!, {r4, r5, r6, r7, r8, lr}
 8002ad8:	2508      	movs	r5, #8
 8002ada:	4604      	mov	r4, r0
 8002adc:	460f      	mov	r7, r1
 8002ade:	eb00 0805 	add.w	r8, r0, r5
 8002ae2:	f104 060c 	add.w	r6, r4, #12
 8002ae6:	2100      	movs	r1, #0
 8002ae8:	4630      	mov	r0, r6
 8002aea:	f7ff fe0f 	bl	800270c <_ZN4GpioILh3ELh2ELh1EE8set_modeEh>
 8002aee:	4620      	mov	r0, r4
 8002af0:	f7ff fac5 	bl	800207e <_ZN13I2C_Interface5delayEv>
 8002af4:	063b      	lsls	r3, r7, #24
 8002af6:	bf4c      	ite	mi
 8002af8:	2101      	movmi	r1, #1
 8002afa:	2100      	movpl	r1, #0
 8002afc:	4640      	mov	r0, r8
 8002afe:	f7ff fd95 	bl	800262c <_ZN4GpioILh3ELh1ELh1EE8set_modeEh>
 8002b02:	4620      	mov	r0, r4
 8002b04:	f7ff fabb 	bl	800207e <_ZN13I2C_Interface5delayEv>
 8002b08:	2101      	movs	r1, #1
 8002b0a:	4630      	mov	r0, r6
 8002b0c:	f7ff fdfe 	bl	800270c <_ZN4GpioILh3ELh2ELh1EE8set_modeEh>
 8002b10:	3d01      	subs	r5, #1
 8002b12:	4620      	mov	r0, r4
 8002b14:	f7ff fab3 	bl	800207e <_ZN13I2C_Interface5delayEv>
 8002b18:	007f      	lsls	r7, r7, #1
 8002b1a:	f015 05ff 	ands.w	r5, r5, #255	; 0xff
 8002b1e:	b2ff      	uxtb	r7, r7
 8002b20:	d1df      	bne.n	8002ae2 <_ZN4TI2CILh3ELh1ELh2ELh20ELh3EE5writeEh+0xe>
 8002b22:	4629      	mov	r1, r5
 8002b24:	4630      	mov	r0, r6
 8002b26:	f7ff fdf1 	bl	800270c <_ZN4GpioILh3ELh2ELh1EE8set_modeEh>
 8002b2a:	4620      	mov	r0, r4
 8002b2c:	f7ff faa7 	bl	800207e <_ZN13I2C_Interface5delayEv>
 8002b30:	2101      	movs	r1, #1
 8002b32:	4640      	mov	r0, r8
 8002b34:	f7ff fd7a 	bl	800262c <_ZN4GpioILh3ELh1ELh1EE8set_modeEh>
 8002b38:	4620      	mov	r0, r4
 8002b3a:	f7ff faa0 	bl	800207e <_ZN13I2C_Interface5delayEv>
 8002b3e:	2101      	movs	r1, #1
 8002b40:	4630      	mov	r0, r6
 8002b42:	f7ff fde3 	bl	800270c <_ZN4GpioILh3ELh2ELh1EE8set_modeEh>
 8002b46:	4620      	mov	r0, r4
 8002b48:	f7ff fa99 	bl	800207e <_ZN13I2C_Interface5delayEv>
 8002b4c:	68a3      	ldr	r3, [r4, #8]
 8002b4e:	4629      	mov	r1, r5
 8002b50:	691f      	ldr	r7, [r3, #16]
 8002b52:	4630      	mov	r0, r6
 8002b54:	f7ff fdda 	bl	800270c <_ZN4GpioILh3ELh2ELh1EE8set_modeEh>
 8002b58:	4620      	mov	r0, r4
 8002b5a:	f7ff fa90 	bl	800207e <_ZN13I2C_Interface5delayEv>
 8002b5e:	f087 0002 	eor.w	r0, r7, #2
 8002b62:	f3c0 0040 	ubfx	r0, r0, #1, #1
 8002b66:	e8bd 81f0 	ldmia.w	sp!, {r4, r5, r6, r7, r8, pc}
 8002b6a:	0000      	movs	r0, r0

08002b6c <_GLOBAL__sub_I_drivers>:
 8002b6c:	b538      	push	{r3, r4, r5, lr}
 8002b6e:	4d38      	ldr	r5, [pc, #224]	; (8002c50 <_GLOBAL__sub_I_drivers+0xe4>)
 8002b70:	4c38      	ldr	r4, [pc, #224]	; (8002c54 <_GLOBAL__sub_I_drivers+0xe8>)
 8002b72:	4628      	mov	r0, r5
 8002b74:	f7ff fd28 	bl	80025c8 <_ZN7DriversC1Ev>
 8002b78:	4628      	mov	r0, r5
 8002b7a:	4d37      	ldr	r5, [pc, #220]	; (8002c58 <_GLOBAL__sub_I_drivers+0xec>)
 8002b7c:	4937      	ldr	r1, [pc, #220]	; (8002c5c <_GLOBAL__sub_I_drivers+0xf0>)
 8002b7e:	4622      	mov	r2, r4
 8002b80:	f7ff fa8f 	bl	80020a2 <__aeabi_atexit>
 8002b84:	4628      	mov	r0, r5
 8002b86:	f000 fc2b 	bl	80033e0 <_ZN8TerminalC1Ev>
 8002b8a:	4628      	mov	r0, r5
 8002b8c:	4d34      	ldr	r5, [pc, #208]	; (8002c60 <_GLOBAL__sub_I_drivers+0xf4>)
 8002b8e:	4935      	ldr	r1, [pc, #212]	; (8002c64 <_GLOBAL__sub_I_drivers+0xf8>)
 8002b90:	4622      	mov	r2, r4
 8002b92:	f7ff fa86 	bl	80020a2 <__aeabi_atexit>
 8002b96:	4628      	mov	r0, r5
 8002b98:	f000 fa36 	bl	8003008 <_ZN5TimerC1Ev>
 8002b9c:	4628      	mov	r0, r5
 8002b9e:	4d32      	ldr	r5, [pc, #200]	; (8002c68 <_GLOBAL__sub_I_drivers+0xfc>)
 8002ba0:	4932      	ldr	r1, [pc, #200]	; (8002c6c <_GLOBAL__sub_I_drivers+0x100>)
 8002ba2:	4622      	mov	r2, r4
 8002ba4:	f7ff fa7d 	bl	80020a2 <__aeabi_atexit>
 8002ba8:	4628      	mov	r0, r5
 8002baa:	f7ff fa1d 	bl	8001fe8 <_ZN13I2C_InterfaceC1Ev>
 8002bae:	4628      	mov	r0, r5
 8002bb0:	4b2f      	ldr	r3, [pc, #188]	; (8002c70 <_GLOBAL__sub_I_drivers+0x104>)
 8002bb2:	f840 3b08 	str.w	r3, [r0], #8
 8002bb6:	f7ff fd97 	bl	80026e8 <_ZN4GpioILh3ELh1ELh1EE4initEv>
 8002bba:	f105 000c 	add.w	r0, r5, #12
 8002bbe:	f7ff fe03 	bl	80027c8 <_ZN4GpioILh3ELh2ELh1EE4initEv>
 8002bc2:	4628      	mov	r0, r5
 8002bc4:	4d2b      	ldr	r5, [pc, #172]	; (8002c74 <_GLOBAL__sub_I_drivers+0x108>)
 8002bc6:	492c      	ldr	r1, [pc, #176]	; (8002c78 <_GLOBAL__sub_I_drivers+0x10c>)
 8002bc8:	4622      	mov	r2, r4
 8002bca:	f7ff fa6a 	bl	80020a2 <__aeabi_atexit>
 8002bce:	4628      	mov	r0, r5
 8002bd0:	f000 fe26 	bl	8003820 <_ZN3IMUC1Ev>
 8002bd4:	4628      	mov	r0, r5
 8002bd6:	4d29      	ldr	r5, [pc, #164]	; (8002c7c <_GLOBAL__sub_I_drivers+0x110>)
 8002bd8:	4929      	ldr	r1, [pc, #164]	; (8002c80 <_GLOBAL__sub_I_drivers+0x114>)
 8002bda:	4622      	mov	r2, r4
 8002bdc:	f7ff fa61 	bl	80020a2 <__aeabi_atexit>
 8002be0:	4628      	mov	r0, r5
 8002be2:	f000 f86d 	bl	8002cc0 <_ZN9ADCDriverC1Ev>
 8002be6:	4628      	mov	r0, r5
 8002be8:	4d26      	ldr	r5, [pc, #152]	; (8002c84 <_GLOBAL__sub_I_drivers+0x118>)
 8002bea:	4927      	ldr	r1, [pc, #156]	; (8002c88 <_GLOBAL__sub_I_drivers+0x11c>)
 8002bec:	4622      	mov	r2, r4
 8002bee:	f7ff fa58 	bl	80020a2 <__aeabi_atexit>
 8002bf2:	4628      	mov	r0, r5
 8002bf4:	f000 fc5e 	bl	80034b4 <_ZN10LineSensorC1Ev>
 8002bf8:	4628      	mov	r0, r5
 8002bfa:	4d24      	ldr	r5, [pc, #144]	; (8002c8c <_GLOBAL__sub_I_drivers+0x120>)
 8002bfc:	4924      	ldr	r1, [pc, #144]	; (8002c90 <_GLOBAL__sub_I_drivers+0x124>)
 8002bfe:	4622      	mov	r2, r4
 8002c00:	f7ff fa4f 	bl	80020a2 <__aeabi_atexit>
 8002c04:	4628      	mov	r0, r5
 8002c06:	f000 f90b 	bl	8002e20 <_ZN14DistanceSensorC1Ev>
 8002c0a:	4628      	mov	r0, r5
 8002c0c:	4d21      	ldr	r5, [pc, #132]	; (8002c94 <_GLOBAL__sub_I_drivers+0x128>)
 8002c0e:	4922      	ldr	r1, [pc, #136]	; (8002c98 <_GLOBAL__sub_I_drivers+0x12c>)
 8002c10:	4622      	mov	r2, r4
 8002c12:	f7ff fa46 	bl	80020a2 <__aeabi_atexit>
 8002c16:	4628      	mov	r0, r5
 8002c18:	f7ff fb40 	bl	800229c <_ZN13EncoderSensorC1Ev>
 8002c1c:	4628      	mov	r0, r5
 8002c1e:	4d1f      	ldr	r5, [pc, #124]	; (8002c9c <_GLOBAL__sub_I_drivers+0x130>)
 8002c20:	491f      	ldr	r1, [pc, #124]	; (8002ca0 <_GLOBAL__sub_I_drivers+0x134>)
 8002c22:	4622      	mov	r2, r4
 8002c24:	f7ff fa3d 	bl	80020a2 <__aeabi_atexit>
 8002c28:	4628      	mov	r0, r5
 8002c2a:	f000 fb55 	bl	80032d8 <_ZN13MotorControllC1Ev>
 8002c2e:	4628      	mov	r0, r5
 8002c30:	4d1c      	ldr	r5, [pc, #112]	; (8002ca4 <_GLOBAL__sub_I_drivers+0x138>)
 8002c32:	491d      	ldr	r1, [pc, #116]	; (8002ca8 <_GLOBAL__sub_I_drivers+0x13c>)
 8002c34:	4622      	mov	r2, r4
 8002c36:	f7ff fa34 	bl	80020a2 <__aeabi_atexit>
 8002c3a:	4628      	mov	r0, r5
 8002c3c:	f000 fd66 	bl	800370c <_ZN3KeyC1Ev>
 8002c40:	4622      	mov	r2, r4
 8002c42:	4628      	mov	r0, r5
 8002c44:	4919      	ldr	r1, [pc, #100]	; (8002cac <_GLOBAL__sub_I_drivers+0x140>)
 8002c46:	e8bd 4038 	ldmia.w	sp!, {r3, r4, r5, lr}
 8002c4a:	f7ff ba2a 	b.w	80020a2 <__aeabi_atexit>
 8002c4e:	bf00      	nop
 8002c50:	20000050 	andcs	r0, r0, r0, asr r0
 8002c54:	20000008 	andcs	r0, r0, r8
 8002c58:	20000268 	andcs	r0, r0, r8, ror #4
 8002c5c:	08002565 	stmdaeq	r0, {r0, r2, r5, r6, r8, sl, sp}
 8002c60:	2000026c 	andcs	r0, r0, ip, ror #4
 8002c64:	080033b9 	stmdaeq	r0, {r0, r3, r4, r5, r7, r8, r9, ip, sp}
 8002c68:	2000005c 	andcs	r0, r0, ip, asr r0
 8002c6c:	0800300b 	stmdaeq	r0, {r0, r1, r3, ip, sp}
 8002c70:	08003d94 	stmdaeq	r0, {r2, r4, r7, r8, sl, fp, ip, sp}
 8002c74:	2000006c 	andcs	r0, r0, ip, rrx
 8002c78:	08002585 	stmdaeq	r0, {r0, r2, r7, r8, sl, sp}
 8002c7c:	20000014 	andcs	r0, r0, r4, lsl r0
 8002c80:	08003811 	stmdaeq	r0, {r0, r4, fp, ip, sp}
 8002c84:	200000c8 	andcs	r0, r0, r8, asr #1
 8002c88:	08002cb1 	stmdaeq	r0, {r0, r4, r5, r7, sl, fp, sp}
 8002c8c:	20000018 	andcs	r0, r0, r8, lsl r0
 8002c90:	08003495 	stmdaeq	r0, {r0, r2, r4, r7, sl, ip, sp}
 8002c94:	20000058 	andcs	r0, r0, r8, asr r0
 8002c98:	08002e0f 	stmdaeq	r0, {r0, r1, r2, r3, r9, sl, fp, sp}
 8002c9c:	20000198 	mulcs	r0, r8, r1
 8002ca0:	0800228d 	stmdaeq	r0, {r0, r2, r3, r7, r9, sp}
 8002ca4:	200000b0 	strhcs	r0, [r0], -r0	; <UNPREDICTABLE>
 8002ca8:	0800337d 	stmdaeq	r0, {r0, r2, r3, r4, r5, r6, r8, r9, ip, sp}
 8002cac:	080036dd 	stmdaeq	r0, {r0, r2, r3, r4, r6, r7, r9, sl, ip, sp}

08002cb0 <_ZN9ADCDriverD1Ev>:
 8002cb0:	4770      	bx	lr

08002cb2 <_ZN9ADCDriverD0Ev>:
 8002cb2:	b510      	push	{r4, lr}
 8002cb4:	2104      	movs	r1, #4
 8002cb6:	4604      	mov	r4, r0
 8002cb8:	f7ff f9f2 	bl	80020a0 <_ZdlPvj>
 8002cbc:	4620      	mov	r0, r4
 8002cbe:	bd10      	pop	{r4, pc}

08002cc0 <_ZN9ADCDriverC1Ev>:
 8002cc0:	4b01      	ldr	r3, [pc, #4]	; (8002cc8 <_ZN9ADCDriverC1Ev+0x8>)
 8002cc2:	6003      	str	r3, [r0, #0]
 8002cc4:	4770      	bx	lr
 8002cc6:	bf00      	nop
 8002cc8:	08003ef0 	stmdaeq	r0, {r4, r5, r6, r7, r9, sl, fp, ip, sp}

08002ccc <_ZN9ADCDriver4readEj>:
 8002ccc:	b508      	push	{r3, lr}
 8002cce:	2301      	movs	r3, #1
 8002cd0:	4808      	ldr	r0, [pc, #32]	; (8002cf4 <_ZN9ADCDriver4readEj+0x28>)
 8002cd2:	461a      	mov	r2, r3
 8002cd4:	b2c9      	uxtb	r1, r1
 8002cd6:	f7fd fd09 	bl	80006ec <ADC_RegularChannelConfig>
 8002cda:	4806      	ldr	r0, [pc, #24]	; (8002cf4 <_ZN9ADCDriver4readEj+0x28>)
 8002cdc:	f7fd fd7e 	bl	80007dc <ADC_SoftwareStartConv>
 8002ce0:	2102      	movs	r1, #2
 8002ce2:	4804      	ldr	r0, [pc, #16]	; (8002cf4 <_ZN9ADCDriver4readEj+0x28>)
 8002ce4:	f7fd fdb0 	bl	8000848 <ADC_GetFlagStatus>
 8002ce8:	2800      	cmp	r0, #0
 8002cea:	d0f9      	beq.n	8002ce0 <_ZN9ADCDriver4readEj+0x14>
 8002cec:	4801      	ldr	r0, [pc, #4]	; (8002cf4 <_ZN9ADCDriver4readEj+0x28>)
 8002cee:	f7fd fd91 	bl	8000814 <ADC_GetConversionValue>
 8002cf2:	bd08      	pop	{r3, pc}
 8002cf4:	40012000 	andmi	r2, r1, r0

08002cf8 <_ZN9ADCDriver8adc_initEv>:
 8002cf8:	b530      	push	{r4, r5, lr}
 8002cfa:	4c11      	ldr	r4, [pc, #68]	; (8002d40 <_ZN9ADCDriver8adc_initEv+0x48>)
 8002cfc:	b087      	sub	sp, #28
 8002cfe:	2101      	movs	r1, #1
 8002d00:	f44f 7080 	mov.w	r0, #256	; 0x100
 8002d04:	f7fe face 	bl	80012a4 <RCC_APB2PeriphClockCmd>
 8002d08:	2501      	movs	r5, #1
 8002d0a:	2300      	movs	r3, #0
 8002d0c:	4669      	mov	r1, sp
 8002d0e:	4620      	mov	r0, r4
 8002d10:	f88d 3004 	strb.w	r3, [sp, #4]
 8002d14:	9300      	str	r3, [sp, #0]
 8002d16:	f88d 3005 	strb.w	r3, [sp, #5]
 8002d1a:	e9cd 3302 	strd	r3, r3, [sp, #8]
 8002d1e:	9304      	str	r3, [sp, #16]
 8002d20:	f88d 5014 	strb.w	r5, [sp, #20]
 8002d24:	f7fd fc38 	bl	8000598 <ADC_Init>
 8002d28:	4629      	mov	r1, r5
 8002d2a:	4620      	mov	r0, r4
 8002d2c:	f7fd fcb4 	bl	8000698 <ADC_Cmd>
 8002d30:	462b      	mov	r3, r5
 8002d32:	462a      	mov	r2, r5
 8002d34:	210b      	movs	r1, #11
 8002d36:	4620      	mov	r0, r4
 8002d38:	f7fd fcd8 	bl	80006ec <ADC_RegularChannelConfig>
 8002d3c:	b007      	add	sp, #28
 8002d3e:	bd30      	pop	{r4, r5, pc}
 8002d40:	40012000 	andmi	r2, r1, r0

08002d44 <_ZN9ADCDriver9gpio_initEv>:
 8002d44:	b5f7      	push	{r0, r1, r2, r4, r5, r6, r7, lr}
 8002d46:	4a2a      	ldr	r2, [pc, #168]	; (8002df0 <_ZN9ADCDriver9gpio_initEv+0xac>)
 8002d48:	4c2a      	ldr	r4, [pc, #168]	; (8002df4 <_ZN9ADCDriver9gpio_initEv+0xb0>)
 8002d4a:	6b13      	ldr	r3, [r2, #48]	; 0x30
 8002d4c:	f043 0307 	orr.w	r3, r3, #7
 8002d50:	6313      	str	r3, [r2, #48]	; 0x30
 8002d52:	2303      	movs	r3, #3
 8002d54:	f88d 3004 	strb.w	r3, [sp, #4]
 8002d58:	2502      	movs	r5, #2
 8002d5a:	2300      	movs	r3, #0
 8002d5c:	4669      	mov	r1, sp
 8002d5e:	4620      	mov	r0, r4
 8002d60:	f88d 3007 	strb.w	r3, [sp, #7]
 8002d64:	9500      	str	r5, [sp, #0]
 8002d66:	f7fd fad7 	bl	8000318 <GPIO_Init>
 8002d6a:	2304      	movs	r3, #4
 8002d6c:	4669      	mov	r1, sp
 8002d6e:	4620      	mov	r0, r4
 8002d70:	9300      	str	r3, [sp, #0]
 8002d72:	f7fd fad1 	bl	8000318 <GPIO_Init>
 8002d76:	2308      	movs	r3, #8
 8002d78:	4669      	mov	r1, sp
 8002d7a:	4620      	mov	r0, r4
 8002d7c:	9300      	str	r3, [sp, #0]
 8002d7e:	2610      	movs	r6, #16
 8002d80:	f7fd faca 	bl	8000318 <GPIO_Init>
 8002d84:	4669      	mov	r1, sp
 8002d86:	4620      	mov	r0, r4
 8002d88:	9600      	str	r6, [sp, #0]
 8002d8a:	f7fd fac5 	bl	8000318 <GPIO_Init>
 8002d8e:	2340      	movs	r3, #64	; 0x40
 8002d90:	4669      	mov	r1, sp
 8002d92:	4620      	mov	r0, r4
 8002d94:	9300      	str	r3, [sp, #0]
 8002d96:	f7fd fabf 	bl	8000318 <GPIO_Init>
 8002d9a:	2380      	movs	r3, #128	; 0x80
 8002d9c:	4669      	mov	r1, sp
 8002d9e:	4620      	mov	r0, r4
 8002da0:	9300      	str	r3, [sp, #0]
 8002da2:	f7fd fab9 	bl	8000318 <GPIO_Init>
 8002da6:	9600      	str	r6, [sp, #0]
 8002da8:	4e13      	ldr	r6, [pc, #76]	; (8002df8 <_ZN9ADCDriver9gpio_initEv+0xb4>)
 8002daa:	4669      	mov	r1, sp
 8002dac:	4630      	mov	r0, r6
 8002dae:	f7fd fab3 	bl	8000318 <GPIO_Init>
 8002db2:	2720      	movs	r7, #32
 8002db4:	4669      	mov	r1, sp
 8002db6:	4630      	mov	r0, r6
 8002db8:	9700      	str	r7, [sp, #0]
 8002dba:	2601      	movs	r6, #1
 8002dbc:	f7fd faac 	bl	8000318 <GPIO_Init>
 8002dc0:	4669      	mov	r1, sp
 8002dc2:	4620      	mov	r0, r4
 8002dc4:	9600      	str	r6, [sp, #0]
 8002dc6:	f7fd faa7 	bl	8000318 <GPIO_Init>
 8002dca:	4669      	mov	r1, sp
 8002dcc:	4620      	mov	r0, r4
 8002dce:	f504 6480 	add.w	r4, r4, #1024	; 0x400
 8002dd2:	9700      	str	r7, [sp, #0]
 8002dd4:	f7fd faa0 	bl	8000318 <GPIO_Init>
 8002dd8:	4669      	mov	r1, sp
 8002dda:	4620      	mov	r0, r4
 8002ddc:	9600      	str	r6, [sp, #0]
 8002dde:	f7fd fa9b 	bl	8000318 <GPIO_Init>
 8002de2:	4669      	mov	r1, sp
 8002de4:	4620      	mov	r0, r4
 8002de6:	9500      	str	r5, [sp, #0]
 8002de8:	f7fd fa96 	bl	8000318 <GPIO_Init>
 8002dec:	b003      	add	sp, #12
 8002dee:	bdf0      	pop	{r4, r5, r6, r7, pc}
 8002df0:	40023800 	andmi	r3, r2, r0, lsl #16
 8002df4:	40020000 	andmi	r0, r2, r0
 8002df8:	40020800 	andmi	r0, r2, r0, lsl #16

08002dfc <_ZN9ADCDriver4initEv>:
 8002dfc:	b510      	push	{r4, lr}
 8002dfe:	4604      	mov	r4, r0
 8002e00:	f7ff ffa0 	bl	8002d44 <_ZN9ADCDriver9gpio_initEv>
 8002e04:	4620      	mov	r0, r4
 8002e06:	e8bd 4010 	ldmia.w	sp!, {r4, lr}
 8002e0a:	f7ff bf75 	b.w	8002cf8 <_ZN9ADCDriver8adc_initEv>

08002e0e <_ZN14DistanceSensorD1Ev>:
 8002e0e:	4770      	bx	lr

08002e10 <_ZN14DistanceSensorD0Ev>:
 8002e10:	b510      	push	{r4, lr}
 8002e12:	2138      	movs	r1, #56	; 0x38
 8002e14:	4604      	mov	r4, r0
 8002e16:	f7ff f943 	bl	80020a0 <_ZdlPvj>
 8002e1a:	4620      	mov	r0, r4
 8002e1c:	bd10      	pop	{r4, pc}
 8002e1e:	0000      	movs	r0, r0

08002e20 <_ZN14DistanceSensorC1Ev>:
 8002e20:	4910      	ldr	r1, [pc, #64]	; (8002e64 <_ZN14DistanceSensorC1Ev+0x44>)
 8002e22:	4b11      	ldr	r3, [pc, #68]	; (8002e68 <_ZN14DistanceSensorC1Ev+0x48>)
 8002e24:	6003      	str	r3, [r0, #0]
 8002e26:	6b0b      	ldr	r3, [r1, #48]	; 0x30
 8002e28:	ea6f 2353 	mvn.w	r3, r3, lsr #9
 8002e2c:	ea6f 2343 	mvn.w	r3, r3, lsl #9
 8002e30:	630b      	str	r3, [r1, #48]	; 0x30
 8002e32:	4b0e      	ldr	r3, [pc, #56]	; (8002e6c <_ZN14DistanceSensorC1Ev+0x4c>)
 8002e34:	6183      	str	r3, [r0, #24]
 8002e36:	689a      	ldr	r2, [r3, #8]
 8002e38:	f022 0230 	bic.w	r2, r2, #48	; 0x30
 8002e3c:	609a      	str	r2, [r3, #8]
 8002e3e:	689a      	ldr	r2, [r3, #8]
 8002e40:	f042 0230 	orr.w	r2, r2, #48	; 0x30
 8002e44:	609a      	str	r2, [r3, #8]
 8002e46:	685a      	ldr	r2, [r3, #4]
 8002e48:	f022 0204 	bic.w	r2, r2, #4
 8002e4c:	605a      	str	r2, [r3, #4]
 8002e4e:	685a      	ldr	r2, [r3, #4]
 8002e50:	605a      	str	r2, [r3, #4]
 8002e52:	681a      	ldr	r2, [r3, #0]
 8002e54:	f022 0230 	bic.w	r2, r2, #48	; 0x30
 8002e58:	601a      	str	r2, [r3, #0]
 8002e5a:	681a      	ldr	r2, [r3, #0]
 8002e5c:	f042 0210 	orr.w	r2, r2, #16
 8002e60:	601a      	str	r2, [r3, #0]
 8002e62:	4770      	bx	lr
 8002e64:	40023800 	andmi	r3, r2, r0, lsl #16
 8002e68:	08003f00 	stmdaeq	r0, {r8, r9, sl, fp, ip, sp}
 8002e6c:	40020400 	andmi	r0, r2, r0, lsl #8

08002e70 <_ZN14DistanceSensor4initEv>:
 8002e70:	6982      	ldr	r2, [r0, #24]
 8002e72:	b538      	push	{r3, r4, r5, lr}
 8002e74:	6953      	ldr	r3, [r2, #20]
 8002e76:	2500      	movs	r5, #0
 8002e78:	f023 0304 	bic.w	r3, r3, #4
 8002e7c:	61c5      	str	r5, [r0, #28]
 8002e7e:	4604      	mov	r4, r0
 8002e80:	6153      	str	r3, [r2, #20]
 8002e82:	f44f 7380 	mov.w	r3, #256	; 0x100
 8002e86:	e9c0 5508 	strd	r5, r5, [r0, #32]
 8002e8a:	e9c0 550a 	strd	r5, r5, [r0, #40]	; 0x28
 8002e8e:	e9c0 550c 	strd	r5, r5, [r0, #48]	; 0x30
 8002e92:	e9c0 3301 	strd	r3, r3, [r0, #4]
 8002e96:	60c3      	str	r3, [r0, #12]
 8002e98:	7405      	strb	r5, [r0, #16]
 8002e9a:	7445      	strb	r5, [r0, #17]
 8002e9c:	4601      	mov	r1, r0
 8002e9e:	462b      	mov	r3, r5
 8002ea0:	2219      	movs	r2, #25
 8002ea2:	4803      	ldr	r0, [pc, #12]	; (8002eb0 <_ZN14DistanceSensor4initEv+0x40>)
 8002ea4:	f000 f8b2 	bl	800300c <_ZN5Timer8add_taskEP6Threadjb>
 8002ea8:	7525      	strb	r5, [r4, #20]
 8002eaa:	4628      	mov	r0, r5
 8002eac:	bd38      	pop	{r3, r4, r5, pc}
 8002eae:	bf00      	nop
 8002eb0:	2000026c 	andcs	r0, r0, ip, ror #4

08002eb4 <_ZN14DistanceSensor6filterEPij>:
 8002eb4:	eb00 0282 	add.w	r2, r0, r2, lsl #2
 8002eb8:	6ad3      	ldr	r3, [r2, #44]	; 0x2c
 8002eba:	6a12      	ldr	r2, [r2, #32]
 8002ebc:	1a9b      	subs	r3, r3, r2
 8002ebe:	ea23 73e3 	bic.w	r3, r3, r3, asr #31
 8002ec2:	2210      	movs	r2, #16
 8002ec4:	f5c3 5380 	rsb	r3, r3, #4096	; 0x1000
 8002ec8:	fb93 f3f2 	sdiv	r3, r3, r2
 8002ecc:	680a      	ldr	r2, [r1, #0]
 8002ece:	eb02 0242 	add.w	r2, r2, r2, lsl #1
 8002ed2:	4413      	add	r3, r2
 8002ed4:	2204      	movs	r2, #4
 8002ed6:	fb93 f3f2 	sdiv	r3, r3, r2
 8002eda:	600b      	str	r3, [r1, #0]
 8002edc:	4770      	bx	lr
 8002ede:	0000      	movs	r0, r0

08002ee0 <_ZN14DistanceSensor4mainEv>:
 8002ee0:	b538      	push	{r3, r4, r5, lr}
 8002ee2:	69c5      	ldr	r5, [r0, #28]
 8002ee4:	4604      	mov	r4, r0
 8002ee6:	b115      	cbz	r5, 8002eee <_ZN14DistanceSensor4mainEv+0xe>
 8002ee8:	2d01      	cmp	r5, #1
 8002eea:	d017      	beq.n	8002f1c <_ZN14DistanceSensor4mainEv+0x3c>
 8002eec:	bd38      	pop	{r3, r4, r5, pc}
 8002eee:	2105      	movs	r1, #5
 8002ef0:	4825      	ldr	r0, [pc, #148]	; (8002f88 <_ZN14DistanceSensor4mainEv+0xa8>)
 8002ef2:	f7ff feeb 	bl	8002ccc <_ZN9ADCDriver4readEj>
 8002ef6:	2108      	movs	r1, #8
 8002ef8:	62e0      	str	r0, [r4, #44]	; 0x2c
 8002efa:	4823      	ldr	r0, [pc, #140]	; (8002f88 <_ZN14DistanceSensor4mainEv+0xa8>)
 8002efc:	f7ff fee6 	bl	8002ccc <_ZN9ADCDriver4readEj>
 8002f00:	4629      	mov	r1, r5
 8002f02:	6320      	str	r0, [r4, #48]	; 0x30
 8002f04:	4820      	ldr	r0, [pc, #128]	; (8002f88 <_ZN14DistanceSensor4mainEv+0xa8>)
 8002f06:	f7ff fee1 	bl	8002ccc <_ZN9ADCDriver4readEj>
 8002f0a:	69a2      	ldr	r2, [r4, #24]
 8002f0c:	6360      	str	r0, [r4, #52]	; 0x34
 8002f0e:	6953      	ldr	r3, [r2, #20]
 8002f10:	f043 0304 	orr.w	r3, r3, #4
 8002f14:	6153      	str	r3, [r2, #20]
 8002f16:	2301      	movs	r3, #1
 8002f18:	61e3      	str	r3, [r4, #28]
 8002f1a:	e7e7      	b.n	8002eec <_ZN14DistanceSensor4mainEv+0xc>
 8002f1c:	2105      	movs	r1, #5
 8002f1e:	481a      	ldr	r0, [pc, #104]	; (8002f88 <_ZN14DistanceSensor4mainEv+0xa8>)
 8002f20:	f7ff fed4 	bl	8002ccc <_ZN9ADCDriver4readEj>
 8002f24:	2108      	movs	r1, #8
 8002f26:	6220      	str	r0, [r4, #32]
 8002f28:	4817      	ldr	r0, [pc, #92]	; (8002f88 <_ZN14DistanceSensor4mainEv+0xa8>)
 8002f2a:	f7ff fecf 	bl	8002ccc <_ZN9ADCDriver4readEj>
 8002f2e:	2100      	movs	r1, #0
 8002f30:	6260      	str	r0, [r4, #36]	; 0x24
 8002f32:	4815      	ldr	r0, [pc, #84]	; (8002f88 <_ZN14DistanceSensor4mainEv+0xa8>)
 8002f34:	f7ff feca 	bl	8002ccc <_ZN9ADCDriver4readEj>
 8002f38:	69a2      	ldr	r2, [r4, #24]
 8002f3a:	62a0      	str	r0, [r4, #40]	; 0x28
 8002f3c:	6953      	ldr	r3, [r2, #20]
 8002f3e:	f023 0304 	bic.w	r3, r3, #4
 8002f42:	6153      	str	r3, [r2, #20]
 8002f44:	4620      	mov	r0, r4
 8002f46:	2200      	movs	r2, #0
 8002f48:	f104 0108 	add.w	r1, r4, #8
 8002f4c:	f7ff ffb2 	bl	8002eb4 <_ZN14DistanceSensor6filterEPij>
 8002f50:	462a      	mov	r2, r5
 8002f52:	1d21      	adds	r1, r4, #4
 8002f54:	f7ff ffae 	bl	8002eb4 <_ZN14DistanceSensor6filterEPij>
 8002f58:	2202      	movs	r2, #2
 8002f5a:	f104 010c 	add.w	r1, r4, #12
 8002f5e:	f7ff ffa9 	bl	8002eb4 <_ZN14DistanceSensor6filterEPij>
 8002f62:	68a2      	ldr	r2, [r4, #8]
 8002f64:	2aef      	cmp	r2, #239	; 0xef
 8002f66:	f04f 0300 	mov.w	r3, #0
 8002f6a:	dc04      	bgt.n	8002f76 <_ZN14DistanceSensor4mainEv+0x96>
 8002f6c:	2ad1      	cmp	r2, #209	; 0xd1
 8002f6e:	7425      	strb	r5, [r4, #16]
 8002f70:	dd03      	ble.n	8002f7a <_ZN14DistanceSensor4mainEv+0x9a>
 8002f72:	7463      	strb	r3, [r4, #17]
 8002f74:	e002      	b.n	8002f7c <_ZN14DistanceSensor4mainEv+0x9c>
 8002f76:	7423      	strb	r3, [r4, #16]
 8002f78:	e7fb      	b.n	8002f72 <_ZN14DistanceSensor4mainEv+0x92>
 8002f7a:	7465      	strb	r5, [r4, #17]
 8002f7c:	2300      	movs	r3, #0
 8002f7e:	61e3      	str	r3, [r4, #28]
 8002f80:	2301      	movs	r3, #1
 8002f82:	7523      	strb	r3, [r4, #20]
 8002f84:	e7b2      	b.n	8002eec <_ZN14DistanceSensor4mainEv+0xc>
 8002f86:	bf00      	nop
 8002f88:	20000014 	andcs	r0, r0, r4, lsl r0

08002f8c <TIM2_IRQHandler>:
 8002f8c:	b5f8      	push	{r3, r4, r5, r6, r7, lr}
 8002f8e:	f04f 4380 	mov.w	r3, #1073741824	; 0x40000000
 8002f92:	691a      	ldr	r2, [r3, #16]
 8002f94:	07d2      	lsls	r2, r2, #31
 8002f96:	d514      	bpl.n	8002fc2 <TIM2_IRQHandler+0x36>
 8002f98:	4f19      	ldr	r7, [pc, #100]	; (8003000 <TIM2_IRQHandler+0x74>)
 8002f9a:	f64f 72fe 	movw	r2, #65534	; 0xfffe
 8002f9e:	611a      	str	r2, [r3, #16]
 8002fa0:	2400      	movs	r4, #0
 8002fa2:	2614      	movs	r6, #20
 8002fa4:	463d      	mov	r5, r7
 8002fa6:	fb06 7304 	mla	r3, r6, r4, r7
 8002faa:	68da      	ldr	r2, [r3, #12]
 8002fac:	b152      	cbz	r2, 8002fc4 <TIM2_IRQHandler+0x38>
 8002fae:	68da      	ldr	r2, [r3, #12]
 8002fb0:	3a01      	subs	r2, #1
 8002fb2:	60da      	str	r2, [r3, #12]
 8002fb4:	3401      	adds	r4, #1
 8002fb6:	2c10      	cmp	r4, #16
 8002fb8:	d1f5      	bne.n	8002fa6 <TIM2_IRQHandler+0x1a>
 8002fba:	4a12      	ldr	r2, [pc, #72]	; (8003004 <TIM2_IRQHandler+0x78>)
 8002fbc:	6813      	ldr	r3, [r2, #0]
 8002fbe:	3301      	adds	r3, #1
 8002fc0:	6013      	str	r3, [r2, #0]
 8002fc2:	bdf8      	pop	{r3, r4, r5, r6, r7, pc}
 8002fc4:	689a      	ldr	r2, [r3, #8]
 8002fc6:	60da      	str	r2, [r3, #12]
 8002fc8:	7c1a      	ldrb	r2, [r3, #16]
 8002fca:	2aff      	cmp	r2, #255	; 0xff
 8002fcc:	bf1f      	itttt	ne
 8002fce:	7c1a      	ldrbne	r2, [r3, #16]
 8002fd0:	3201      	addne	r2, #1
 8002fd2:	b2d2      	uxtbne	r2, r2
 8002fd4:	741a      	strbne	r2, [r3, #16]
 8002fd6:	fb06 f304 	mul.w	r3, r6, r4
 8002fda:	18ea      	adds	r2, r5, r3
 8002fdc:	7c52      	ldrb	r2, [r2, #17]
 8002fde:	2a00      	cmp	r2, #0
 8002fe0:	d1e8      	bne.n	8002fb4 <TIM2_IRQHandler+0x28>
 8002fe2:	58ea      	ldr	r2, [r5, r3]
 8002fe4:	b10a      	cbz	r2, 8002fea <TIM2_IRQHandler+0x5e>
 8002fe6:	58eb      	ldr	r3, [r5, r3]
 8002fe8:	4798      	blx	r3
 8002fea:	fb06 5304 	mla	r3, r6, r4, r5
 8002fee:	685a      	ldr	r2, [r3, #4]
 8002ff0:	2a00      	cmp	r2, #0
 8002ff2:	d0df      	beq.n	8002fb4 <TIM2_IRQHandler+0x28>
 8002ff4:	6858      	ldr	r0, [r3, #4]
 8002ff6:	6803      	ldr	r3, [r0, #0]
 8002ff8:	689b      	ldr	r3, [r3, #8]
 8002ffa:	4798      	blx	r3
 8002ffc:	e7da      	b.n	8002fb4 <TIM2_IRQHandler+0x28>
 8002ffe:	bf00      	nop
 8003000:	20000274 	andcs	r0, r0, r4, ror r2
 8003004:	20000270 	andcs	r0, r0, r0, ror r2

08003008 <_ZN5TimerC1Ev>:
 8003008:	4770      	bx	lr

0800300a <_ZN5TimerD1Ev>:
 800300a:	4770      	bx	lr

0800300c <_ZN5Timer8add_taskEP6Threadjb>:
 800300c:	b5f0      	push	{r4, r5, r6, r7, lr}
 800300e:	b672      	cpsid	i
 8003010:	4d11      	ldr	r5, [pc, #68]	; (8003058 <_ZN5Timer8add_taskEP6Threadjb+0x4c>)
 8003012:	2400      	movs	r4, #0
 8003014:	f04f 30ff 	mov.w	r0, #4294967295	; 0xffffffff
 8003018:	f04f 0c14 	mov.w	ip, #20
 800301c:	462f      	mov	r7, r5
 800301e:	fb0c f604 	mul.w	r6, ip, r4
 8003022:	eb05 0e06 	add.w	lr, r5, r6
 8003026:	59ae      	ldr	r6, [r5, r6]
 8003028:	b926      	cbnz	r6, 8003034 <_ZN5Timer8add_taskEP6Threadjb+0x28>
 800302a:	f8de 6004 	ldr.w	r6, [lr, #4]
 800302e:	2e00      	cmp	r6, #0
 8003030:	bf08      	it	eq
 8003032:	4620      	moveq	r0, r4
 8003034:	3401      	adds	r4, #1
 8003036:	2c10      	cmp	r4, #16
 8003038:	d1f1      	bne.n	800301e <_ZN5Timer8add_taskEP6Threadjb+0x12>
 800303a:	1c44      	adds	r4, r0, #1
 800303c:	d00a      	beq.n	8003054 <_ZN5Timer8add_taskEP6Threadjb+0x48>
 800303e:	b2c4      	uxtb	r4, r0
 8003040:	2514      	movs	r5, #20
 8003042:	4365      	muls	r5, r4
 8003044:	197c      	adds	r4, r7, r5
 8003046:	2600      	movs	r6, #0
 8003048:	517e      	str	r6, [r7, r5]
 800304a:	6061      	str	r1, [r4, #4]
 800304c:	60a2      	str	r2, [r4, #8]
 800304e:	60e2      	str	r2, [r4, #12]
 8003050:	7426      	strb	r6, [r4, #16]
 8003052:	7463      	strb	r3, [r4, #17]
 8003054:	b662      	cpsie	i
 8003056:	bdf0      	pop	{r4, r5, r6, r7, pc}
 8003058:	20000274 	andcs	r0, r0, r4, ror r2

0800305c <_ZN5Timer10set_periodEhj>:
 800305c:	4804      	ldr	r0, [pc, #16]	; (8003070 <_ZN5Timer10set_periodEhj+0x14>)
 800305e:	2314      	movs	r3, #20
 8003060:	fb03 0101 	mla	r1, r3, r1, r0
 8003064:	2300      	movs	r3, #0
 8003066:	60ca      	str	r2, [r1, #12]
 8003068:	608a      	str	r2, [r1, #8]
 800306a:	740b      	strb	r3, [r1, #16]
 800306c:	4770      	bx	lr
 800306e:	bf00      	nop
 8003070:	20000274 	andcs	r0, r0, r4, ror r2

08003074 <_ZN5Timer8get_timeEv>:
 8003074:	b082      	sub	sp, #8
 8003076:	b672      	cpsid	i
 8003078:	4b03      	ldr	r3, [pc, #12]	; (8003088 <_ZN5Timer8get_timeEv+0x14>)
 800307a:	681b      	ldr	r3, [r3, #0]
 800307c:	9301      	str	r3, [sp, #4]
 800307e:	b662      	cpsie	i
 8003080:	9801      	ldr	r0, [sp, #4]
 8003082:	b002      	add	sp, #8
 8003084:	4770      	bx	lr
 8003086:	bf00      	nop
 8003088:	20000270 	andcs	r0, r0, r0, ror r2

0800308c <_ZN5Timer8delay_msEj>:
 800308c:	b507      	push	{r0, r1, r2, lr}
 800308e:	4602      	mov	r2, r0
 8003090:	f7ff fff0 	bl	8003074 <_ZN5Timer8get_timeEv>
 8003094:	4401      	add	r1, r0
 8003096:	9101      	str	r1, [sp, #4]
 8003098:	4610      	mov	r0, r2
 800309a:	f7ff ffeb 	bl	8003074 <_ZN5Timer8get_timeEv>
 800309e:	9b01      	ldr	r3, [sp, #4]
 80030a0:	4298      	cmp	r0, r3
 80030a2:	d201      	bcs.n	80030a8 <_ZN5Timer8delay_msEj+0x1c>
 80030a4:	bf00      	nop
 80030a6:	e7f7      	b.n	8003098 <_ZN5Timer8delay_msEj+0xc>
 80030a8:	b003      	add	sp, #12
 80030aa:	f85d fb04 	ldr.w	pc, [sp], #4
 80030ae:	0000      	movs	r0, r0

080030b0 <_ZN5Timer12timer_2_initEj>:
 80030b0:	b510      	push	{r4, lr}
 80030b2:	ed2d 8b02 	vpush	{d8}
 80030b6:	b08a      	sub	sp, #40	; 0x28
 80030b8:	2900      	cmp	r1, #0
 80030ba:	d065      	beq.n	8003188 <_ZN5Timer12timer_2_initEj+0xd8>
 80030bc:	4b33      	ldr	r3, [pc, #204]	; (800318c <_ZN5Timer12timer_2_initEj+0xdc>)
 80030be:	4299      	cmp	r1, r3
 80030c0:	bf28      	it	cs
 80030c2:	4619      	movcs	r1, r3
 80030c4:	ee07 1a90 	vmov	s15, r1
 80030c8:	ed9f 7a31 	vldr	s14, [pc, #196]	; 8003190 <_ZN5Timer12timer_2_initEj+0xe0>
 80030cc:	eef8 7ae7 	vcvt.f32.s32	s15, s15
 80030d0:	2101      	movs	r1, #1
 80030d2:	ee87 8a27 	vdiv.f32	s16, s14, s15
 80030d6:	4608      	mov	r0, r1
 80030d8:	eefc 7ac8 	vcvt.u32.f32	s15, s16
 80030dc:	ee17 4a90 	vmov	r4, s15
 80030e0:	f7fe f8be 	bl	8001260 <RCC_APB1PeriphClockCmd>
 80030e4:	0c24      	lsrs	r4, r4, #16
 80030e6:	a801      	add	r0, sp, #4
 80030e8:	f7fe f876 	bl	80011d8 <RCC_GetClocksFreq>
 80030ec:	9405      	str	r4, [sp, #20]
 80030ee:	3401      	adds	r4, #1
 80030f0:	ee07 4a90 	vmov	s15, r4
 80030f4:	eef8 7ae7 	vcvt.f32.s32	s15, s15
 80030f8:	2200      	movs	r2, #0
 80030fa:	ee88 7a27 	vdiv.f32	s14, s16, s15
 80030fe:	a905      	add	r1, sp, #20
 8003100:	f04f 4080 	mov.w	r0, #1073741824	; 0x40000000
 8003104:	9206      	str	r2, [sp, #24]
 8003106:	eddf 7a23 	vldr	s15, [pc, #140]	; 8003194 <_ZN5Timer12timer_2_initEj+0xe4>
 800310a:	ee77 7a67 	vsub.f32	s15, s14, s15
 800310e:	eefc 7ae7 	vcvt.u32.f32	s15, s15
 8003112:	ee17 3a90 	vmov	r3, s15
 8003116:	b29b      	uxth	r3, r3
 8003118:	e9cd 3207 	strd	r3, r2, [sp, #28]
 800311c:	f7fd fbc2 	bl	80008a4 <TIM_TimeBaseInit>
 8003120:	2101      	movs	r1, #1
 8003122:	f04f 4080 	mov.w	r0, #1073741824	; 0x40000000
 8003126:	f7fd fc51 	bl	80009cc <TIM_Cmd>
 800312a:	2201      	movs	r2, #1
 800312c:	4611      	mov	r1, r2
 800312e:	f04f 4080 	mov.w	r0, #1073741824	; 0x40000000
 8003132:	f7fd fe7b 	bl	8000e2c <TIM_ITConfig>
 8003136:	4a18      	ldr	r2, [pc, #96]	; (8003198 <_ZN5Timer12timer_2_initEj+0xe8>)
 8003138:	6b13      	ldr	r3, [r2, #48]	; 0x30
 800313a:	ea6f 2353 	mvn.w	r3, r3, lsr #9
 800313e:	ea6f 2343 	mvn.w	r3, r3, lsl #9
 8003142:	6313      	str	r3, [r2, #48]	; 0x30
 8003144:	4b15      	ldr	r3, [pc, #84]	; (800319c <_ZN5Timer12timer_2_initEj+0xec>)
 8003146:	689a      	ldr	r2, [r3, #8]
 8003148:	f422 3240 	bic.w	r2, r2, #196608	; 0x30000
 800314c:	609a      	str	r2, [r3, #8]
 800314e:	689a      	ldr	r2, [r3, #8]
 8003150:	f442 3240 	orr.w	r2, r2, #196608	; 0x30000
 8003154:	609a      	str	r2, [r3, #8]
 8003156:	685a      	ldr	r2, [r3, #4]
 8003158:	f422 7280 	bic.w	r2, r2, #256	; 0x100
 800315c:	605a      	str	r2, [r3, #4]
 800315e:	685a      	ldr	r2, [r3, #4]
 8003160:	605a      	str	r2, [r3, #4]
 8003162:	681a      	ldr	r2, [r3, #0]
 8003164:	f422 3240 	bic.w	r2, r2, #196608	; 0x30000
 8003168:	601a      	str	r2, [r3, #0]
 800316a:	681a      	ldr	r2, [r3, #0]
 800316c:	f442 3280 	orr.w	r2, r2, #65536	; 0x10000
 8003170:	601a      	str	r2, [r3, #0]
 8003172:	4b0b      	ldr	r3, [pc, #44]	; (80031a0 <_ZN5Timer12timer_2_initEj+0xf0>)
 8003174:	2210      	movs	r2, #16
 8003176:	f883 231c 	strb.w	r2, [r3, #796]	; 0x31c
 800317a:	f04f 5280 	mov.w	r2, #268435456	; 0x10000000
 800317e:	601a      	str	r2, [r3, #0]
 8003180:	b00a      	add	sp, #40	; 0x28
 8003182:	ecbd 8b02 	vpop	{d8}
 8003186:	bd10      	pop	{r4, pc}
 8003188:	2101      	movs	r1, #1
 800318a:	e79b      	b.n	80030c4 <_ZN5Timer12timer_2_initEj+0x14>
 800318c:	0337f980 	teqeq	r7, #128, 18	; 0x200000	; <UNPREDICTABLE>
 8003190:	4ccdfe60 	stclmi	14, cr15, [sp], {96}	; 0x60
 8003194:	3f800000 	svccc	0x00800000
 8003198:	40023800 	andmi	r3, r2, r0, lsl #16
 800319c:	40020000 	andmi	r0, r2, r0
 80031a0:	e000e100 	and	lr, r0, r0, lsl #2

080031a4 <_ZN5Timer4initEv>:
 80031a4:	b5f8      	push	{r3, r4, r5, r6, r7, lr}
 80031a6:	2200      	movs	r2, #0
 80031a8:	4d0c      	ldr	r5, [pc, #48]	; (80031dc <_ZN5Timer4initEv+0x38>)
 80031aa:	2714      	movs	r7, #20
 80031ac:	4613      	mov	r3, r2
 80031ae:	f44f 767a 	mov.w	r6, #1000	; 0x3e8
 80031b2:	fb07 f402 	mul.w	r4, r7, r2
 80031b6:	1929      	adds	r1, r5, r4
 80031b8:	3201      	adds	r2, #1
 80031ba:	2a10      	cmp	r2, #16
 80031bc:	512b      	str	r3, [r5, r4]
 80031be:	604b      	str	r3, [r1, #4]
 80031c0:	608e      	str	r6, [r1, #8]
 80031c2:	60cb      	str	r3, [r1, #12]
 80031c4:	740b      	strb	r3, [r1, #16]
 80031c6:	744b      	strb	r3, [r1, #17]
 80031c8:	d1f3      	bne.n	80031b2 <_ZN5Timer4initEv+0xe>
 80031ca:	4a05      	ldr	r2, [pc, #20]	; (80031e0 <_ZN5Timer4initEv+0x3c>)
 80031cc:	f44f 717a 	mov.w	r1, #1000	; 0x3e8
 80031d0:	6013      	str	r3, [r2, #0]
 80031d2:	6003      	str	r3, [r0, #0]
 80031d4:	f7ff ff6c 	bl	80030b0 <_ZN5Timer12timer_2_initEj>
 80031d8:	b662      	cpsie	i
 80031da:	bdf8      	pop	{r3, r4, r5, r6, r7, pc}
 80031dc:	20000274 	andcs	r0, r0, r4, ror r2
 80031e0:	20000270 	andcs	r0, r0, r0, ror r2

080031e4 <_ZN13MotorControll4mainEv>:
 80031e4:	b538      	push	{r3, r4, r5, lr}
 80031e6:	68c3      	ldr	r3, [r0, #12]
 80031e8:	4d36      	ldr	r5, [pc, #216]	; (80032c4 <_ZN13MotorControll4mainEv+0xe0>)
 80031ea:	ed2d 8b04 	vpush	{d8-d9}
 80031ee:	6043      	str	r3, [r0, #4]
 80031f0:	6903      	ldr	r3, [r0, #16]
 80031f2:	6083      	str	r3, [r0, #8]
 80031f4:	4604      	mov	r4, r0
 80031f6:	4628      	mov	r0, r5
 80031f8:	f7ff f860 	bl	80022bc <_ZN13EncoderSensor18get_left_no_atomicEv>
 80031fc:	60e0      	str	r0, [r4, #12]
 80031fe:	4628      	mov	r0, r5
 8003200:	f7ff f866 	bl	80022d0 <_ZN13EncoderSensor19get_right_no_atomicEv>
 8003204:	6862      	ldr	r2, [r4, #4]
 8003206:	68e3      	ldr	r3, [r4, #12]
 8003208:	ed9f 5a2f 	vldr	s10, [pc, #188]	; 80032c8 <_ZN13MotorControll4mainEv+0xe4>
 800320c:	edd4 6a05 	vldr	s13, [r4, #20]
 8003210:	eddf 5a2e 	vldr	s11, [pc, #184]	; 80032cc <_ZN13MotorControll4mainEv+0xe8>
 8003214:	ed9f 6a2e 	vldr	s12, [pc, #184]	; 80032d0 <_ZN13MotorControll4mainEv+0xec>
 8003218:	6120      	str	r0, [r4, #16]
 800321a:	1a9b      	subs	r3, r3, r2
 800321c:	ee07 3a10 	vmov	s14, r3
 8003220:	eeb8 7ac7 	vcvt.f32.s32	s14, s14
 8003224:	68a3      	ldr	r3, [r4, #8]
 8003226:	ed9f 9a2b 	vldr	s18, [pc, #172]	; 80032d4 <_ZN13MotorControll4mainEv+0xf0>
 800322a:	ee27 7a05 	vmul.f32	s14, s14, s10
 800322e:	ee66 6aa5 	vmul.f32	s13, s13, s11
 8003232:	ee47 6a06 	vmla.f32	s13, s14, s12
 8003236:	1ac3      	subs	r3, r0, r3
 8003238:	f104 0078 	add.w	r0, r4, #120	; 0x78
 800323c:	ee07 3a90 	vmov	s15, r3
 8003240:	eef8 7ae7 	vcvt.f32.s32	s15, s15
 8003244:	edc4 6a05 	vstr	s13, [r4, #20]
 8003248:	eeb0 7a66 	vmov.f32	s14, s13
 800324c:	edd4 6a06 	vldr	s13, [r4, #24]
 8003250:	ee67 7a85 	vmul.f32	s15, s15, s10
 8003254:	ee66 6aa5 	vmul.f32	s13, s13, s11
 8003258:	ee47 6a86 	vmla.f32	s13, s15, s12
 800325c:	edd4 7a07 	vldr	s15, [r4, #28]
 8003260:	edc4 6a06 	vstr	s13, [r4, #24]
 8003264:	ee77 7ac7 	vsub.f32	s15, s15, s14
 8003268:	ee17 2a10 	vmov	r2, s14
 800326c:	ee17 1a90 	vmov	r1, s15
 8003270:	f7fe ff21 	bl	80020b6 <_ZN3PID7processEff>
 8003274:	69a2      	ldr	r2, [r4, #24]
 8003276:	edd4 7a08 	vldr	s15, [r4, #32]
 800327a:	ee07 2a10 	vmov	s14, r2
 800327e:	ee77 7ac7 	vsub.f32	s15, s15, s14
 8003282:	ee08 0a90 	vmov	s17, r0
 8003286:	ee17 1a90 	vmov	r1, s15
 800328a:	f104 00a4 	add.w	r0, r4, #164	; 0xa4
 800328e:	f7fe ff12 	bl	80020b6 <_ZN3PID7processEff>
 8003292:	ee68 8a89 	vmul.f32	s17, s17, s18
 8003296:	3424      	adds	r4, #36	; 0x24
 8003298:	eefd 7ae8 	vcvt.s32.f32	s15, s17
 800329c:	ee08 0a10 	vmov	s16, r0
 80032a0:	ee17 1a90 	vmov	r1, s15
 80032a4:	4620      	mov	r0, r4
 80032a6:	f7ff f8ad 	bl	8002404 <_ZN5Motor8run_leftEi>
 80032aa:	ee28 8a09 	vmul.f32	s16, s16, s18
 80032ae:	4620      	mov	r0, r4
 80032b0:	eefd 7ac8 	vcvt.s32.f32	s15, s16
 80032b4:	ecbd 8b04 	vpop	{d8-d9}
 80032b8:	ee17 1a90 	vmov	r1, s15
 80032bc:	e8bd 4038 	ldmia.w	sp!, {r3, r4, r5, lr}
 80032c0:	f7ff b8bc 	b.w	800243c <_ZN5Motor9run_rightEi>
 80032c4:	20000058 	andcs	r0, r0, r8, asr r0
 80032c8:	3dcccccd 	stclcc	12, cr12, [ip, #820]	; 0x334
 80032cc:	3f666666 	svccc	0x00666666
 80032d0:	3e000000 	cdpcc	0, 0, cr0, cr0, cr0, {0}
 80032d4:	437f0000 	cmnmi	pc, #0

080032d8 <_ZN13MotorControllC1Ev>:
 80032d8:	b573      	push	{r0, r1, r4, r5, r6, lr}
 80032da:	4b0e      	ldr	r3, [pc, #56]	; (8003314 <_ZN13MotorControllC1Ev+0x3c>)
 80032dc:	2500      	movs	r5, #0
 80032de:	4604      	mov	r4, r0
 80032e0:	f04f 567e 	mov.w	r6, #1065353216	; 0x3f800000
 80032e4:	f840 3b24 	str.w	r3, [r0], #36
 80032e8:	f7ff f804 	bl	80022f4 <_ZN5MotorC1Ev>
 80032ec:	462b      	mov	r3, r5
 80032ee:	462a      	mov	r2, r5
 80032f0:	4629      	mov	r1, r5
 80032f2:	9600      	str	r6, [sp, #0]
 80032f4:	f104 0078 	add.w	r0, r4, #120	; 0x78
 80032f8:	f7fe ff3a 	bl	8002170 <_ZN3PIDC1Effff>
 80032fc:	9600      	str	r6, [sp, #0]
 80032fe:	462b      	mov	r3, r5
 8003300:	462a      	mov	r2, r5
 8003302:	4629      	mov	r1, r5
 8003304:	f104 00a4 	add.w	r0, r4, #164	; 0xa4
 8003308:	f7fe ff32 	bl	8002170 <_ZN3PIDC1Effff>
 800330c:	4620      	mov	r0, r4
 800330e:	b002      	add	sp, #8
 8003310:	bd70      	pop	{r4, r5, r6, pc}
 8003312:	bf00      	nop
 8003314:	08003f14 	stmdaeq	r0, {r2, r4, r8, r9, sl, fp, ip, sp}

08003318 <_ZN13MotorControll4initEv>:
 8003318:	b5f7      	push	{r0, r1, r2, r4, r5, r6, r7, lr}
 800331a:	4f15      	ldr	r7, [pc, #84]	; (8003370 <_ZN13MotorControll4initEv+0x58>)
 800331c:	4e15      	ldr	r6, [pc, #84]	; (8003374 <_ZN13MotorControll4initEv+0x5c>)
 800331e:	4604      	mov	r4, r0
 8003320:	f04f 557e 	mov.w	r5, #1065353216	; 0x3f800000
 8003324:	3024      	adds	r0, #36	; 0x24
 8003326:	f7ff f8a5 	bl	8002474 <_ZN5Motor4initEv>
 800332a:	9500      	str	r5, [sp, #0]
 800332c:	462b      	mov	r3, r5
 800332e:	463a      	mov	r2, r7
 8003330:	4631      	mov	r1, r6
 8003332:	f104 0078 	add.w	r0, r4, #120	; 0x78
 8003336:	f7fe ff06 	bl	8002146 <_ZN3PID4initEffff>
 800333a:	9500      	str	r5, [sp, #0]
 800333c:	462b      	mov	r3, r5
 800333e:	463a      	mov	r2, r7
 8003340:	4631      	mov	r1, r6
 8003342:	f104 00a4 	add.w	r0, r4, #164	; 0xa4
 8003346:	f7fe fefe 	bl	8002146 <_ZN3PID4initEffff>
 800334a:	2500      	movs	r5, #0
 800334c:	2300      	movs	r3, #0
 800334e:	6163      	str	r3, [r4, #20]
 8003350:	61a3      	str	r3, [r4, #24]
 8003352:	61e3      	str	r3, [r4, #28]
 8003354:	6223      	str	r3, [r4, #32]
 8003356:	e9c4 5501 	strd	r5, r5, [r4, #4]
 800335a:	e9c4 5503 	strd	r5, r5, [r4, #12]
 800335e:	462b      	mov	r3, r5
 8003360:	2204      	movs	r2, #4
 8003362:	4621      	mov	r1, r4
 8003364:	4804      	ldr	r0, [pc, #16]	; (8003378 <_ZN13MotorControll4initEv+0x60>)
 8003366:	f7ff fe51 	bl	800300c <_ZN5Timer8add_taskEP6Threadjb>
 800336a:	4628      	mov	r0, r5
 800336c:	b003      	add	sp, #12
 800336e:	bdf0      	pop	{r4, r5, r6, r7, pc}
 8003370:	3db851ec 	ldfccs	f5, [r8, #944]!	; 0x3b0
 8003374:	3f4ccccd 	svccc	0x004ccccd
 8003378:	2000026c 	andcs	r0, r0, ip, ror #4

0800337c <_ZN13MotorControllD1Ev>:
 800337c:	b510      	push	{r4, lr}
 800337e:	4b08      	ldr	r3, [pc, #32]	; (80033a0 <_ZN13MotorControllD1Ev+0x24>)
 8003380:	4604      	mov	r4, r0
 8003382:	f840 3ba4 	str.w	r3, [r0], #164
 8003386:	f7fe fe8e 	bl	80020a6 <_ZN3PIDD1Ev>
 800338a:	f104 0078 	add.w	r0, r4, #120	; 0x78
 800338e:	f7fe fe8a 	bl	80020a6 <_ZN3PIDD1Ev>
 8003392:	f104 0024 	add.w	r0, r4, #36	; 0x24
 8003396:	f7fe ffa5 	bl	80022e4 <_ZN5MotorD1Ev>
 800339a:	4620      	mov	r0, r4
 800339c:	bd10      	pop	{r4, pc}
 800339e:	bf00      	nop
 80033a0:	08003f14 	stmdaeq	r0, {r2, r4, r8, r9, sl, fp, ip, sp}

080033a4 <_ZN13MotorControllD0Ev>:
 80033a4:	b510      	push	{r4, lr}
 80033a6:	4604      	mov	r4, r0
 80033a8:	f7ff ffe8 	bl	800337c <_ZN13MotorControllD1Ev>
 80033ac:	4620      	mov	r0, r4
 80033ae:	21d0      	movs	r1, #208	; 0xd0
 80033b0:	f7fe fe76 	bl	80020a0 <_ZdlPvj>
 80033b4:	4620      	mov	r0, r4
 80033b6:	bd10      	pop	{r4, pc}

080033b8 <_ZN8TerminalD1Ev>:
 80033b8:	b510      	push	{r4, lr}
 80033ba:	4b03      	ldr	r3, [pc, #12]	; (80033c8 <_ZN8TerminalD1Ev+0x10>)
 80033bc:	6003      	str	r3, [r0, #0]
 80033be:	4604      	mov	r4, r0
 80033c0:	f7fe feee 	bl	80021a0 <_ZN5UsartD1Ev>
 80033c4:	4620      	mov	r0, r4
 80033c6:	bd10      	pop	{r4, pc}
 80033c8:	08003f28 	stmdaeq	r0, {r3, r5, r8, r9, sl, fp, ip, sp}

080033cc <_ZN8TerminalD0Ev>:
 80033cc:	b510      	push	{r4, lr}
 80033ce:	4604      	mov	r4, r0
 80033d0:	f7ff fff2 	bl	80033b8 <_ZN8TerminalD1Ev>
 80033d4:	4620      	mov	r0, r4
 80033d6:	2104      	movs	r1, #4
 80033d8:	f7fe fe62 	bl	80020a0 <_ZdlPvj>
 80033dc:	4620      	mov	r0, r4
 80033de:	bd10      	pop	{r4, pc}

080033e0 <_ZN8TerminalC1Ev>:
 80033e0:	b510      	push	{r4, lr}
 80033e2:	4604      	mov	r4, r0
 80033e4:	f7fe fee4 	bl	80021b0 <_ZN5UsartC1Ev>
 80033e8:	4b01      	ldr	r3, [pc, #4]	; (80033f0 <_ZN8TerminalC1Ev+0x10>)
 80033ea:	6023      	str	r3, [r4, #0]
 80033ec:	4620      	mov	r0, r4
 80033ee:	bd10      	pop	{r4, pc}
 80033f0:	08003f28 	stmdaeq	r0, {r3, r5, r8, r9, sl, fp, ip, sp}

080033f4 <_ZN8Terminal4putsEPKc>:
 80033f4:	b538      	push	{r3, r4, r5, lr}
 80033f6:	4605      	mov	r5, r0
 80033f8:	1e4c      	subs	r4, r1, #1
 80033fa:	f814 1f01 	ldrb.w	r1, [r4, #1]!
 80033fe:	b119      	cbz	r1, 8003408 <_ZN8Terminal4putsEPKc+0x14>
 8003400:	4628      	mov	r0, r5
 8003402:	f7fe ff33 	bl	800226c <_ZN5Usart8put_charEc>
 8003406:	e7f8      	b.n	80033fa <_ZN8Terminal4putsEPKc+0x6>
 8003408:	bd38      	pop	{r3, r4, r5, pc}

0800340a <_ZN8Terminal4putiEl>:
 800340a:	b57f      	push	{r0, r1, r2, r3, r4, r5, r6, lr}
 800340c:	1e0b      	subs	r3, r1, #0
 800340e:	f04f 0200 	mov.w	r2, #0
 8003412:	f04f 010a 	mov.w	r1, #10
 8003416:	bfba      	itte	lt
 8003418:	425b      	neglt	r3, r3
 800341a:	2401      	movlt	r4, #1
 800341c:	4614      	movge	r4, r2
 800341e:	f88d 200f 	strb.w	r2, [sp, #15]
 8003422:	460e      	mov	r6, r1
 8003424:	aa04      	add	r2, sp, #16
 8003426:	fb93 f5f6 	sdiv	r5, r3, r6
 800342a:	440a      	add	r2, r1
 800342c:	fb06 3315 	mls	r3, r6, r5, r3
 8003430:	3330      	adds	r3, #48	; 0x30
 8003432:	f802 3c0c 	strb.w	r3, [r2, #-12]
 8003436:	1e4a      	subs	r2, r1, #1
 8003438:	b2d2      	uxtb	r2, r2
 800343a:	462b      	mov	r3, r5
 800343c:	b965      	cbnz	r5, 8003458 <_ZN8Terminal4putiEl+0x4e>
 800343e:	b12c      	cbz	r4, 800344c <_ZN8Terminal4putiEl+0x42>
 8003440:	ab04      	add	r3, sp, #16
 8003442:	4413      	add	r3, r2
 8003444:	212d      	movs	r1, #45	; 0x2d
 8003446:	f803 1c0c 	strb.w	r1, [r3, #-12]
 800344a:	4611      	mov	r1, r2
 800344c:	ab01      	add	r3, sp, #4
 800344e:	4419      	add	r1, r3
 8003450:	f7ff ffd0 	bl	80033f4 <_ZN8Terminal4putsEPKc>
 8003454:	b004      	add	sp, #16
 8003456:	bd70      	pop	{r4, r5, r6, pc}
 8003458:	4611      	mov	r1, r2
 800345a:	e7e3      	b.n	8003424 <_ZN8Terminal4putiEl+0x1a>

0800345c <_ZN8Terminal5putuiEm>:
 800345c:	b530      	push	{r4, r5, lr}
 800345e:	b085      	sub	sp, #20
 8003460:	2300      	movs	r3, #0
 8003462:	220a      	movs	r2, #10
 8003464:	f88d 300f 	strb.w	r3, [sp, #15]
 8003468:	4615      	mov	r5, r2
 800346a:	fbb1 f4f5 	udiv	r4, r1, r5
 800346e:	fb05 1314 	mls	r3, r5, r4, r1
 8003472:	a904      	add	r1, sp, #16
 8003474:	4411      	add	r1, r2
 8003476:	3330      	adds	r3, #48	; 0x30
 8003478:	f801 3c0c 	strb.w	r3, [r1, #-12]
 800347c:	1e53      	subs	r3, r2, #1
 800347e:	b2db      	uxtb	r3, r3
 8003480:	4621      	mov	r1, r4
 8003482:	b92c      	cbnz	r4, 8003490 <_ZN8Terminal5putuiEm+0x34>
 8003484:	ab01      	add	r3, sp, #4
 8003486:	1899      	adds	r1, r3, r2
 8003488:	f7ff ffb4 	bl	80033f4 <_ZN8Terminal4putsEPKc>
 800348c:	b005      	add	sp, #20
 800348e:	bd30      	pop	{r4, r5, pc}
 8003490:	461a      	mov	r2, r3
 8003492:	e7ea      	b.n	800346a <_ZN8Terminal5putuiEm+0xe>

08003494 <_ZN10LineSensorD1Ev>:
 8003494:	4770      	bx	lr

08003496 <_ZN5ArrayIjLj8EED1Ev>:
 8003496:	4770      	bx	lr

08003498 <_ZN5ArrayIjLj8EED0Ev>:
 8003498:	b510      	push	{r4, lr}
 800349a:	2124      	movs	r1, #36	; 0x24
 800349c:	4604      	mov	r4, r0
 800349e:	f7fe fdff 	bl	80020a0 <_ZdlPvj>
 80034a2:	4620      	mov	r0, r4
 80034a4:	bd10      	pop	{r4, pc}

080034a6 <_ZN10LineSensorD0Ev>:
 80034a6:	b510      	push	{r4, lr}
 80034a8:	21d0      	movs	r1, #208	; 0xd0
 80034aa:	4604      	mov	r4, r0
 80034ac:	f7fe fdf8 	bl	80020a0 <_ZdlPvj>
 80034b0:	4620      	mov	r0, r4
 80034b2:	bd10      	pop	{r4, pc}

080034b4 <_ZN10LineSensorC1Ev>:
 80034b4:	4914      	ldr	r1, [pc, #80]	; (8003508 <_ZN10LineSensorC1Ev+0x54>)
 80034b6:	4b15      	ldr	r3, [pc, #84]	; (800350c <_ZN10LineSensorC1Ev+0x58>)
 80034b8:	6003      	str	r3, [r0, #0]
 80034ba:	6b0b      	ldr	r3, [r1, #48]	; 0x30
 80034bc:	ea6f 2353 	mvn.w	r3, r3, lsr #9
 80034c0:	ea6f 2343 	mvn.w	r3, r3, lsl #9
 80034c4:	630b      	str	r3, [r1, #48]	; 0x30
 80034c6:	4b12      	ldr	r3, [pc, #72]	; (8003510 <_ZN10LineSensorC1Ev+0x5c>)
 80034c8:	6043      	str	r3, [r0, #4]
 80034ca:	6899      	ldr	r1, [r3, #8]
 80034cc:	f421 4140 	bic.w	r1, r1, #49152	; 0xc000
 80034d0:	6099      	str	r1, [r3, #8]
 80034d2:	6899      	ldr	r1, [r3, #8]
 80034d4:	f441 4140 	orr.w	r1, r1, #49152	; 0xc000
 80034d8:	6099      	str	r1, [r3, #8]
 80034da:	6859      	ldr	r1, [r3, #4]
 80034dc:	f021 0180 	bic.w	r1, r1, #128	; 0x80
 80034e0:	6059      	str	r1, [r3, #4]
 80034e2:	6859      	ldr	r1, [r3, #4]
 80034e4:	6059      	str	r1, [r3, #4]
 80034e6:	6819      	ldr	r1, [r3, #0]
 80034e8:	f421 4140 	bic.w	r1, r1, #49152	; 0xc000
 80034ec:	6019      	str	r1, [r3, #0]
 80034ee:	6819      	ldr	r1, [r3, #0]
 80034f0:	f441 4180 	orr.w	r1, r1, #16384	; 0x4000
 80034f4:	6019      	str	r1, [r3, #0]
 80034f6:	4b07      	ldr	r3, [pc, #28]	; (8003514 <_ZN10LineSensorC1Ev+0x60>)
 80034f8:	6103      	str	r3, [r0, #16]
 80034fa:	4b07      	ldr	r3, [pc, #28]	; (8003518 <_ZN10LineSensorC1Ev+0x64>)
 80034fc:	6343      	str	r3, [r0, #52]	; 0x34
 80034fe:	6583      	str	r3, [r0, #88]	; 0x58
 8003500:	67c3      	str	r3, [r0, #124]	; 0x7c
 8003502:	f8c0 30a0 	str.w	r3, [r0, #160]	; 0xa0
 8003506:	4770      	bx	lr
 8003508:	40023800 	andmi	r3, r2, r0, lsl #16
 800350c:	08003f58 	stmdaeq	r0, {r3, r4, r6, r8, r9, sl, fp, ip, sp}
 8003510:	40021000 	andmi	r1, r2, r0
 8003514:	08003f38 	stmdaeq	r0, {r3, r4, r5, r8, r9, sl, fp, ip, sp}
 8003518:	08003f48 	stmdaeq	r0, {r3, r6, r8, r9, sl, fp, ip, sp}

0800351c <_ZN10LineSensor4initEv>:
 800351c:	6842      	ldr	r2, [r0, #4]
 800351e:	6953      	ldr	r3, [r2, #20]
 8003520:	f023 0380 	bic.w	r3, r3, #128	; 0x80
 8003524:	e92d 41f0 	stmdb	sp!, {r4, r5, r6, r7, r8, lr}
 8003528:	2164      	movs	r1, #100	; 0x64
 800352a:	4604      	mov	r4, r0
 800352c:	6153      	str	r3, [r2, #20]
 800352e:	4834      	ldr	r0, [pc, #208]	; (8003600 <_ZN10LineSensor4initEv+0xe4>)
 8003530:	f7ff fdac 	bl	800308c <_ZN5Timer8delay_msEj>
 8003534:	2164      	movs	r1, #100	; 0x64
 8003536:	4832      	ldr	r0, [pc, #200]	; (8003600 <_ZN10LineSensor4initEv+0xe4>)
 8003538:	f7ff fda8 	bl	800308c <_ZN5Timer8delay_msEj>
 800353c:	2701      	movs	r7, #1
 800353e:	2302      	movs	r3, #2
 8003540:	e9c4 7305 	strd	r7, r3, [r4, #20]
 8003544:	f04f 0c03 	mov.w	ip, #3
 8003548:	2304      	movs	r3, #4
 800354a:	e9c4 c307 	strd	ip, r3, [r4, #28]
 800354e:	f04f 0e06 	mov.w	lr, #6
 8003552:	2307      	movs	r3, #7
 8003554:	f04f 080e 	mov.w	r8, #14
 8003558:	e9c4 e309 	strd	lr, r3, [r4, #36]	; 0x24
 800355c:	230f      	movs	r3, #15
 800355e:	e9c4 830b 	strd	r8, r3, [r4, #44]	; 0x2c
 8003562:	f104 0514 	add.w	r5, r4, #20
 8003566:	f8df 809c 	ldr.w	r8, [pc, #156]	; 8003604 <_ZN10LineSensor4initEv+0xe8>
 800356a:	f104 0734 	add.w	r7, r4, #52	; 0x34
 800356e:	462e      	mov	r6, r5
 8003570:	f856 1b04 	ldr.w	r1, [r6], #4
 8003574:	4640      	mov	r0, r8
 8003576:	f7ff fba9 	bl	8002ccc <_ZN9ADCDriver4readEj>
 800357a:	42b7      	cmp	r7, r6
 800357c:	6470      	str	r0, [r6, #68]	; 0x44
 800357e:	d1f7      	bne.n	8003570 <_ZN10LineSensor4initEv+0x54>
 8003580:	6862      	ldr	r2, [r4, #4]
 8003582:	481f      	ldr	r0, [pc, #124]	; (8003600 <_ZN10LineSensor4initEv+0xe4>)
 8003584:	6953      	ldr	r3, [r2, #20]
 8003586:	4f1f      	ldr	r7, [pc, #124]	; (8003604 <_ZN10LineSensor4initEv+0xe8>)
 8003588:	f043 0380 	orr.w	r3, r3, #128	; 0x80
 800358c:	6153      	str	r3, [r2, #20]
 800358e:	2164      	movs	r1, #100	; 0x64
 8003590:	f7ff fd7c 	bl	800308c <_ZN5Timer8delay_msEj>
 8003594:	f855 1b04 	ldr.w	r1, [r5], #4
 8003598:	4638      	mov	r0, r7
 800359a:	f7ff fb97 	bl	8002ccc <_ZN9ADCDriver4readEj>
 800359e:	6c6b      	ldr	r3, [r5, #68]	; 0x44
 80035a0:	42b5      	cmp	r5, r6
 80035a2:	eba0 0003 	sub.w	r0, r0, r3
 80035a6:	66a8      	str	r0, [r5, #104]	; 0x68
 80035a8:	d1f4      	bne.n	8003594 <_ZN10LineSensor4initEv+0x78>
 80035aa:	f06f 02ff 	mvn.w	r2, #255	; 0xff
 80035ae:	f06f 03bf 	mvn.w	r3, #191	; 0xbf
 80035b2:	e9c4 230e 	strd	r2, r3, [r4, #56]	; 0x38
 80035b6:	f06f 017f 	mvn.w	r1, #127	; 0x7f
 80035ba:	f06f 033f 	mvn.w	r3, #63	; 0x3f
 80035be:	e9c4 1310 	strd	r1, r3, [r4, #64]	; 0x40
 80035c2:	2040      	movs	r0, #64	; 0x40
 80035c4:	2380      	movs	r3, #128	; 0x80
 80035c6:	e9c4 0312 	strd	r0, r3, [r4, #72]	; 0x48
 80035ca:	26c0      	movs	r6, #192	; 0xc0
 80035cc:	f44f 7380 	mov.w	r3, #256	; 0x100
 80035d0:	2500      	movs	r5, #0
 80035d2:	e9c4 6314 	strd	r6, r3, [r4, #80]	; 0x50
 80035d6:	f44f 73c8 	mov.w	r3, #400	; 0x190
 80035da:	60a3      	str	r3, [r4, #8]
 80035dc:	e9c4 5529 	strd	r5, r5, [r4, #164]	; 0xa4
 80035e0:	e9c4 552b 	strd	r5, r5, [r4, #172]	; 0xac
 80035e4:	e9c4 552d 	strd	r5, r5, [r4, #180]	; 0xb4
 80035e8:	e9c4 552f 	strd	r5, r5, [r4, #188]	; 0xbc
 80035ec:	7325      	strb	r5, [r4, #12]
 80035ee:	462b      	mov	r3, r5
 80035f0:	2204      	movs	r2, #4
 80035f2:	4621      	mov	r1, r4
 80035f4:	4802      	ldr	r0, [pc, #8]	; (8003600 <_ZN10LineSensor4initEv+0xe4>)
 80035f6:	f7ff fd09 	bl	800300c <_ZN5Timer8add_taskEP6Threadjb>
 80035fa:	4628      	mov	r0, r5
 80035fc:	e8bd 81f0 	ldmia.w	sp!, {r4, r5, r6, r7, r8, pc}
 8003600:	2000026c 	andcs	r0, r0, ip, ror #4
 8003604:	20000014 	andcs	r0, r0, r4, lsl r0

08003608 <_ZN10LineSensor9integrateEj>:
 8003608:	eb00 0081 	add.w	r0, r0, r1, lsl #2
 800360c:	b530      	push	{r4, r5, lr}
 800360e:	6b82      	ldr	r2, [r0, #56]	; 0x38
 8003610:	f8d0 50a4 	ldr.w	r5, [r0, #164]	; 0xa4
 8003614:	fb02 f405 	mul.w	r4, r2, r5
 8003618:	b181      	cbz	r1, 800363c <_ZN10LineSensor9integrateEj+0x34>
 800361a:	f8d0 30a0 	ldr.w	r3, [r0, #160]	; 0xa0
 800361e:	6b42      	ldr	r2, [r0, #52]	; 0x34
 8003620:	2906      	cmp	r1, #6
 8003622:	fb02 4203 	mla	r2, r2, r3, r4
 8003626:	442b      	add	r3, r5
 8003628:	d80b      	bhi.n	8003642 <_ZN10LineSensor9integrateEj+0x3a>
 800362a:	f8d0 10a8 	ldr.w	r1, [r0, #168]	; 0xa8
 800362e:	6bc0      	ldr	r0, [r0, #60]	; 0x3c
 8003630:	440b      	add	r3, r1
 8003632:	fb00 2201 	mla	r2, r0, r1, r2
 8003636:	fb92 f0f3 	sdiv	r0, r2, r3
 800363a:	bd30      	pop	{r4, r5, pc}
 800363c:	0062      	lsls	r2, r4, #1
 800363e:	006b      	lsls	r3, r5, #1
 8003640:	e7f3      	b.n	800362a <_ZN10LineSensor9integrateEj+0x22>
 8003642:	4422      	add	r2, r4
 8003644:	442b      	add	r3, r5
 8003646:	e7f6      	b.n	8003636 <_ZN10LineSensor9integrateEj+0x2e>

08003648 <_ZN10LineSensor20find_center_line_posEv>:
 8003648:	6882      	ldr	r2, [r0, #8]
 800364a:	f100 03a4 	add.w	r3, r0, #164	; 0xa4
 800364e:	2000      	movs	r0, #0
 8003650:	f853 1b04 	ldr.w	r1, [r3], #4
 8003654:	428a      	cmp	r2, r1
 8003656:	db04      	blt.n	8003662 <_ZN10LineSensor20find_center_line_posEv+0x1a>
 8003658:	3001      	adds	r0, #1
 800365a:	2808      	cmp	r0, #8
 800365c:	d1f8      	bne.n	8003650 <_ZN10LineSensor20find_center_line_posEv+0x8>
 800365e:	f04f 30ff 	mov.w	r0, #4294967295	; 0xffffffff
 8003662:	4770      	bx	lr

08003664 <_ZN10LineSensor4mainEv>:
 8003664:	e92d 4ff8 	stmdb	sp!, {r3, r4, r5, r6, r7, r8, r9, sl, fp, lr}
 8003668:	f8df a06c 	ldr.w	sl, [pc, #108]	; 80036d8 <_ZN10LineSensor4mainEv+0x74>
 800366c:	4604      	mov	r4, r0
 800366e:	f100 0514 	add.w	r5, r0, #20
 8003672:	f100 0834 	add.w	r8, r0, #52	; 0x34
 8003676:	f44f 797a 	mov.w	r9, #1000	; 0x3e8
 800367a:	f04f 0b00 	mov.w	fp, #0
 800367e:	f855 1b04 	ldr.w	r1, [r5], #4
 8003682:	4650      	mov	r0, sl
 8003684:	f7ff fb22 	bl	8002ccc <_ZN9ADCDriver4readEj>
 8003688:	6c6b      	ldr	r3, [r5, #68]	; 0x44
 800368a:	1ac0      	subs	r0, r0, r3
 800368c:	fb09 f000 	mul.w	r0, r9, r0
 8003690:	6eab      	ldr	r3, [r5, #104]	; 0x68
 8003692:	fb90 f0f3 	sdiv	r0, r0, r3
 8003696:	f5d0 707a 	rsbs	r0, r0, #1000	; 0x3e8
 800369a:	bf54      	ite	pl
 800369c:	f8c5 008c 	strpl.w	r0, [r5, #140]	; 0x8c
 80036a0:	f8c5 b08c 	strmi.w	fp, [r5, #140]	; 0x8c
 80036a4:	4545      	cmp	r5, r8
 80036a6:	d1ea      	bne.n	800367e <_ZN10LineSensor4mainEv+0x1a>
 80036a8:	4620      	mov	r0, r4
 80036aa:	f7ff ffcd 	bl	8003648 <_ZN10LineSensor20find_center_line_posEv>
 80036ae:	1c43      	adds	r3, r0, #1
 80036b0:	4601      	mov	r1, r0
 80036b2:	d00f      	beq.n	80036d4 <_ZN10LineSensor4mainEv+0x70>
 80036b4:	4620      	mov	r0, r4
 80036b6:	f7ff ffa7 	bl	8003608 <_ZN10LineSensor9integrateEj>
 80036ba:	2301      	movs	r3, #1
 80036bc:	4606      	mov	r6, r0
 80036be:	4607      	mov	r7, r0
 80036c0:	f884 30c4 	strb.w	r3, [r4, #196]	; 0xc4
 80036c4:	2301      	movs	r3, #1
 80036c6:	f884 30c5 	strb.w	r3, [r4, #197]	; 0xc5
 80036ca:	e9c4 6732 	strd	r6, r7, [r4, #200]	; 0xc8
 80036ce:	7323      	strb	r3, [r4, #12]
 80036d0:	e8bd 8ff8 	ldmia.w	sp!, {r3, r4, r5, r6, r7, r8, r9, sl, fp, pc}
 80036d4:	2300      	movs	r3, #0
 80036d6:	e7f3      	b.n	80036c0 <_ZN10LineSensor4mainEv+0x5c>
 80036d8:	20000014 	andcs	r0, r0, r4, lsl r0

080036dc <_ZN3KeyD1Ev>:
 80036dc:	4770      	bx	lr

080036de <_ZN3KeyD0Ev>:
 80036de:	b510      	push	{r4, lr}
 80036e0:	2118      	movs	r1, #24
 80036e2:	4604      	mov	r4, r0
 80036e4:	f7fe fcdc 	bl	80020a0 <_ZdlPvj>
 80036e8:	4620      	mov	r0, r4
 80036ea:	bd10      	pop	{r4, pc}

080036ec <_ZN3Key4mainEv>:
 80036ec:	7b02      	ldrb	r2, [r0, #12]
 80036ee:	6883      	ldr	r3, [r0, #8]
 80036f0:	b132      	cbz	r2, 8003700 <_ZN3Key4mainEv+0x14>
 80036f2:	2200      	movs	r2, #0
 80036f4:	7302      	strb	r2, [r0, #12]
 80036f6:	695a      	ldr	r2, [r3, #20]
 80036f8:	f442 7280 	orr.w	r2, r2, #256	; 0x100
 80036fc:	615a      	str	r2, [r3, #20]
 80036fe:	4770      	bx	lr
 8003700:	2201      	movs	r2, #1
 8003702:	7302      	strb	r2, [r0, #12]
 8003704:	695a      	ldr	r2, [r3, #20]
 8003706:	f422 7280 	bic.w	r2, r2, #256	; 0x100
 800370a:	e7f7      	b.n	80036fc <_ZN3Key4mainEv+0x10>

0800370c <_ZN3KeyC1Ev>:
 800370c:	4a1c      	ldr	r2, [pc, #112]	; (8003780 <_ZN3KeyC1Ev+0x74>)
 800370e:	4b1d      	ldr	r3, [pc, #116]	; (8003784 <_ZN3KeyC1Ev+0x78>)
 8003710:	6003      	str	r3, [r0, #0]
 8003712:	6b13      	ldr	r3, [r2, #48]	; 0x30
 8003714:	b530      	push	{r4, r5, lr}
 8003716:	f240 15ff 	movw	r5, #511	; 0x1ff
 800371a:	432b      	orrs	r3, r5
 800371c:	6313      	str	r3, [r2, #48]	; 0x30
 800371e:	4b1a      	ldr	r3, [pc, #104]	; (8003788 <_ZN3KeyC1Ev+0x7c>)
 8003720:	6043      	str	r3, [r0, #4]
 8003722:	689c      	ldr	r4, [r3, #8]
 8003724:	f024 04c0 	bic.w	r4, r4, #192	; 0xc0
 8003728:	609c      	str	r4, [r3, #8]
 800372a:	689c      	ldr	r4, [r3, #8]
 800372c:	f044 04c0 	orr.w	r4, r4, #192	; 0xc0
 8003730:	609c      	str	r4, [r3, #8]
 8003732:	681c      	ldr	r4, [r3, #0]
 8003734:	f024 04c0 	bic.w	r4, r4, #192	; 0xc0
 8003738:	601c      	str	r4, [r3, #0]
 800373a:	681c      	ldr	r4, [r3, #0]
 800373c:	601c      	str	r4, [r3, #0]
 800373e:	68dc      	ldr	r4, [r3, #12]
 8003740:	f044 0440 	orr.w	r4, r4, #64	; 0x40
 8003744:	60dc      	str	r4, [r3, #12]
 8003746:	6b13      	ldr	r3, [r2, #48]	; 0x30
 8003748:	432b      	orrs	r3, r5
 800374a:	6313      	str	r3, [r2, #48]	; 0x30
 800374c:	4b0f      	ldr	r3, [pc, #60]	; (800378c <_ZN3KeyC1Ev+0x80>)
 800374e:	6083      	str	r3, [r0, #8]
 8003750:	689a      	ldr	r2, [r3, #8]
 8003752:	f422 3240 	bic.w	r2, r2, #196608	; 0x30000
 8003756:	609a      	str	r2, [r3, #8]
 8003758:	689a      	ldr	r2, [r3, #8]
 800375a:	f442 3240 	orr.w	r2, r2, #196608	; 0x30000
 800375e:	609a      	str	r2, [r3, #8]
 8003760:	685a      	ldr	r2, [r3, #4]
 8003762:	f422 7280 	bic.w	r2, r2, #256	; 0x100
 8003766:	605a      	str	r2, [r3, #4]
 8003768:	685a      	ldr	r2, [r3, #4]
 800376a:	605a      	str	r2, [r3, #4]
 800376c:	681a      	ldr	r2, [r3, #0]
 800376e:	f422 3240 	bic.w	r2, r2, #196608	; 0x30000
 8003772:	601a      	str	r2, [r3, #0]
 8003774:	681a      	ldr	r2, [r3, #0]
 8003776:	f442 3280 	orr.w	r2, r2, #65536	; 0x10000
 800377a:	601a      	str	r2, [r3, #0]
 800377c:	bd30      	pop	{r4, r5, pc}
 800377e:	bf00      	nop
 8003780:	40023800 	andmi	r3, r2, r0, lsl #16
 8003784:	08003f6c 	stmdaeq	r0, {r2, r3, r5, r6, r8, r9, sl, fp, ip, sp}
 8003788:	40021000 	andmi	r1, r2, r0
 800378c:	40020000 	andmi	r0, r2, r0

08003790 <_ZN3Key4initEv>:
 8003790:	f04f 33ff 	mov.w	r3, #4294967295	; 0xffffffff
 8003794:	b510      	push	{r4, lr}
 8003796:	6143      	str	r3, [r0, #20]
 8003798:	2300      	movs	r3, #0
 800379a:	4604      	mov	r4, r0
 800379c:	7303      	strb	r3, [r0, #12]
 800379e:	4601      	mov	r1, r0
 80037a0:	f44f 72fa 	mov.w	r2, #500	; 0x1f4
 80037a4:	4802      	ldr	r0, [pc, #8]	; (80037b0 <_ZN3Key4initEv+0x20>)
 80037a6:	f7ff fc31 	bl	800300c <_ZN5Timer8add_taskEP6Threadjb>
 80037aa:	6120      	str	r0, [r4, #16]
 80037ac:	bd10      	pop	{r4, pc}
 80037ae:	bf00      	nop
 80037b0:	2000026c 	andcs	r0, r0, ip, ror #4

080037b4 <_ZN3Key4readEv>:
 80037b4:	b570      	push	{r4, r5, r6, lr}
 80037b6:	4604      	mov	r4, r0
 80037b8:	6863      	ldr	r3, [r4, #4]
 80037ba:	691b      	ldr	r3, [r3, #16]
 80037bc:	071a      	lsls	r2, r3, #28
 80037be:	d501      	bpl.n	80037c4 <_ZN3Key4readEv+0x10>
 80037c0:	bf00      	nop
 80037c2:	e7f9      	b.n	80037b8 <_ZN3Key4readEv+0x4>
 80037c4:	2301      	movs	r3, #1
 80037c6:	6163      	str	r3, [r4, #20]
 80037c8:	2264      	movs	r2, #100	; 0x64
 80037ca:	7c21      	ldrb	r1, [r4, #16]
 80037cc:	480f      	ldr	r0, [pc, #60]	; (800380c <_ZN3Key4readEv+0x58>)
 80037ce:	4d0f      	ldr	r5, [pc, #60]	; (800380c <_ZN3Key4readEv+0x58>)
 80037d0:	f7ff fc44 	bl	800305c <_ZN5Timer10set_periodEhj>
 80037d4:	480d      	ldr	r0, [pc, #52]	; (800380c <_ZN3Key4readEv+0x58>)
 80037d6:	f7ff fc4d 	bl	8003074 <_ZN5Timer8get_timeEv>
 80037da:	f500 66fa 	add.w	r6, r0, #2000	; 0x7d0
 80037de:	6863      	ldr	r3, [r4, #4]
 80037e0:	691b      	ldr	r3, [r3, #16]
 80037e2:	071b      	lsls	r3, r3, #28
 80037e4:	d40f      	bmi.n	8003806 <_ZN3Key4readEv+0x52>
 80037e6:	4809      	ldr	r0, [pc, #36]	; (800380c <_ZN3Key4readEv+0x58>)
 80037e8:	f7ff fc44 	bl	8003074 <_ZN5Timer8get_timeEv>
 80037ec:	42b0      	cmp	r0, r6
 80037ee:	d9f6      	bls.n	80037de <_ZN3Key4readEv+0x2a>
 80037f0:	6963      	ldr	r3, [r4, #20]
 80037f2:	2b01      	cmp	r3, #1
 80037f4:	d1f3      	bne.n	80037de <_ZN3Key4readEv+0x2a>
 80037f6:	2232      	movs	r2, #50	; 0x32
 80037f8:	7c21      	ldrb	r1, [r4, #16]
 80037fa:	4628      	mov	r0, r5
 80037fc:	f7ff fc2e 	bl	800305c <_ZN5Timer10set_periodEhj>
 8003800:	2302      	movs	r3, #2
 8003802:	6163      	str	r3, [r4, #20]
 8003804:	e7eb      	b.n	80037de <_ZN3Key4readEv+0x2a>
 8003806:	6960      	ldr	r0, [r4, #20]
 8003808:	bd70      	pop	{r4, r5, r6, pc}
 800380a:	bf00      	nop
 800380c:	2000026c 	andcs	r0, r0, ip, ror #4

08003810 <_ZN3IMUD1Ev>:
 8003810:	4770      	bx	lr

08003812 <_ZN3IMUD0Ev>:
 8003812:	b510      	push	{r4, lr}
 8003814:	2144      	movs	r1, #68	; 0x44
 8003816:	4604      	mov	r4, r0
 8003818:	f7fe fc42 	bl	80020a0 <_ZdlPvj>
 800381c:	4620      	mov	r0, r4
 800381e:	bd10      	pop	{r4, pc}

08003820 <_ZN3IMUC1Ev>:
 8003820:	4b01      	ldr	r3, [pc, #4]	; (8003828 <_ZN3IMUC1Ev+0x8>)
 8003822:	6003      	str	r3, [r0, #0]
 8003824:	4770      	bx	lr
 8003826:	bf00      	nop
 8003828:	08003f80 	stmdaeq	r0, {r7, r8, r9, sl, fp, ip, sp}

0800382c <_ZN3IMU4readEb>:
 800382c:	e92d 41f0 	stmdb	sp!, {r4, r5, r6, r7, r8, lr}
 8003830:	4604      	mov	r4, r0
 8003832:	6c00      	ldr	r0, [r0, #64]	; 0x40
 8003834:	6803      	ldr	r3, [r0, #0]
 8003836:	689b      	ldr	r3, [r3, #8]
 8003838:	4688      	mov	r8, r1
 800383a:	4798      	blx	r3
 800383c:	6c20      	ldr	r0, [r4, #64]	; 0x40
 800383e:	6803      	ldr	r3, [r0, #0]
 8003840:	21d4      	movs	r1, #212	; 0xd4
 8003842:	695b      	ldr	r3, [r3, #20]
 8003844:	4798      	blx	r3
 8003846:	6c20      	ldr	r0, [r4, #64]	; 0x40
 8003848:	6803      	ldr	r3, [r0, #0]
 800384a:	2119      	movs	r1, #25
 800384c:	695b      	ldr	r3, [r3, #20]
 800384e:	4798      	blx	r3
 8003850:	6c20      	ldr	r0, [r4, #64]	; 0x40
 8003852:	6803      	ldr	r3, [r0, #0]
 8003854:	689b      	ldr	r3, [r3, #8]
 8003856:	4798      	blx	r3
 8003858:	6c20      	ldr	r0, [r4, #64]	; 0x40
 800385a:	6803      	ldr	r3, [r0, #0]
 800385c:	21d5      	movs	r1, #213	; 0xd5
 800385e:	695b      	ldr	r3, [r3, #20]
 8003860:	4798      	blx	r3
 8003862:	6c20      	ldr	r0, [r4, #64]	; 0x40
 8003864:	6803      	ldr	r3, [r0, #0]
 8003866:	2101      	movs	r1, #1
 8003868:	699b      	ldr	r3, [r3, #24]
 800386a:	4798      	blx	r3
 800386c:	0200      	lsls	r0, r0, #8
 800386e:	b207      	sxth	r7, r0
