
bin/main.elf:     file format elf32-littlearm


Disassembly of section .isr_vector:

08000000 <InterruptVector>:
 8000000:	20040000 	andcs	r0, r4, r0
 8000004:	080001e5 	stmdaeq	r0, {r0, r2, r5, r6, r7, r8}
 8000008:	080001c9 	stmdaeq	r0, {r0, r3, r6, r7, r8}
 800000c:	080001db 	stmdaeq	r0, {r0, r1, r3, r4, r6, r7, r8}
 8000010:	080001c9 	stmdaeq	r0, {r0, r3, r6, r7, r8}
 8000014:	080001c9 	stmdaeq	r0, {r0, r3, r6, r7, r8}
 8000018:	080001c9 	stmdaeq	r0, {r0, r3, r6, r7, r8}
 800001c:	00000000 	andeq	r0, r0, r0
 8000020:	00000000 	andeq	r0, r0, r0
 8000024:	00000000 	andeq	r0, r0, r0
 8000028:	00000000 	andeq	r0, r0, r0
 800002c:	080001c9 	stmdaeq	r0, {r0, r3, r6, r7, r8}
 8000030:	080001c9 	stmdaeq	r0, {r0, r3, r6, r7, r8}
 8000034:	00000000 	andeq	r0, r0, r0
 8000038:	080001c9 	stmdaeq	r0, {r0, r3, r6, r7, r8}
 800003c:	080001c9 	stmdaeq	r0, {r0, r3, r6, r7, r8}
 8000040:	080001c9 	stmdaeq	r0, {r0, r3, r6, r7, r8}
 8000044:	080001c9 	stmdaeq	r0, {r0, r3, r6, r7, r8}
 8000048:	080001c9 	stmdaeq	r0, {r0, r3, r6, r7, r8}
 800004c:	080001c9 	stmdaeq	r0, {r0, r3, r6, r7, r8}
 8000050:	080001c9 	stmdaeq	r0, {r0, r3, r6, r7, r8}
 8000054:	080001c9 	stmdaeq	r0, {r0, r3, r6, r7, r8}
 8000058:	080001c9 	stmdaeq	r0, {r0, r3, r6, r7, r8}
 800005c:	080001c9 	stmdaeq	r0, {r0, r3, r6, r7, r8}
 8000060:	080001c9 	stmdaeq	r0, {r0, r3, r6, r7, r8}
 8000064:	080001c9 	stmdaeq	r0, {r0, r3, r6, r7, r8}
 8000068:	080001c9 	stmdaeq	r0, {r0, r3, r6, r7, r8}
 800006c:	080001c9 	stmdaeq	r0, {r0, r3, r6, r7, r8}
 8000070:	080001c9 	stmdaeq	r0, {r0, r3, r6, r7, r8}
 8000074:	080001c9 	stmdaeq	r0, {r0, r3, r6, r7, r8}
 8000078:	080001c9 	stmdaeq	r0, {r0, r3, r6, r7, r8}
 800007c:	080001c9 	stmdaeq	r0, {r0, r3, r6, r7, r8}
 8000080:	080001c9 	stmdaeq	r0, {r0, r3, r6, r7, r8}
 8000084:	080001c9 	stmdaeq	r0, {r0, r3, r6, r7, r8}
 8000088:	080001c9 	stmdaeq	r0, {r0, r3, r6, r7, r8}
 800008c:	080001c9 	stmdaeq	r0, {r0, r3, r6, r7, r8}
 8000090:	080001c9 	stmdaeq	r0, {r0, r3, r6, r7, r8}
 8000094:	080001c9 	stmdaeq	r0, {r0, r3, r6, r7, r8}
 8000098:	080001c9 	stmdaeq	r0, {r0, r3, r6, r7, r8}
 800009c:	080001c9 	stmdaeq	r0, {r0, r3, r6, r7, r8}
 80000a0:	080001c9 	stmdaeq	r0, {r0, r3, r6, r7, r8}
 80000a4:	080001c9 	stmdaeq	r0, {r0, r3, r6, r7, r8}
 80000a8:	080001c9 	stmdaeq	r0, {r0, r3, r6, r7, r8}
 80000ac:	080001c9 	stmdaeq	r0, {r0, r3, r6, r7, r8}
 80000b0:	08001dfd 	stmdaeq	r0, {r0, r2, r3, r4, r5, r6, r7, r8, sl, fp, ip}
 80000b4:	080001c9 	stmdaeq	r0, {r0, r3, r6, r7, r8}
 80000b8:	080001c9 	stmdaeq	r0, {r0, r3, r6, r7, r8}
 80000bc:	080001c9 	stmdaeq	r0, {r0, r3, r6, r7, r8}
 80000c0:	080001c9 	stmdaeq	r0, {r0, r3, r6, r7, r8}
 80000c4:	080001c9 	stmdaeq	r0, {r0, r3, r6, r7, r8}
 80000c8:	080001c9 	stmdaeq	r0, {r0, r3, r6, r7, r8}
 80000cc:	080001c9 	stmdaeq	r0, {r0, r3, r6, r7, r8}
 80000d0:	080001c9 	stmdaeq	r0, {r0, r3, r6, r7, r8}
 80000d4:	080001c9 	stmdaeq	r0, {r0, r3, r6, r7, r8}
 80000d8:	080001c9 	stmdaeq	r0, {r0, r3, r6, r7, r8}
 80000dc:	080001c9 	stmdaeq	r0, {r0, r3, r6, r7, r8}
 80000e0:	080001c9 	stmdaeq	r0, {r0, r3, r6, r7, r8}
 80000e4:	080001c9 	stmdaeq	r0, {r0, r3, r6, r7, r8}
 80000e8:	080001c9 	stmdaeq	r0, {r0, r3, r6, r7, r8}
 80000ec:	080001c9 	stmdaeq	r0, {r0, r3, r6, r7, r8}
 80000f0:	080001c9 	stmdaeq	r0, {r0, r3, r6, r7, r8}
 80000f4:	080001c9 	stmdaeq	r0, {r0, r3, r6, r7, r8}
 80000f8:	080001c9 	stmdaeq	r0, {r0, r3, r6, r7, r8}
 80000fc:	080001c9 	stmdaeq	r0, {r0, r3, r6, r7, r8}
 8000100:	080001c9 	stmdaeq	r0, {r0, r3, r6, r7, r8}
 8000104:	080001c9 	stmdaeq	r0, {r0, r3, r6, r7, r8}
 8000108:	080001c9 	stmdaeq	r0, {r0, r3, r6, r7, r8}
 800010c:	080001c9 	stmdaeq	r0, {r0, r3, r6, r7, r8}
 8000110:	080001c9 	stmdaeq	r0, {r0, r3, r6, r7, r8}
 8000114:	080001c9 	stmdaeq	r0, {r0, r3, r6, r7, r8}
 8000118:	080001c9 	stmdaeq	r0, {r0, r3, r6, r7, r8}
 800011c:	080001c9 	stmdaeq	r0, {r0, r3, r6, r7, r8}
 8000120:	080001c9 	stmdaeq	r0, {r0, r3, r6, r7, r8}
 8000124:	080001c9 	stmdaeq	r0, {r0, r3, r6, r7, r8}
 8000128:	080001c9 	stmdaeq	r0, {r0, r3, r6, r7, r8}
 800012c:	080001c9 	stmdaeq	r0, {r0, r3, r6, r7, r8}
 8000130:	080001c9 	stmdaeq	r0, {r0, r3, r6, r7, r8}
 8000134:	080001c9 	stmdaeq	r0, {r0, r3, r6, r7, r8}
 8000138:	080001c9 	stmdaeq	r0, {r0, r3, r6, r7, r8}
 800013c:	080001c9 	stmdaeq	r0, {r0, r3, r6, r7, r8}
 8000140:	080001c9 	stmdaeq	r0, {r0, r3, r6, r7, r8}
 8000144:	080001c9 	stmdaeq	r0, {r0, r3, r6, r7, r8}
 8000148:	080001c9 	stmdaeq	r0, {r0, r3, r6, r7, r8}
 800014c:	080001c9 	stmdaeq	r0, {r0, r3, r6, r7, r8}
 8000150:	080001c9 	stmdaeq	r0, {r0, r3, r6, r7, r8}
 8000154:	080001c9 	stmdaeq	r0, {r0, r3, r6, r7, r8}
 8000158:	080001c9 	stmdaeq	r0, {r0, r3, r6, r7, r8}
 800015c:	080001c9 	stmdaeq	r0, {r0, r3, r6, r7, r8}
 8000160:	080001c9 	stmdaeq	r0, {r0, r3, r6, r7, r8}
 8000164:	080001c9 	stmdaeq	r0, {r0, r3, r6, r7, r8}
 8000168:	080001c9 	stmdaeq	r0, {r0, r3, r6, r7, r8}
 800016c:	080001c9 	stmdaeq	r0, {r0, r3, r6, r7, r8}
 8000170:	080001c9 	stmdaeq	r0, {r0, r3, r6, r7, r8}
 8000174:	080001c9 	stmdaeq	r0, {r0, r3, r6, r7, r8}
 8000178:	080001c9 	stmdaeq	r0, {r0, r3, r6, r7, r8}
 800017c:	00000000 	andeq	r0, r0, r0
 8000180:	080001c9 	stmdaeq	r0, {r0, r3, r6, r7, r8}
 8000184:	080001c9 	stmdaeq	r0, {r0, r3, r6, r7, r8}
 8000188:	080001c9 	stmdaeq	r0, {r0, r3, r6, r7, r8}
 800018c:	080001c9 	stmdaeq	r0, {r0, r3, r6, r7, r8}
 8000190:	080001c9 	stmdaeq	r0, {r0, r3, r6, r7, r8}
 8000194:	080001c9 	stmdaeq	r0, {r0, r3, r6, r7, r8}
 8000198:	080001c9 	stmdaeq	r0, {r0, r3, r6, r7, r8}
 800019c:	080001c9 	stmdaeq	r0, {r0, r3, r6, r7, r8}
 80001a0:	080001c9 	stmdaeq	r0, {r0, r3, r6, r7, r8}
 80001a4:	080001c9 	stmdaeq	r0, {r0, r3, r6, r7, r8}
 80001a8:	080001c9 	stmdaeq	r0, {r0, r3, r6, r7, r8}
 80001ac:	080001c9 	stmdaeq	r0, {r0, r3, r6, r7, r8}
 80001b0:	080001c9 	stmdaeq	r0, {r0, r3, r6, r7, r8}
 80001b4:	080001c9 	stmdaeq	r0, {r0, r3, r6, r7, r8}
 80001b8:	080001c9 	stmdaeq	r0, {r0, r3, r6, r7, r8}
 80001bc:	080001c9 	stmdaeq	r0, {r0, r3, r6, r7, r8}
 80001c0:	080001c9 	stmdaeq	r0, {r0, r3, r6, r7, r8}
 80001c4:	080001c9 	stmdaeq	r0, {r0, r3, r6, r7, r8}

Disassembly of section .text:

080001c8 <Default_Handler>:
 80001c8:	4668      	mov	r0, sp
 80001ca:	f020 0107 	bic.w	r1, r0, #7
 80001ce:	468d      	mov	sp, r1
 80001d0:	b501      	push	{r0, lr}
 80001d2:	e8bd 4001 	ldmia.w	sp!, {r0, lr}
 80001d6:	4685      	mov	sp, r0
 80001d8:	4770      	bx	lr

080001da <HardFault_Handler>:
 80001da:	4668      	mov	r0, sp
 80001dc:	f020 0107 	bic.w	r1, r0, #7
 80001e0:	468d      	mov	sp, r1
 80001e2:	e7fe      	b.n	80001e2 <HardFault_Handler+0x8>

080001e4 <Reset_Handler>:
 80001e4:	4915      	ldr	r1, [pc, #84]	; (800023c <Reset_Handler+0x58>)
 80001e6:	4a16      	ldr	r2, [pc, #88]	; (8000240 <Reset_Handler+0x5c>)
 80001e8:	4816      	ldr	r0, [pc, #88]	; (8000244 <Reset_Handler+0x60>)
 80001ea:	1a52      	subs	r2, r2, r1
 80001ec:	1092      	asrs	r2, r2, #2
 80001ee:	2300      	movs	r3, #0
 80001f0:	429a      	cmp	r2, r3
 80001f2:	d117      	bne.n	8000224 <Reset_Handler+0x40>
 80001f4:	4a14      	ldr	r2, [pc, #80]	; (8000248 <Reset_Handler+0x64>)
 80001f6:	4e15      	ldr	r6, [pc, #84]	; (800024c <Reset_Handler+0x68>)
 80001f8:	f8d2 3088 	ldr.w	r3, [r2, #136]	; 0x88
 80001fc:	4c14      	ldr	r4, [pc, #80]	; (8000250 <Reset_Handler+0x6c>)
 80001fe:	f443 0370 	orr.w	r3, r3, #15728640	; 0xf00000
 8000202:	f8c2 3088 	str.w	r3, [r2, #136]	; 0x88
 8000206:	f8d2 3234 	ldr.w	r3, [r2, #564]	; 0x234
 800020a:	1ba4      	subs	r4, r4, r6
 800020c:	f043 4340 	orr.w	r3, r3, #3221225472	; 0xc0000000
 8000210:	f8c2 3234 	str.w	r3, [r2, #564]	; 0x234
 8000214:	10a4      	asrs	r4, r4, #2
 8000216:	2500      	movs	r5, #0
 8000218:	42a5      	cmp	r5, r4
 800021a:	d109      	bne.n	8000230 <Reset_Handler+0x4c>
 800021c:	f000 f81a 	bl	8000254 <SystemInit>
 8000220:	f001 b806 	b.w	8001230 <main>
 8000224:	f850 4023 	ldr.w	r4, [r0, r3, lsl #2]
 8000228:	f841 4023 	str.w	r4, [r1, r3, lsl #2]
 800022c:	3301      	adds	r3, #1
 800022e:	e7df      	b.n	80001f0 <Reset_Handler+0xc>
 8000230:	f856 3025 	ldr.w	r3, [r6, r5, lsl #2]
 8000234:	4798      	blx	r3
 8000236:	3501      	adds	r5, #1
 8000238:	e7ee      	b.n	8000218 <Reset_Handler+0x34>
 800023a:	bf00      	nop
 800023c:	20000000 	andcs	r0, r0, r0
 8000240:	20000004 	andcs	r0, r0, r4
 8000244:	08002968 	stmdaeq	r0, {r3, r5, r6, r8, fp, sp}
 8000248:	e000ed00 	and	lr, r0, r0, lsl #26
 800024c:	08002968 	stmdaeq	r0, {r3, r5, r6, r8, fp, sp}
 8000250:	0800296c 	stmdaeq	r0, {r2, r3, r5, r6, r8, fp, sp}

08000254 <SystemInit>:
 8000254:	490f      	ldr	r1, [pc, #60]	; (8000294 <SystemInit+0x40>)
 8000256:	f8d1 3088 	ldr.w	r3, [r1, #136]	; 0x88
 800025a:	f443 0370 	orr.w	r3, r3, #15728640	; 0xf00000
 800025e:	f8c1 3088 	str.w	r3, [r1, #136]	; 0x88
 8000262:	4b0d      	ldr	r3, [pc, #52]	; (8000298 <SystemInit+0x44>)
 8000264:	681a      	ldr	r2, [r3, #0]
 8000266:	2000      	movs	r0, #0
 8000268:	f042 0201 	orr.w	r2, r2, #1
 800026c:	601a      	str	r2, [r3, #0]
 800026e:	6098      	str	r0, [r3, #8]
 8000270:	681a      	ldr	r2, [r3, #0]
 8000272:	f022 7284 	bic.w	r2, r2, #17301504	; 0x1080000
 8000276:	f422 3280 	bic.w	r2, r2, #65536	; 0x10000
 800027a:	601a      	str	r2, [r3, #0]
 800027c:	4a07      	ldr	r2, [pc, #28]	; (800029c <SystemInit+0x48>)
 800027e:	605a      	str	r2, [r3, #4]
 8000280:	681a      	ldr	r2, [r3, #0]
 8000282:	f422 2280 	bic.w	r2, r2, #262144	; 0x40000
 8000286:	601a      	str	r2, [r3, #0]
 8000288:	60d8      	str	r0, [r3, #12]
 800028a:	f04f 6300 	mov.w	r3, #134217728	; 0x8000000
 800028e:	608b      	str	r3, [r1, #8]
 8000290:	4770      	bx	lr
 8000292:	bf00      	nop
 8000294:	e000ed00 	and	lr, r0, r0, lsl #26
 8000298:	40023800 	andmi	r3, r2, r0, lsl #16
 800029c:	24003010 	strcs	r3, [r0], #-16

080002a0 <HAL_UART_MspInit>:
 80002a0:	4770      	bx	lr

080002a2 <UART_WaitOnFlagUntilTimeout>:
 80002a2:	e92d 41f0 	stmdb	sp!, {r4, r5, r6, r7, r8, lr}
 80002a6:	9d06      	ldr	r5, [sp, #24]
 80002a8:	4604      	mov	r4, r0
 80002aa:	460f      	mov	r7, r1
 80002ac:	4616      	mov	r6, r2
 80002ae:	4698      	mov	r8, r3
 80002b0:	6821      	ldr	r1, [r4, #0]
 80002b2:	69ca      	ldr	r2, [r1, #28]
 80002b4:	ea37 0302 	bics.w	r3, r7, r2
 80002b8:	bf0c      	ite	eq
 80002ba:	2201      	moveq	r2, #1
 80002bc:	2200      	movne	r2, #0
 80002be:	42b2      	cmp	r2, r6
 80002c0:	d002      	beq.n	80002c8 <UART_WaitOnFlagUntilTimeout+0x26>
 80002c2:	2000      	movs	r0, #0
 80002c4:	e8bd 81f0 	ldmia.w	sp!, {r4, r5, r6, r7, r8, pc}
 80002c8:	1c6b      	adds	r3, r5, #1
 80002ca:	d0f2      	beq.n	80002b2 <UART_WaitOnFlagUntilTimeout+0x10>
 80002cc:	b99d      	cbnz	r5, 80002f6 <UART_WaitOnFlagUntilTimeout+0x54>
 80002ce:	6823      	ldr	r3, [r4, #0]
 80002d0:	681a      	ldr	r2, [r3, #0]
 80002d2:	f422 72d0 	bic.w	r2, r2, #416	; 0x1a0
 80002d6:	601a      	str	r2, [r3, #0]
 80002d8:	689a      	ldr	r2, [r3, #8]
 80002da:	f022 0201 	bic.w	r2, r2, #1
 80002de:	609a      	str	r2, [r3, #8]
 80002e0:	2320      	movs	r3, #32
 80002e2:	f884 3069 	strb.w	r3, [r4, #105]	; 0x69
 80002e6:	f884 306a 	strb.w	r3, [r4, #106]	; 0x6a
 80002ea:	2300      	movs	r3, #0
 80002ec:	f884 3068 	strb.w	r3, [r4, #104]	; 0x68
 80002f0:	2003      	movs	r0, #3
 80002f2:	e8bd 81f0 	ldmia.w	sp!, {r4, r5, r6, r7, r8, pc}
 80002f6:	f000 fa09 	bl	800070c <HAL_GetTick>
 80002fa:	eba0 0008 	sub.w	r0, r0, r8
 80002fe:	4285      	cmp	r5, r0
 8000300:	d8d6      	bhi.n	80002b0 <UART_WaitOnFlagUntilTimeout+0xe>
 8000302:	e7e4      	b.n	80002ce <UART_WaitOnFlagUntilTimeout+0x2c>

08000304 <UART_SetConfig>:
 8000304:	b538      	push	{r3, r4, r5, lr}
 8000306:	4604      	mov	r4, r0
 8000308:	6805      	ldr	r5, [r0, #0]
 800030a:	6921      	ldr	r1, [r4, #16]
 800030c:	68a2      	ldr	r2, [r4, #8]
 800030e:	69c3      	ldr	r3, [r0, #28]
 8000310:	6828      	ldr	r0, [r5, #0]
 8000312:	430a      	orrs	r2, r1
 8000314:	6961      	ldr	r1, [r4, #20]
 8000316:	430a      	orrs	r2, r1
 8000318:	4993      	ldr	r1, [pc, #588]	; (8000568 <UART_SetConfig+0x264>)
 800031a:	431a      	orrs	r2, r3
 800031c:	4001      	ands	r1, r0
 800031e:	430a      	orrs	r2, r1
 8000320:	602a      	str	r2, [r5, #0]
 8000322:	686a      	ldr	r2, [r5, #4]
 8000324:	68e1      	ldr	r1, [r4, #12]
 8000326:	6a20      	ldr	r0, [r4, #32]
 8000328:	f422 5240 	bic.w	r2, r2, #12288	; 0x3000
 800032c:	430a      	orrs	r2, r1
 800032e:	606a      	str	r2, [r5, #4]
 8000330:	68a9      	ldr	r1, [r5, #8]
 8000332:	69a2      	ldr	r2, [r4, #24]
 8000334:	f421 6130 	bic.w	r1, r1, #2816	; 0xb00
 8000338:	4302      	orrs	r2, r0
 800033a:	430a      	orrs	r2, r1
 800033c:	60aa      	str	r2, [r5, #8]
 800033e:	4a8b      	ldr	r2, [pc, #556]	; (800056c <UART_SetConfig+0x268>)
 8000340:	4295      	cmp	r5, r2
 8000342:	d119      	bne.n	8000378 <UART_SetConfig+0x74>
 8000344:	f502 3294 	add.w	r2, r2, #75776	; 0x12800
 8000348:	4989      	ldr	r1, [pc, #548]	; (8000570 <UART_SetConfig+0x26c>)
 800034a:	f8d2 2090 	ldr.w	r2, [r2, #144]	; 0x90
 800034e:	f002 0203 	and.w	r2, r2, #3
 8000352:	f5b3 4f00 	cmp.w	r3, #32768	; 0x8000
 8000356:	5c8a      	ldrb	r2, [r1, r2]
 8000358:	f040 80b3 	bne.w	80004c2 <UART_SetConfig+0x1be>
 800035c:	2a08      	cmp	r2, #8
 800035e:	f200 80ad 	bhi.w	80004bc <UART_SetConfig+0x1b8>
 8000362:	e8df f012 	tbh	[pc, r2, lsl #1]
 8000366:	007b0026 	rsbseq	r0, fp, r6, lsr #32
 800036a:	00ab00e9 	adceq	r0, fp, r9, ror #1
 800036e:	00ab00f5 	strdeq	r0, [fp], r5	; <UNPREDICTABLE>
 8000372:	00ab00ab 	adceq	r0, fp, fp, lsr #1
 8000376:	4a7e00fb 	bmi	9f8076a <_sidata+0x1f7ddfe>
 800037a:	4295      	cmp	r5, r2
 800037c:	d107      	bne.n	800038e <UART_SetConfig+0x8a>
 800037e:	f502 32fa 	add.w	r2, r2, #128000	; 0x1f400
 8000382:	497d      	ldr	r1, [pc, #500]	; (8000578 <UART_SetConfig+0x274>)
 8000384:	f8d2 2090 	ldr.w	r2, [r2, #144]	; 0x90
 8000388:	f002 020c 	and.w	r2, r2, #12
 800038c:	e7e1      	b.n	8000352 <UART_SetConfig+0x4e>
 800038e:	4a7b      	ldr	r2, [pc, #492]	; (800057c <UART_SetConfig+0x278>)
 8000390:	4295      	cmp	r5, r2
 8000392:	d12b      	bne.n	80003ec <UART_SetConfig+0xe8>
 8000394:	f502 32f8 	add.w	r2, r2, #126976	; 0x1f000
 8000398:	f8d2 2090 	ldr.w	r2, [r2, #144]	; 0x90
 800039c:	f002 0230 	and.w	r2, r2, #48	; 0x30
 80003a0:	2a10      	cmp	r2, #16
 80003a2:	f000 80d2 	beq.w	800054a <UART_SetConfig+0x246>
 80003a6:	d816      	bhi.n	80003d6 <UART_SetConfig+0xd2>
 80003a8:	b9da      	cbnz	r2, 80003e2 <UART_SetConfig+0xde>
 80003aa:	f5b3 4f00 	cmp.w	r3, #32768	; 0x8000
 80003ae:	f040 809f 	bne.w	80004f0 <UART_SetConfig+0x1ec>
 80003b2:	f000 fd6f 	bl	8000e94 <HAL_RCC_GetPCLK1Freq>
 80003b6:	6861      	ldr	r1, [r4, #4]
 80003b8:	084a      	lsrs	r2, r1, #1
 80003ba:	eb02 0340 	add.w	r3, r2, r0, lsl #1
 80003be:	fbb3 f3f1 	udiv	r3, r3, r1
 80003c2:	b29b      	uxth	r3, r3
 80003c4:	2000      	movs	r0, #0
 80003c6:	f023 020f 	bic.w	r2, r3, #15
 80003ca:	6821      	ldr	r1, [r4, #0]
 80003cc:	f3c3 0342 	ubfx	r3, r3, #1, #3
 80003d0:	4313      	orrs	r3, r2
 80003d2:	60cb      	str	r3, [r1, #12]
 80003d4:	bd38      	pop	{r3, r4, r5, pc}
 80003d6:	2a20      	cmp	r2, #32
 80003d8:	f000 80ab 	beq.w	8000532 <UART_SetConfig+0x22e>
 80003dc:	2a30      	cmp	r2, #48	; 0x30
 80003de:	f000 80ba 	beq.w	8000556 <UART_SetConfig+0x252>
 80003e2:	f5b3 4f00 	cmp.w	r3, #32768	; 0x8000
 80003e6:	d069      	beq.n	80004bc <UART_SetConfig+0x1b8>
 80003e8:	2001      	movs	r0, #1
 80003ea:	bd38      	pop	{r3, r4, r5, pc}
 80003ec:	4a64      	ldr	r2, [pc, #400]	; (8000580 <UART_SetConfig+0x27c>)
 80003ee:	4295      	cmp	r5, r2
 80003f0:	d10e      	bne.n	8000410 <UART_SetConfig+0x10c>
 80003f2:	f502 32f6 	add.w	r2, r2, #125952	; 0x1ec00
 80003f6:	f8d2 2090 	ldr.w	r2, [r2, #144]	; 0x90
 80003fa:	f002 02c0 	and.w	r2, r2, #192	; 0xc0
 80003fe:	2a40      	cmp	r2, #64	; 0x40
 8000400:	f000 80a3 	beq.w	800054a <UART_SetConfig+0x246>
 8000404:	d9d0      	bls.n	80003a8 <UART_SetConfig+0xa4>
 8000406:	2a80      	cmp	r2, #128	; 0x80
 8000408:	f000 8093 	beq.w	8000532 <UART_SetConfig+0x22e>
 800040c:	2ac0      	cmp	r2, #192	; 0xc0
 800040e:	e7e6      	b.n	80003de <UART_SetConfig+0xda>
 8000410:	4a5c      	ldr	r2, [pc, #368]	; (8000584 <UART_SetConfig+0x280>)
 8000412:	4295      	cmp	r5, r2
 8000414:	d110      	bne.n	8000438 <UART_SetConfig+0x134>
 8000416:	f502 32f4 	add.w	r2, r2, #124928	; 0x1e800
 800041a:	f8d2 2090 	ldr.w	r2, [r2, #144]	; 0x90
 800041e:	f402 7240 	and.w	r2, r2, #768	; 0x300
 8000422:	f5b2 7f80 	cmp.w	r2, #256	; 0x100
 8000426:	f000 8090 	beq.w	800054a <UART_SetConfig+0x246>
 800042a:	d9bd      	bls.n	80003a8 <UART_SetConfig+0xa4>
 800042c:	f5b2 7f00 	cmp.w	r2, #512	; 0x200
 8000430:	d07f      	beq.n	8000532 <UART_SetConfig+0x22e>
 8000432:	f5b2 7f40 	cmp.w	r2, #768	; 0x300
 8000436:	e7d2      	b.n	80003de <UART_SetConfig+0xda>
 8000438:	4a53      	ldr	r2, [pc, #332]	; (8000588 <UART_SetConfig+0x284>)
 800043a:	4295      	cmp	r5, r2
 800043c:	d117      	bne.n	800046e <UART_SetConfig+0x16a>
 800043e:	f502 3292 	add.w	r2, r2, #74752	; 0x12400
 8000442:	f8d2 2090 	ldr.w	r2, [r2, #144]	; 0x90
 8000446:	f402 6240 	and.w	r2, r2, #3072	; 0xc00
 800044a:	f5b2 6f80 	cmp.w	r2, #1024	; 0x400
 800044e:	d07c      	beq.n	800054a <UART_SetConfig+0x246>
 8000450:	d807      	bhi.n	8000462 <UART_SetConfig+0x15e>
 8000452:	2a00      	cmp	r2, #0
 8000454:	d1c5      	bne.n	80003e2 <UART_SetConfig+0xde>
 8000456:	f5b3 4f00 	cmp.w	r3, #32768	; 0x8000
 800045a:	d154      	bne.n	8000506 <UART_SetConfig+0x202>
 800045c:	f000 fd2a 	bl	8000eb4 <HAL_RCC_GetPCLK2Freq>
 8000460:	e7a9      	b.n	80003b6 <UART_SetConfig+0xb2>
 8000462:	f5b2 6f00 	cmp.w	r2, #2048	; 0x800
 8000466:	d064      	beq.n	8000532 <UART_SetConfig+0x22e>
 8000468:	f5b2 6f40 	cmp.w	r2, #3072	; 0xc00
 800046c:	e7b7      	b.n	80003de <UART_SetConfig+0xda>
 800046e:	4a47      	ldr	r2, [pc, #284]	; (800058c <UART_SetConfig+0x288>)
 8000470:	4295      	cmp	r5, r2
 8000472:	d10f      	bne.n	8000494 <UART_SetConfig+0x190>
 8000474:	f502 32e0 	add.w	r2, r2, #114688	; 0x1c000
 8000478:	f8d2 2090 	ldr.w	r2, [r2, #144]	; 0x90
 800047c:	f402 5240 	and.w	r2, r2, #12288	; 0x3000
 8000480:	f5b2 5f80 	cmp.w	r2, #4096	; 0x1000
 8000484:	d061      	beq.n	800054a <UART_SetConfig+0x246>
 8000486:	d98f      	bls.n	80003a8 <UART_SetConfig+0xa4>
 8000488:	f5b2 5f00 	cmp.w	r2, #8192	; 0x2000
 800048c:	d051      	beq.n	8000532 <UART_SetConfig+0x22e>
 800048e:	f5b2 5f40 	cmp.w	r2, #12288	; 0x3000
 8000492:	e7a4      	b.n	80003de <UART_SetConfig+0xda>
 8000494:	4a3e      	ldr	r2, [pc, #248]	; (8000590 <UART_SetConfig+0x28c>)
 8000496:	4295      	cmp	r5, r2
 8000498:	d1a3      	bne.n	80003e2 <UART_SetConfig+0xde>
 800049a:	f502 32de 	add.w	r2, r2, #113664	; 0x1bc00
 800049e:	f8d2 2090 	ldr.w	r2, [r2, #144]	; 0x90
 80004a2:	f402 4240 	and.w	r2, r2, #49152	; 0xc000
 80004a6:	f5b2 4f80 	cmp.w	r2, #16384	; 0x4000
 80004aa:	d04e      	beq.n	800054a <UART_SetConfig+0x246>
 80004ac:	f67f af7c 	bls.w	80003a8 <UART_SetConfig+0xa4>
 80004b0:	f5b2 4f00 	cmp.w	r2, #32768	; 0x8000
 80004b4:	d03d      	beq.n	8000532 <UART_SetConfig+0x22e>
 80004b6:	f5b2 4f40 	cmp.w	r2, #49152	; 0xc000
 80004ba:	e790      	b.n	80003de <UART_SetConfig+0xda>
 80004bc:	2001      	movs	r0, #1
 80004be:	2300      	movs	r3, #0
 80004c0:	e781      	b.n	80003c6 <UART_SetConfig+0xc2>
 80004c2:	2a08      	cmp	r2, #8
 80004c4:	d890      	bhi.n	80003e8 <UART_SetConfig+0xe4>
 80004c6:	a301      	add	r3, pc, #4	; (adr r3, 80004cc <UART_SetConfig+0x1c8>)
 80004c8:	f853 f022 	ldr.w	pc, [r3, r2, lsl #2]
 80004cc:	080004f1 	stmdaeq	r0, {r0, r4, r5, r6, r7, sl}
 80004d0:	08000507 	stmdaeq	r0, {r0, r1, r2, r8, sl}
 80004d4:	0800050d 	stmdaeq	r0, {r0, r2, r3, r8, sl}
 80004d8:	080003e9 	stmdaeq	r0, {r0, r3, r5, r6, r7, r8, r9}
 80004dc:	08000523 	stmdaeq	r0, {r0, r1, r5, r8, sl}
 80004e0:	080003e9 	stmdaeq	r0, {r0, r3, r5, r6, r7, r8, r9}
 80004e4:	080003e9 	stmdaeq	r0, {r0, r3, r5, r6, r7, r8, r9}
 80004e8:	080003e9 	stmdaeq	r0, {r0, r3, r5, r6, r7, r8, r9}
 80004ec:	08000529 	stmdaeq	r0, {r0, r3, r5, r8, sl}
 80004f0:	f000 fcd0 	bl	8000e94 <HAL_RCC_GetPCLK1Freq>
 80004f4:	6863      	ldr	r3, [r4, #4]
 80004f6:	eb00 0053 	add.w	r0, r0, r3, lsr #1
 80004fa:	fbb0 f0f3 	udiv	r0, r0, r3
 80004fe:	b280      	uxth	r0, r0
 8000500:	60e8      	str	r0, [r5, #12]
 8000502:	2000      	movs	r0, #0
 8000504:	bd38      	pop	{r3, r4, r5, pc}
 8000506:	f000 fcd5 	bl	8000eb4 <HAL_RCC_GetPCLK2Freq>
 800050a:	e7f3      	b.n	80004f4 <UART_SetConfig+0x1f0>
 800050c:	6862      	ldr	r2, [r4, #4]
 800050e:	0853      	lsrs	r3, r2, #1
 8000510:	f503 0374 	add.w	r3, r3, #15990784	; 0xf40000
 8000514:	f503 5310 	add.w	r3, r3, #9216	; 0x2400
 8000518:	fbb3 f3f2 	udiv	r3, r3, r2
 800051c:	b29b      	uxth	r3, r3
 800051e:	60eb      	str	r3, [r5, #12]
 8000520:	e7ef      	b.n	8000502 <UART_SetConfig+0x1fe>
 8000522:	f000 fbfd 	bl	8000d20 <HAL_RCC_GetSysClockFreq>
 8000526:	e7e5      	b.n	80004f4 <UART_SetConfig+0x1f0>
 8000528:	6862      	ldr	r2, [r4, #4]
 800052a:	0853      	lsrs	r3, r2, #1
 800052c:	f503 4300 	add.w	r3, r3, #32768	; 0x8000
 8000530:	e7f2      	b.n	8000518 <UART_SetConfig+0x214>
 8000532:	f5b3 4f00 	cmp.w	r3, #32768	; 0x8000
 8000536:	d1e9      	bne.n	800050c <UART_SetConfig+0x208>
 8000538:	6860      	ldr	r0, [r4, #4]
 800053a:	0843      	lsrs	r3, r0, #1
 800053c:	f103 73f4 	add.w	r3, r3, #31981568	; 0x1e80000
 8000540:	f503 4390 	add.w	r3, r3, #18432	; 0x4800
 8000544:	fbb3 f3f0 	udiv	r3, r3, r0
 8000548:	e73b      	b.n	80003c2 <UART_SetConfig+0xbe>
 800054a:	f5b3 4f00 	cmp.w	r3, #32768	; 0x8000
 800054e:	d1e8      	bne.n	8000522 <UART_SetConfig+0x21e>
 8000550:	f000 fbe6 	bl	8000d20 <HAL_RCC_GetSysClockFreq>
 8000554:	e72f      	b.n	80003b6 <UART_SetConfig+0xb2>
 8000556:	f5b3 4f00 	cmp.w	r3, #32768	; 0x8000
 800055a:	d1e5      	bne.n	8000528 <UART_SetConfig+0x224>
 800055c:	6860      	ldr	r0, [r4, #4]
 800055e:	0843      	lsrs	r3, r0, #1
 8000560:	f503 3380 	add.w	r3, r3, #65536	; 0x10000
 8000564:	e7ee      	b.n	8000544 <UART_SetConfig+0x240>
 8000566:	bf00      	nop
 8000568:	efff69f3 	svc	0x00ff69f3
 800056c:	40011000 	andmi	r1, r1, r0
 8000570:	0800274c 	stmdaeq	r0, {r2, r3, r6, r8, r9, sl, sp}
 8000574:	40004400 	andmi	r4, r0, r0, lsl #8
 8000578:	08002750 	stmdaeq	r0, {r4, r6, r8, r9, sl, sp}
 800057c:	40004800 	andmi	r4, r0, r0, lsl #16
 8000580:	40004c00 	andmi	r4, r0, r0, lsl #24
 8000584:	40005000 	andmi	r5, r0, r0
 8000588:	40011400 	andmi	r1, r1, r0, lsl #8
 800058c:	40007800 	andmi	r7, r0, r0, lsl #16
 8000590:	40007c00 	andmi	r7, r0, r0, lsl #24

08000594 <UART_AdvFeatureConfig>:
 8000594:	6a43      	ldr	r3, [r0, #36]	; 0x24
 8000596:	07da      	lsls	r2, r3, #31
 8000598:	b510      	push	{r4, lr}
 800059a:	d506      	bpl.n	80005aa <UART_AdvFeatureConfig+0x16>
 800059c:	6801      	ldr	r1, [r0, #0]
 800059e:	6a84      	ldr	r4, [r0, #40]	; 0x28
 80005a0:	684a      	ldr	r2, [r1, #4]
 80005a2:	f422 3200 	bic.w	r2, r2, #131072	; 0x20000
 80005a6:	4322      	orrs	r2, r4
 80005a8:	604a      	str	r2, [r1, #4]
 80005aa:	079c      	lsls	r4, r3, #30
 80005ac:	d506      	bpl.n	80005bc <UART_AdvFeatureConfig+0x28>
 80005ae:	6801      	ldr	r1, [r0, #0]
 80005b0:	6ac4      	ldr	r4, [r0, #44]	; 0x2c
 80005b2:	684a      	ldr	r2, [r1, #4]
 80005b4:	f422 3280 	bic.w	r2, r2, #65536	; 0x10000
 80005b8:	4322      	orrs	r2, r4
 80005ba:	604a      	str	r2, [r1, #4]
 80005bc:	0759      	lsls	r1, r3, #29
 80005be:	d506      	bpl.n	80005ce <UART_AdvFeatureConfig+0x3a>
 80005c0:	6801      	ldr	r1, [r0, #0]
 80005c2:	6b04      	ldr	r4, [r0, #48]	; 0x30
 80005c4:	684a      	ldr	r2, [r1, #4]
 80005c6:	f422 2280 	bic.w	r2, r2, #262144	; 0x40000
 80005ca:	4322      	orrs	r2, r4
 80005cc:	604a      	str	r2, [r1, #4]
 80005ce:	071a      	lsls	r2, r3, #28
 80005d0:	d506      	bpl.n	80005e0 <UART_AdvFeatureConfig+0x4c>
 80005d2:	6801      	ldr	r1, [r0, #0]
 80005d4:	6b44      	ldr	r4, [r0, #52]	; 0x34
 80005d6:	684a      	ldr	r2, [r1, #4]
 80005d8:	f422 4200 	bic.w	r2, r2, #32768	; 0x8000
 80005dc:	4322      	orrs	r2, r4
 80005de:	604a      	str	r2, [r1, #4]
 80005e0:	06dc      	lsls	r4, r3, #27
 80005e2:	d506      	bpl.n	80005f2 <UART_AdvFeatureConfig+0x5e>
 80005e4:	6801      	ldr	r1, [r0, #0]
 80005e6:	6b84      	ldr	r4, [r0, #56]	; 0x38
 80005e8:	688a      	ldr	r2, [r1, #8]
 80005ea:	f422 5280 	bic.w	r2, r2, #4096	; 0x1000
 80005ee:	4322      	orrs	r2, r4
 80005f0:	608a      	str	r2, [r1, #8]
 80005f2:	0699      	lsls	r1, r3, #26
 80005f4:	d506      	bpl.n	8000604 <UART_AdvFeatureConfig+0x70>
 80005f6:	6801      	ldr	r1, [r0, #0]
 80005f8:	6bc4      	ldr	r4, [r0, #60]	; 0x3c
 80005fa:	688a      	ldr	r2, [r1, #8]
 80005fc:	f422 5200 	bic.w	r2, r2, #8192	; 0x2000
 8000600:	4322      	orrs	r2, r4
 8000602:	608a      	str	r2, [r1, #8]
 8000604:	065a      	lsls	r2, r3, #25
 8000606:	d50f      	bpl.n	8000628 <UART_AdvFeatureConfig+0x94>
 8000608:	6801      	ldr	r1, [r0, #0]
 800060a:	6c04      	ldr	r4, [r0, #64]	; 0x40
 800060c:	684a      	ldr	r2, [r1, #4]
 800060e:	f422 1280 	bic.w	r2, r2, #1048576	; 0x100000
 8000612:	4322      	orrs	r2, r4
 8000614:	f5b4 1f80 	cmp.w	r4, #1048576	; 0x100000
 8000618:	604a      	str	r2, [r1, #4]
 800061a:	d105      	bne.n	8000628 <UART_AdvFeatureConfig+0x94>
 800061c:	684a      	ldr	r2, [r1, #4]
 800061e:	6c44      	ldr	r4, [r0, #68]	; 0x44
 8000620:	f422 02c0 	bic.w	r2, r2, #6291456	; 0x600000
 8000624:	4322      	orrs	r2, r4
 8000626:	604a      	str	r2, [r1, #4]
 8000628:	061b      	lsls	r3, r3, #24
 800062a:	d506      	bpl.n	800063a <UART_AdvFeatureConfig+0xa6>
 800062c:	6802      	ldr	r2, [r0, #0]
 800062e:	6c81      	ldr	r1, [r0, #72]	; 0x48
 8000630:	6853      	ldr	r3, [r2, #4]
 8000632:	f423 2300 	bic.w	r3, r3, #524288	; 0x80000
 8000636:	430b      	orrs	r3, r1
 8000638:	6053      	str	r3, [r2, #4]
 800063a:	bd10      	pop	{r4, pc}

0800063c <UART_CheckIdleState>:
 800063c:	b537      	push	{r0, r1, r2, r4, r5, lr}
 800063e:	4604      	mov	r4, r0
 8000640:	2500      	movs	r5, #0
 8000642:	66c5      	str	r5, [r0, #108]	; 0x6c
 8000644:	f000 f862 	bl	800070c <HAL_GetTick>
 8000648:	6822      	ldr	r2, [r4, #0]
 800064a:	6812      	ldr	r2, [r2, #0]
 800064c:	0712      	lsls	r2, r2, #28
 800064e:	4603      	mov	r3, r0
 8000650:	d409      	bmi.n	8000666 <UART_CheckIdleState+0x2a>
 8000652:	2320      	movs	r3, #32
 8000654:	2000      	movs	r0, #0
 8000656:	f884 3069 	strb.w	r3, [r4, #105]	; 0x69
 800065a:	f884 0068 	strb.w	r0, [r4, #104]	; 0x68
 800065e:	f884 306a 	strb.w	r3, [r4, #106]	; 0x6a
 8000662:	b003      	add	sp, #12
 8000664:	bd30      	pop	{r4, r5, pc}
 8000666:	f06f 427e 	mvn.w	r2, #4261412864	; 0xfe000000
 800066a:	9200      	str	r2, [sp, #0]
 800066c:	f44f 1100 	mov.w	r1, #2097152	; 0x200000
 8000670:	462a      	mov	r2, r5
 8000672:	4620      	mov	r0, r4
 8000674:	f7ff fe15 	bl	80002a2 <UART_WaitOnFlagUntilTimeout>
 8000678:	2800      	cmp	r0, #0
 800067a:	d0ea      	beq.n	8000652 <UART_CheckIdleState+0x16>
 800067c:	2003      	movs	r0, #3
 800067e:	e7f0      	b.n	8000662 <UART_CheckIdleState+0x26>

08000680 <HAL_UART_Init>:
 8000680:	b510      	push	{r4, lr}
 8000682:	4604      	mov	r4, r0
 8000684:	b360      	cbz	r0, 80006e0 <HAL_UART_Init+0x60>
 8000686:	f890 3069 	ldrb.w	r3, [r0, #105]	; 0x69
 800068a:	f003 02ff 	and.w	r2, r3, #255	; 0xff
 800068e:	b91b      	cbnz	r3, 8000698 <HAL_UART_Init+0x18>
 8000690:	f880 2068 	strb.w	r2, [r0, #104]	; 0x68
 8000694:	f7ff fe04 	bl	80002a0 <HAL_UART_MspInit>
 8000698:	6822      	ldr	r2, [r4, #0]
 800069a:	2324      	movs	r3, #36	; 0x24
 800069c:	f884 3069 	strb.w	r3, [r4, #105]	; 0x69
 80006a0:	6813      	ldr	r3, [r2, #0]
 80006a2:	f023 0301 	bic.w	r3, r3, #1
 80006a6:	6013      	str	r3, [r2, #0]
 80006a8:	4620      	mov	r0, r4
 80006aa:	f7ff fe2b 	bl	8000304 <UART_SetConfig>
 80006ae:	2801      	cmp	r0, #1
 80006b0:	d016      	beq.n	80006e0 <HAL_UART_Init+0x60>
 80006b2:	6a63      	ldr	r3, [r4, #36]	; 0x24
 80006b4:	b113      	cbz	r3, 80006bc <HAL_UART_Init+0x3c>
 80006b6:	4620      	mov	r0, r4
 80006b8:	f7ff ff6c 	bl	8000594 <UART_AdvFeatureConfig>
 80006bc:	6823      	ldr	r3, [r4, #0]
 80006be:	685a      	ldr	r2, [r3, #4]
 80006c0:	f422 4290 	bic.w	r2, r2, #18432	; 0x4800
 80006c4:	605a      	str	r2, [r3, #4]
 80006c6:	689a      	ldr	r2, [r3, #8]
 80006c8:	f022 022a 	bic.w	r2, r2, #42	; 0x2a
 80006cc:	609a      	str	r2, [r3, #8]
 80006ce:	681a      	ldr	r2, [r3, #0]
 80006d0:	f042 0201 	orr.w	r2, r2, #1
 80006d4:	4620      	mov	r0, r4
 80006d6:	601a      	str	r2, [r3, #0]
 80006d8:	e8bd 4010 	ldmia.w	sp!, {r4, lr}
 80006dc:	f7ff bfae 	b.w	800063c <UART_CheckIdleState>
 80006e0:	2001      	movs	r0, #1
 80006e2:	bd10      	pop	{r4, pc}

080006e4 <HAL_InitTick>:
 80006e4:	b510      	push	{r4, lr}
 80006e6:	4b08      	ldr	r3, [pc, #32]	; (8000708 <HAL_InitTick+0x24>)
 80006e8:	4604      	mov	r4, r0
 80006ea:	6818      	ldr	r0, [r3, #0]
 80006ec:	f44f 737a 	mov.w	r3, #1000	; 0x3e8
 80006f0:	fbb0 f0f3 	udiv	r0, r0, r3
 80006f4:	f000 f850 	bl	8000798 <HAL_SYSTICK_Config>
 80006f8:	2200      	movs	r2, #0
 80006fa:	4621      	mov	r1, r4
 80006fc:	f04f 30ff 	mov.w	r0, #4294967295	; 0xffffffff
 8000700:	f000 f80a 	bl	8000718 <HAL_NVIC_SetPriority>
 8000704:	2000      	movs	r0, #0
 8000706:	bd10      	pop	{r4, pc}
 8000708:	20000000 	andcs	r0, r0, r0

0800070c <HAL_GetTick>:
 800070c:	4b01      	ldr	r3, [pc, #4]	; (8000714 <HAL_GetTick+0x8>)
 800070e:	6818      	ldr	r0, [r3, #0]
 8000710:	4770      	bx	lr
 8000712:	bf00      	nop
 8000714:	200002e0 	andcs	r0, r0, r0, ror #5

08000718 <HAL_NVIC_SetPriority>:
 8000718:	4b17      	ldr	r3, [pc, #92]	; (8000778 <HAL_NVIC_SetPriority+0x60>)
 800071a:	b530      	push	{r4, r5, lr}
 800071c:	68dc      	ldr	r4, [r3, #12]
 800071e:	f3c4 2402 	ubfx	r4, r4, #8, #3
 8000722:	f1c4 0307 	rsb	r3, r4, #7
 8000726:	1d25      	adds	r5, r4, #4
 8000728:	2b04      	cmp	r3, #4
 800072a:	bf28      	it	cs
 800072c:	2304      	movcs	r3, #4
 800072e:	2d06      	cmp	r5, #6
 8000730:	f04f 0501 	mov.w	r5, #1
 8000734:	fa05 f303 	lsl.w	r3, r5, r3
 8000738:	f103 33ff 	add.w	r3, r3, #4294967295	; 0xffffffff
 800073c:	bf8c      	ite	hi
 800073e:	3c03      	subhi	r4, #3
 8000740:	2400      	movls	r4, #0
 8000742:	4019      	ands	r1, r3
 8000744:	40a1      	lsls	r1, r4
 8000746:	fa05 f404 	lsl.w	r4, r5, r4
 800074a:	3c01      	subs	r4, #1
 800074c:	4022      	ands	r2, r4
 800074e:	2800      	cmp	r0, #0
 8000750:	ea42 0201 	orr.w	r2, r2, r1
 8000754:	ea4f 1202 	mov.w	r2, r2, lsl #4
 8000758:	bfaf      	iteee	ge
 800075a:	f100 4060 	addge.w	r0, r0, #3758096384	; 0xe0000000
 800075e:	f000 000f 	andlt.w	r0, r0, #15
 8000762:	4b06      	ldrlt	r3, [pc, #24]	; (800077c <HAL_NVIC_SetPriority+0x64>)
 8000764:	b2d2      	uxtblt	r2, r2
 8000766:	bfa5      	ittet	ge
 8000768:	f500 4061 	addge.w	r0, r0, #57600	; 0xe100
 800076c:	b2d2      	uxtbge	r2, r2
 800076e:	541a      	strblt	r2, [r3, r0]
 8000770:	f880 2300 	strbge.w	r2, [r0, #768]	; 0x300
 8000774:	bd30      	pop	{r4, r5, pc}
 8000776:	bf00      	nop
 8000778:	e000ed00 	and	lr, r0, r0, lsl #26
 800077c:	e000ed14 	and	lr, r0, r4, lsl sp

08000780 <HAL_NVIC_EnableIRQ>:
 8000780:	0942      	lsrs	r2, r0, #5
 8000782:	2301      	movs	r3, #1
 8000784:	f000 001f 	and.w	r0, r0, #31
 8000788:	fa03 f000 	lsl.w	r0, r3, r0
 800078c:	4b01      	ldr	r3, [pc, #4]	; (8000794 <HAL_NVIC_EnableIRQ+0x14>)
 800078e:	f843 0022 	str.w	r0, [r3, r2, lsl #2]
 8000792:	4770      	bx	lr
 8000794:	e000e100 	and	lr, r0, r0, lsl #2

08000798 <HAL_SYSTICK_Config>:
 8000798:	3801      	subs	r0, #1
 800079a:	f1b0 7f80 	cmp.w	r0, #16777216	; 0x1000000
 800079e:	d20a      	bcs.n	80007b6 <HAL_SYSTICK_Config+0x1e>
 80007a0:	4b06      	ldr	r3, [pc, #24]	; (80007bc <HAL_SYSTICK_Config+0x24>)
 80007a2:	4a07      	ldr	r2, [pc, #28]	; (80007c0 <HAL_SYSTICK_Config+0x28>)
 80007a4:	6058      	str	r0, [r3, #4]
 80007a6:	21f0      	movs	r1, #240	; 0xf0
 80007a8:	f882 1023 	strb.w	r1, [r2, #35]	; 0x23
 80007ac:	2000      	movs	r0, #0
 80007ae:	2207      	movs	r2, #7
 80007b0:	6098      	str	r0, [r3, #8]
 80007b2:	601a      	str	r2, [r3, #0]
 80007b4:	4770      	bx	lr
 80007b6:	2001      	movs	r0, #1
 80007b8:	4770      	bx	lr
 80007ba:	bf00      	nop
 80007bc:	e000e010 	and	lr, r0, r0, lsl r0
 80007c0:	e000ed00 	and	lr, r0, r0, lsl #26

080007c4 <HAL_PWREx_EnableOverDrive>:
 80007c4:	4b19      	ldr	r3, [pc, #100]	; (800082c <HAL_PWREx_EnableOverDrive+0x68>)
 80007c6:	b537      	push	{r0, r1, r2, r4, r5, lr}
 80007c8:	6c1a      	ldr	r2, [r3, #64]	; 0x40
 80007ca:	4c19      	ldr	r4, [pc, #100]	; (8000830 <HAL_PWREx_EnableOverDrive+0x6c>)
 80007cc:	f042 5280 	orr.w	r2, r2, #268435456	; 0x10000000
 80007d0:	641a      	str	r2, [r3, #64]	; 0x40
 80007d2:	6c1b      	ldr	r3, [r3, #64]	; 0x40
 80007d4:	f003 5380 	and.w	r3, r3, #268435456	; 0x10000000
 80007d8:	9301      	str	r3, [sp, #4]
 80007da:	9b01      	ldr	r3, [sp, #4]
 80007dc:	6823      	ldr	r3, [r4, #0]
 80007de:	f443 3380 	orr.w	r3, r3, #65536	; 0x10000
 80007e2:	6023      	str	r3, [r4, #0]
 80007e4:	f7ff ff92 	bl	800070c <HAL_GetTick>
 80007e8:	4605      	mov	r5, r0
 80007ea:	6863      	ldr	r3, [r4, #4]
 80007ec:	03da      	lsls	r2, r3, #15
 80007ee:	d50c      	bpl.n	800080a <HAL_PWREx_EnableOverDrive+0x46>
 80007f0:	6823      	ldr	r3, [r4, #0]
 80007f2:	f443 3300 	orr.w	r3, r3, #131072	; 0x20000
 80007f6:	6023      	str	r3, [r4, #0]
 80007f8:	f7ff ff88 	bl	800070c <HAL_GetTick>
 80007fc:	4c0c      	ldr	r4, [pc, #48]	; (8000830 <HAL_PWREx_EnableOverDrive+0x6c>)
 80007fe:	4605      	mov	r5, r0
 8000800:	6863      	ldr	r3, [r4, #4]
 8000802:	039b      	lsls	r3, r3, #14
 8000804:	d50a      	bpl.n	800081c <HAL_PWREx_EnableOverDrive+0x58>
 8000806:	2000      	movs	r0, #0
 8000808:	e006      	b.n	8000818 <HAL_PWREx_EnableOverDrive+0x54>
 800080a:	f7ff ff7f 	bl	800070c <HAL_GetTick>
 800080e:	1b40      	subs	r0, r0, r5
 8000810:	f5b0 7f7a 	cmp.w	r0, #1000	; 0x3e8
 8000814:	d9e9      	bls.n	80007ea <HAL_PWREx_EnableOverDrive+0x26>
 8000816:	2003      	movs	r0, #3
 8000818:	b003      	add	sp, #12
 800081a:	bd30      	pop	{r4, r5, pc}
 800081c:	f7ff ff76 	bl	800070c <HAL_GetTick>
 8000820:	1b40      	subs	r0, r0, r5
 8000822:	f5b0 7f7a 	cmp.w	r0, #1000	; 0x3e8
 8000826:	d9eb      	bls.n	8000800 <HAL_PWREx_EnableOverDrive+0x3c>
 8000828:	e7f5      	b.n	8000816 <HAL_PWREx_EnableOverDrive+0x52>
 800082a:	bf00      	nop
 800082c:	40023800 	andmi	r3, r2, r0, lsl #16
 8000830:	40007000 	andmi	r7, r0, r0

08000834 <HAL_GPIO_Init>:
 8000834:	e92d 4ff0 	stmdb	sp!, {r4, r5, r6, r7, r8, r9, sl, fp, lr}
 8000838:	b085      	sub	sp, #20
 800083a:	680b      	ldr	r3, [r1, #0]
 800083c:	f8df 81a4 	ldr.w	r8, [pc, #420]	; 80009e4 <HAL_GPIO_Init+0x1b0>
 8000840:	4a66      	ldr	r2, [pc, #408]	; (80009dc <HAL_GPIO_Init+0x1a8>)
 8000842:	f8df 91a4 	ldr.w	r9, [pc, #420]	; 80009e8 <HAL_GPIO_Init+0x1b4>
 8000846:	9301      	str	r3, [sp, #4]
 8000848:	2300      	movs	r3, #0
 800084a:	f04f 0e01 	mov.w	lr, #1
 800084e:	9c01      	ldr	r4, [sp, #4]
 8000850:	fa0e fe03 	lsl.w	lr, lr, r3
 8000854:	ea0e 0604 	and.w	r6, lr, r4
 8000858:	45b6      	cmp	lr, r6
 800085a:	f040 80aa 	bne.w	80009b2 <HAL_GPIO_Init+0x17e>
 800085e:	684c      	ldr	r4, [r1, #4]
 8000860:	f024 0710 	bic.w	r7, r4, #16
 8000864:	2f02      	cmp	r7, #2
 8000866:	d116      	bne.n	8000896 <HAL_GPIO_Init+0x62>
 8000868:	ea4f 0ad3 	mov.w	sl, r3, lsr #3
 800086c:	eb00 0a8a 	add.w	sl, r0, sl, lsl #2
 8000870:	f003 0b07 	and.w	fp, r3, #7
 8000874:	f8da 5020 	ldr.w	r5, [sl, #32]
 8000878:	ea4f 0b8b 	mov.w	fp, fp, lsl #2
 800087c:	f04f 0c0f 	mov.w	ip, #15
 8000880:	fa0c fc0b 	lsl.w	ip, ip, fp
 8000884:	ea25 0c0c 	bic.w	ip, r5, ip
 8000888:	690d      	ldr	r5, [r1, #16]
 800088a:	fa05 f50b 	lsl.w	r5, r5, fp
 800088e:	ea45 050c 	orr.w	r5, r5, ip
 8000892:	f8ca 5020 	str.w	r5, [sl, #32]
 8000896:	ea4f 0a43 	mov.w	sl, r3, lsl #1
 800089a:	2503      	movs	r5, #3
 800089c:	f8d0 b000 	ldr.w	fp, [r0]
 80008a0:	fa05 f50a 	lsl.w	r5, r5, sl
 80008a4:	43ed      	mvns	r5, r5
 80008a6:	f004 0c03 	and.w	ip, r4, #3
 80008aa:	ea0b 0b05 	and.w	fp, fp, r5
 80008ae:	fa0c fc0a 	lsl.w	ip, ip, sl
 80008b2:	3f01      	subs	r7, #1
 80008b4:	ea4c 0c0b 	orr.w	ip, ip, fp
 80008b8:	2f01      	cmp	r7, #1
 80008ba:	f8c0 c000 	str.w	ip, [r0]
 80008be:	d811      	bhi.n	80008e4 <HAL_GPIO_Init+0xb0>
 80008c0:	6887      	ldr	r7, [r0, #8]
 80008c2:	ea07 0b05 	and.w	fp, r7, r5
 80008c6:	68cf      	ldr	r7, [r1, #12]
 80008c8:	fa07 fc0a 	lsl.w	ip, r7, sl
 80008cc:	ea4c 070b 	orr.w	r7, ip, fp
 80008d0:	6087      	str	r7, [r0, #8]
 80008d2:	6847      	ldr	r7, [r0, #4]
 80008d4:	ea27 0e0e 	bic.w	lr, r7, lr
 80008d8:	f3c4 1700 	ubfx	r7, r4, #4, #1
 80008dc:	409f      	lsls	r7, r3
 80008de:	ea47 070e 	orr.w	r7, r7, lr
 80008e2:	6047      	str	r7, [r0, #4]
 80008e4:	68c7      	ldr	r7, [r0, #12]
 80008e6:	403d      	ands	r5, r7
 80008e8:	688f      	ldr	r7, [r1, #8]
 80008ea:	fa07 f70a 	lsl.w	r7, r7, sl
 80008ee:	433d      	orrs	r5, r7
 80008f0:	60c5      	str	r5, [r0, #12]
 80008f2:	00e5      	lsls	r5, r4, #3
 80008f4:	d55d      	bpl.n	80009b2 <HAL_GPIO_Init+0x17e>
 80008f6:	f8d8 5044 	ldr.w	r5, [r8, #68]	; 0x44
 80008fa:	f445 4580 	orr.w	r5, r5, #16384	; 0x4000
 80008fe:	f8c8 5044 	str.w	r5, [r8, #68]	; 0x44
 8000902:	f8d8 5044 	ldr.w	r5, [r8, #68]	; 0x44
 8000906:	f023 0703 	bic.w	r7, r3, #3
 800090a:	f107 4780 	add.w	r7, r7, #1073741824	; 0x40000000
 800090e:	f405 4580 	and.w	r5, r5, #16384	; 0x4000
 8000912:	f507 379c 	add.w	r7, r7, #79872	; 0x13800
 8000916:	9503      	str	r5, [sp, #12]
 8000918:	f003 0e03 	and.w	lr, r3, #3
 800091c:	9d03      	ldr	r5, [sp, #12]
 800091e:	f8d7 a008 	ldr.w	sl, [r7, #8]
 8000922:	f04f 0c0f 	mov.w	ip, #15
 8000926:	ea4f 0e8e 	mov.w	lr, lr, lsl #2
 800092a:	fa0c f50e 	lsl.w	r5, ip, lr
 800092e:	ea2a 0c05 	bic.w	ip, sl, r5
 8000932:	4d2b      	ldr	r5, [pc, #172]	; (80009e0 <HAL_GPIO_Init+0x1ac>)
 8000934:	42a8      	cmp	r0, r5
 8000936:	d043      	beq.n	80009c0 <HAL_GPIO_Init+0x18c>
 8000938:	f505 6580 	add.w	r5, r5, #1024	; 0x400
 800093c:	42a8      	cmp	r0, r5
 800093e:	d041      	beq.n	80009c4 <HAL_GPIO_Init+0x190>
 8000940:	f505 6580 	add.w	r5, r5, #1024	; 0x400
 8000944:	42a8      	cmp	r0, r5
 8000946:	d03f      	beq.n	80009c8 <HAL_GPIO_Init+0x194>
 8000948:	f505 6580 	add.w	r5, r5, #1024	; 0x400
 800094c:	42a8      	cmp	r0, r5
 800094e:	d03d      	beq.n	80009cc <HAL_GPIO_Init+0x198>
 8000950:	f505 6580 	add.w	r5, r5, #1024	; 0x400
 8000954:	42a8      	cmp	r0, r5
 8000956:	d03b      	beq.n	80009d0 <HAL_GPIO_Init+0x19c>
 8000958:	4548      	cmp	r0, r9
 800095a:	d03b      	beq.n	80009d4 <HAL_GPIO_Init+0x1a0>
 800095c:	f505 6500 	add.w	r5, r5, #2048	; 0x800
 8000960:	42a8      	cmp	r0, r5
 8000962:	d039      	beq.n	80009d8 <HAL_GPIO_Init+0x1a4>
 8000964:	f505 6580 	add.w	r5, r5, #1024	; 0x400
 8000968:	42a8      	cmp	r0, r5
 800096a:	bf14      	ite	ne
 800096c:	2508      	movne	r5, #8
 800096e:	2507      	moveq	r5, #7
 8000970:	fa05 f50e 	lsl.w	r5, r5, lr
 8000974:	ea45 050c 	orr.w	r5, r5, ip
 8000978:	60bd      	str	r5, [r7, #8]
 800097a:	6815      	ldr	r5, [r2, #0]
 800097c:	43f7      	mvns	r7, r6
 800097e:	f414 3f80 	tst.w	r4, #65536	; 0x10000
 8000982:	bf0c      	ite	eq
 8000984:	403d      	andeq	r5, r7
 8000986:	4335      	orrne	r5, r6
 8000988:	6015      	str	r5, [r2, #0]
 800098a:	6855      	ldr	r5, [r2, #4]
 800098c:	f414 3f00 	tst.w	r4, #131072	; 0x20000
 8000990:	bf0c      	ite	eq
 8000992:	403d      	andeq	r5, r7
 8000994:	4335      	orrne	r5, r6
 8000996:	6055      	str	r5, [r2, #4]
 8000998:	6895      	ldr	r5, [r2, #8]
 800099a:	f414 1f80 	tst.w	r4, #1048576	; 0x100000
 800099e:	bf0c      	ite	eq
 80009a0:	403d      	andeq	r5, r7
 80009a2:	4335      	orrne	r5, r6
 80009a4:	6095      	str	r5, [r2, #8]
 80009a6:	68d5      	ldr	r5, [r2, #12]
 80009a8:	02a4      	lsls	r4, r4, #10
 80009aa:	bf54      	ite	pl
 80009ac:	403d      	andpl	r5, r7
 80009ae:	4335      	orrmi	r5, r6
 80009b0:	60d5      	str	r5, [r2, #12]
 80009b2:	3301      	adds	r3, #1
 80009b4:	2b10      	cmp	r3, #16
 80009b6:	f47f af48 	bne.w	800084a <HAL_GPIO_Init+0x16>
 80009ba:	b005      	add	sp, #20
 80009bc:	e8bd 8ff0 	ldmia.w	sp!, {r4, r5, r6, r7, r8, r9, sl, fp, pc}
 80009c0:	2500      	movs	r5, #0
 80009c2:	e7d5      	b.n	8000970 <HAL_GPIO_Init+0x13c>
 80009c4:	2501      	movs	r5, #1
 80009c6:	e7d3      	b.n	8000970 <HAL_GPIO_Init+0x13c>
 80009c8:	2502      	movs	r5, #2
 80009ca:	e7d1      	b.n	8000970 <HAL_GPIO_Init+0x13c>
 80009cc:	2503      	movs	r5, #3
 80009ce:	e7cf      	b.n	8000970 <HAL_GPIO_Init+0x13c>
 80009d0:	2504      	movs	r5, #4
 80009d2:	e7cd      	b.n	8000970 <HAL_GPIO_Init+0x13c>
 80009d4:	2505      	movs	r5, #5
 80009d6:	e7cb      	b.n	8000970 <HAL_GPIO_Init+0x13c>
 80009d8:	2506      	movs	r5, #6
 80009da:	e7c9      	b.n	8000970 <HAL_GPIO_Init+0x13c>
 80009dc:	40013c00 	andmi	r3, r1, r0, lsl #24
 80009e0:	40020000 	andmi	r0, r2, r0
 80009e4:	40023800 	andmi	r3, r2, r0, lsl #16
 80009e8:	40021400 	andmi	r1, r2, r0, lsl #8

080009ec <HAL_RCC_OscConfig>:
 80009ec:	e92d 41f3 	stmdb	sp!, {r0, r1, r4, r5, r6, r7, r8, lr}
 80009f0:	4604      	mov	r4, r0
 80009f2:	b918      	cbnz	r0, 80009fc <HAL_RCC_OscConfig+0x10>
 80009f4:	2001      	movs	r0, #1
 80009f6:	b002      	add	sp, #8
 80009f8:	e8bd 81f0 	ldmia.w	sp!, {r4, r5, r6, r7, r8, pc}
 80009fc:	6803      	ldr	r3, [r0, #0]
 80009fe:	07dd      	lsls	r5, r3, #31
 8000a00:	d410      	bmi.n	8000a24 <HAL_RCC_OscConfig+0x38>
 8000a02:	6823      	ldr	r3, [r4, #0]
 8000a04:	0798      	lsls	r0, r3, #30
 8000a06:	d462      	bmi.n	8000ace <HAL_RCC_OscConfig+0xe2>
 8000a08:	6823      	ldr	r3, [r4, #0]
 8000a0a:	0719      	lsls	r1, r3, #28
 8000a0c:	f100 80a8 	bmi.w	8000b60 <HAL_RCC_OscConfig+0x174>
 8000a10:	6823      	ldr	r3, [r4, #0]
 8000a12:	075a      	lsls	r2, r3, #29
 8000a14:	f100 80c9 	bmi.w	8000baa <HAL_RCC_OscConfig+0x1be>
 8000a18:	69a2      	ldr	r2, [r4, #24]
 8000a1a:	2a00      	cmp	r2, #0
 8000a1c:	f040 8134 	bne.w	8000c88 <HAL_RCC_OscConfig+0x29c>
 8000a20:	2000      	movs	r0, #0
 8000a22:	e7e8      	b.n	80009f6 <HAL_RCC_OscConfig+0xa>
 8000a24:	4b96      	ldr	r3, [pc, #600]	; (8000c80 <HAL_RCC_OscConfig+0x294>)
 8000a26:	689a      	ldr	r2, [r3, #8]
 8000a28:	f002 020c 	and.w	r2, r2, #12
 8000a2c:	2a04      	cmp	r2, #4
 8000a2e:	d007      	beq.n	8000a40 <HAL_RCC_OscConfig+0x54>
 8000a30:	689a      	ldr	r2, [r3, #8]
 8000a32:	f002 020c 	and.w	r2, r2, #12
 8000a36:	2a08      	cmp	r2, #8
 8000a38:	d10a      	bne.n	8000a50 <HAL_RCC_OscConfig+0x64>
 8000a3a:	685b      	ldr	r3, [r3, #4]
 8000a3c:	0259      	lsls	r1, r3, #9
 8000a3e:	d507      	bpl.n	8000a50 <HAL_RCC_OscConfig+0x64>
 8000a40:	4b8f      	ldr	r3, [pc, #572]	; (8000c80 <HAL_RCC_OscConfig+0x294>)
 8000a42:	681b      	ldr	r3, [r3, #0]
 8000a44:	039a      	lsls	r2, r3, #14
 8000a46:	d5dc      	bpl.n	8000a02 <HAL_RCC_OscConfig+0x16>
 8000a48:	6863      	ldr	r3, [r4, #4]
 8000a4a:	2b00      	cmp	r3, #0
 8000a4c:	d1d9      	bne.n	8000a02 <HAL_RCC_OscConfig+0x16>
 8000a4e:	e7d1      	b.n	80009f4 <HAL_RCC_OscConfig+0x8>
 8000a50:	6863      	ldr	r3, [r4, #4]
 8000a52:	4d8b      	ldr	r5, [pc, #556]	; (8000c80 <HAL_RCC_OscConfig+0x294>)
 8000a54:	f5b3 3f80 	cmp.w	r3, #65536	; 0x10000
 8000a58:	d113      	bne.n	8000a82 <HAL_RCC_OscConfig+0x96>
 8000a5a:	682b      	ldr	r3, [r5, #0]
 8000a5c:	f443 3380 	orr.w	r3, r3, #65536	; 0x10000
 8000a60:	602b      	str	r3, [r5, #0]
 8000a62:	f7ff fe53 	bl	800070c <HAL_GetTick>
 8000a66:	4e86      	ldr	r6, [pc, #536]	; (8000c80 <HAL_RCC_OscConfig+0x294>)
 8000a68:	4607      	mov	r7, r0
 8000a6a:	f241 3588 	movw	r5, #5000	; 0x1388
 8000a6e:	6833      	ldr	r3, [r6, #0]
 8000a70:	039b      	lsls	r3, r3, #14
 8000a72:	d4c6      	bmi.n	8000a02 <HAL_RCC_OscConfig+0x16>
 8000a74:	f7ff fe4a 	bl	800070c <HAL_GetTick>
 8000a78:	1bc0      	subs	r0, r0, r7
 8000a7a:	42a8      	cmp	r0, r5
 8000a7c:	d9f7      	bls.n	8000a6e <HAL_RCC_OscConfig+0x82>
 8000a7e:	2003      	movs	r0, #3
 8000a80:	e7b9      	b.n	80009f6 <HAL_RCC_OscConfig+0xa>
 8000a82:	b9ab      	cbnz	r3, 8000ab0 <HAL_RCC_OscConfig+0xc4>
 8000a84:	682b      	ldr	r3, [r5, #0]
 8000a86:	f423 3380 	bic.w	r3, r3, #65536	; 0x10000
 8000a8a:	602b      	str	r3, [r5, #0]
 8000a8c:	682b      	ldr	r3, [r5, #0]
 8000a8e:	f423 2380 	bic.w	r3, r3, #262144	; 0x40000
 8000a92:	602b      	str	r3, [r5, #0]
 8000a94:	f7ff fe3a 	bl	800070c <HAL_GetTick>
 8000a98:	f241 3788 	movw	r7, #5000	; 0x1388
 8000a9c:	4606      	mov	r6, r0
 8000a9e:	682b      	ldr	r3, [r5, #0]
 8000aa0:	0398      	lsls	r0, r3, #14
 8000aa2:	d5ae      	bpl.n	8000a02 <HAL_RCC_OscConfig+0x16>
 8000aa4:	f7ff fe32 	bl	800070c <HAL_GetTick>
 8000aa8:	1b80      	subs	r0, r0, r6
 8000aaa:	42b8      	cmp	r0, r7
 8000aac:	d9f7      	bls.n	8000a9e <HAL_RCC_OscConfig+0xb2>
 8000aae:	e7e6      	b.n	8000a7e <HAL_RCC_OscConfig+0x92>
 8000ab0:	f5b3 2fa0 	cmp.w	r3, #327680	; 0x50000
 8000ab4:	682b      	ldr	r3, [r5, #0]
 8000ab6:	d103      	bne.n	8000ac0 <HAL_RCC_OscConfig+0xd4>
 8000ab8:	f443 2380 	orr.w	r3, r3, #262144	; 0x40000
 8000abc:	602b      	str	r3, [r5, #0]
 8000abe:	e7cc      	b.n	8000a5a <HAL_RCC_OscConfig+0x6e>
 8000ac0:	f423 3380 	bic.w	r3, r3, #65536	; 0x10000
 8000ac4:	602b      	str	r3, [r5, #0]
 8000ac6:	682b      	ldr	r3, [r5, #0]
 8000ac8:	f423 2380 	bic.w	r3, r3, #262144	; 0x40000
 8000acc:	e7c8      	b.n	8000a60 <HAL_RCC_OscConfig+0x74>
 8000ace:	4b6c      	ldr	r3, [pc, #432]	; (8000c80 <HAL_RCC_OscConfig+0x294>)
 8000ad0:	689a      	ldr	r2, [r3, #8]
 8000ad2:	f012 0f0c 	tst.w	r2, #12
 8000ad6:	d007      	beq.n	8000ae8 <HAL_RCC_OscConfig+0xfc>
 8000ad8:	689a      	ldr	r2, [r3, #8]
 8000ada:	f002 020c 	and.w	r2, r2, #12
 8000ade:	2a08      	cmp	r2, #8
 8000ae0:	d112      	bne.n	8000b08 <HAL_RCC_OscConfig+0x11c>
 8000ae2:	685b      	ldr	r3, [r3, #4]
 8000ae4:	0259      	lsls	r1, r3, #9
 8000ae6:	d40f      	bmi.n	8000b08 <HAL_RCC_OscConfig+0x11c>
 8000ae8:	4b65      	ldr	r3, [pc, #404]	; (8000c80 <HAL_RCC_OscConfig+0x294>)
 8000aea:	681a      	ldr	r2, [r3, #0]
 8000aec:	0792      	lsls	r2, r2, #30
 8000aee:	d503      	bpl.n	8000af8 <HAL_RCC_OscConfig+0x10c>
 8000af0:	68e2      	ldr	r2, [r4, #12]
 8000af2:	2a01      	cmp	r2, #1
 8000af4:	f47f af7e 	bne.w	80009f4 <HAL_RCC_OscConfig+0x8>
 8000af8:	681a      	ldr	r2, [r3, #0]
 8000afa:	6921      	ldr	r1, [r4, #16]
 8000afc:	f022 02f8 	bic.w	r2, r2, #248	; 0xf8
 8000b00:	ea42 02c1 	orr.w	r2, r2, r1, lsl #3
 8000b04:	601a      	str	r2, [r3, #0]
 8000b06:	e77f      	b.n	8000a08 <HAL_RCC_OscConfig+0x1c>
 8000b08:	68e3      	ldr	r3, [r4, #12]
 8000b0a:	4d5d      	ldr	r5, [pc, #372]	; (8000c80 <HAL_RCC_OscConfig+0x294>)
 8000b0c:	b1bb      	cbz	r3, 8000b3e <HAL_RCC_OscConfig+0x152>
 8000b0e:	682b      	ldr	r3, [r5, #0]
 8000b10:	f043 0301 	orr.w	r3, r3, #1
 8000b14:	602b      	str	r3, [r5, #0]
 8000b16:	f7ff fdf9 	bl	800070c <HAL_GetTick>
 8000b1a:	4606      	mov	r6, r0
 8000b1c:	682b      	ldr	r3, [r5, #0]
 8000b1e:	079f      	lsls	r7, r3, #30
 8000b20:	d507      	bpl.n	8000b32 <HAL_RCC_OscConfig+0x146>
 8000b22:	682b      	ldr	r3, [r5, #0]
 8000b24:	6922      	ldr	r2, [r4, #16]
 8000b26:	f023 03f8 	bic.w	r3, r3, #248	; 0xf8
 8000b2a:	ea43 03c2 	orr.w	r3, r3, r2, lsl #3
 8000b2e:	602b      	str	r3, [r5, #0]
 8000b30:	e76a      	b.n	8000a08 <HAL_RCC_OscConfig+0x1c>
 8000b32:	f7ff fdeb 	bl	800070c <HAL_GetTick>
 8000b36:	1b80      	subs	r0, r0, r6
 8000b38:	2802      	cmp	r0, #2
 8000b3a:	d9ef      	bls.n	8000b1c <HAL_RCC_OscConfig+0x130>
 8000b3c:	e79f      	b.n	8000a7e <HAL_RCC_OscConfig+0x92>
 8000b3e:	682b      	ldr	r3, [r5, #0]
 8000b40:	f023 0301 	bic.w	r3, r3, #1
 8000b44:	602b      	str	r3, [r5, #0]
 8000b46:	f7ff fde1 	bl	800070c <HAL_GetTick>
 8000b4a:	4606      	mov	r6, r0
 8000b4c:	682b      	ldr	r3, [r5, #0]
 8000b4e:	0798      	lsls	r0, r3, #30
 8000b50:	f57f af5a 	bpl.w	8000a08 <HAL_RCC_OscConfig+0x1c>
 8000b54:	f7ff fdda 	bl	800070c <HAL_GetTick>
 8000b58:	1b80      	subs	r0, r0, r6
 8000b5a:	2802      	cmp	r0, #2
 8000b5c:	d9f6      	bls.n	8000b4c <HAL_RCC_OscConfig+0x160>
 8000b5e:	e78e      	b.n	8000a7e <HAL_RCC_OscConfig+0x92>
 8000b60:	6963      	ldr	r3, [r4, #20]
 8000b62:	4d47      	ldr	r5, [pc, #284]	; (8000c80 <HAL_RCC_OscConfig+0x294>)
 8000b64:	b183      	cbz	r3, 8000b88 <HAL_RCC_OscConfig+0x19c>
 8000b66:	6f6b      	ldr	r3, [r5, #116]	; 0x74
 8000b68:	f043 0301 	orr.w	r3, r3, #1
 8000b6c:	676b      	str	r3, [r5, #116]	; 0x74
 8000b6e:	f7ff fdcd 	bl	800070c <HAL_GetTick>
 8000b72:	4606      	mov	r6, r0
 8000b74:	6f6b      	ldr	r3, [r5, #116]	; 0x74
 8000b76:	079b      	lsls	r3, r3, #30
 8000b78:	f53f af4a 	bmi.w	8000a10 <HAL_RCC_OscConfig+0x24>
 8000b7c:	f7ff fdc6 	bl	800070c <HAL_GetTick>
 8000b80:	1b80      	subs	r0, r0, r6
 8000b82:	2802      	cmp	r0, #2
 8000b84:	d9f6      	bls.n	8000b74 <HAL_RCC_OscConfig+0x188>
 8000b86:	e77a      	b.n	8000a7e <HAL_RCC_OscConfig+0x92>
 8000b88:	6f6b      	ldr	r3, [r5, #116]	; 0x74
 8000b8a:	f023 0301 	bic.w	r3, r3, #1
 8000b8e:	676b      	str	r3, [r5, #116]	; 0x74
 8000b90:	f7ff fdbc 	bl	800070c <HAL_GetTick>
 8000b94:	4606      	mov	r6, r0
 8000b96:	6f6b      	ldr	r3, [r5, #116]	; 0x74
 8000b98:	079f      	lsls	r7, r3, #30
 8000b9a:	f57f af39 	bpl.w	8000a10 <HAL_RCC_OscConfig+0x24>
 8000b9e:	f7ff fdb5 	bl	800070c <HAL_GetTick>
 8000ba2:	1b80      	subs	r0, r0, r6
 8000ba4:	2802      	cmp	r0, #2
 8000ba6:	d9f6      	bls.n	8000b96 <HAL_RCC_OscConfig+0x1aa>
 8000ba8:	e769      	b.n	8000a7e <HAL_RCC_OscConfig+0x92>
 8000baa:	4b35      	ldr	r3, [pc, #212]	; (8000c80 <HAL_RCC_OscConfig+0x294>)
 8000bac:	6c1a      	ldr	r2, [r3, #64]	; 0x40
 8000bae:	00d0      	lsls	r0, r2, #3
 8000bb0:	d427      	bmi.n	8000c02 <HAL_RCC_OscConfig+0x216>
 8000bb2:	6c1a      	ldr	r2, [r3, #64]	; 0x40
 8000bb4:	f042 5280 	orr.w	r2, r2, #268435456	; 0x10000000
 8000bb8:	641a      	str	r2, [r3, #64]	; 0x40
 8000bba:	6c1b      	ldr	r3, [r3, #64]	; 0x40
 8000bbc:	f003 5380 	and.w	r3, r3, #268435456	; 0x10000000
 8000bc0:	9301      	str	r3, [sp, #4]
 8000bc2:	9b01      	ldr	r3, [sp, #4]
 8000bc4:	2601      	movs	r6, #1
 8000bc6:	4d2f      	ldr	r5, [pc, #188]	; (8000c84 <HAL_RCC_OscConfig+0x298>)
 8000bc8:	682b      	ldr	r3, [r5, #0]
 8000bca:	05d9      	lsls	r1, r3, #23
 8000bcc:	d51b      	bpl.n	8000c06 <HAL_RCC_OscConfig+0x21a>
 8000bce:	68a3      	ldr	r3, [r4, #8]
 8000bd0:	4d2b      	ldr	r5, [pc, #172]	; (8000c80 <HAL_RCC_OscConfig+0x294>)
 8000bd2:	2b01      	cmp	r3, #1
 8000bd4:	d127      	bne.n	8000c26 <HAL_RCC_OscConfig+0x23a>
 8000bd6:	6f2b      	ldr	r3, [r5, #112]	; 0x70
 8000bd8:	f043 0301 	orr.w	r3, r3, #1
 8000bdc:	672b      	str	r3, [r5, #112]	; 0x70
 8000bde:	f7ff fd95 	bl	800070c <HAL_GetTick>
 8000be2:	4f27      	ldr	r7, [pc, #156]	; (8000c80 <HAL_RCC_OscConfig+0x294>)
 8000be4:	4680      	mov	r8, r0
 8000be6:	f241 3588 	movw	r5, #5000	; 0x1388
 8000bea:	6f3b      	ldr	r3, [r7, #112]	; 0x70
 8000bec:	079b      	lsls	r3, r3, #30
 8000bee:	d53f      	bpl.n	8000c70 <HAL_RCC_OscConfig+0x284>
 8000bf0:	2e00      	cmp	r6, #0
 8000bf2:	f43f af11 	beq.w	8000a18 <HAL_RCC_OscConfig+0x2c>
 8000bf6:	4a22      	ldr	r2, [pc, #136]	; (8000c80 <HAL_RCC_OscConfig+0x294>)
 8000bf8:	6c13      	ldr	r3, [r2, #64]	; 0x40
 8000bfa:	f023 5380 	bic.w	r3, r3, #268435456	; 0x10000000
 8000bfe:	6413      	str	r3, [r2, #64]	; 0x40
 8000c00:	e70a      	b.n	8000a18 <HAL_RCC_OscConfig+0x2c>
 8000c02:	2600      	movs	r6, #0
 8000c04:	e7df      	b.n	8000bc6 <HAL_RCC_OscConfig+0x1da>
 8000c06:	682b      	ldr	r3, [r5, #0]
 8000c08:	f443 7380 	orr.w	r3, r3, #256	; 0x100
 8000c0c:	602b      	str	r3, [r5, #0]
 8000c0e:	f7ff fd7d 	bl	800070c <HAL_GetTick>
 8000c12:	4607      	mov	r7, r0
 8000c14:	682b      	ldr	r3, [r5, #0]
 8000c16:	05da      	lsls	r2, r3, #23
 8000c18:	d4d9      	bmi.n	8000bce <HAL_RCC_OscConfig+0x1e2>
 8000c1a:	f7ff fd77 	bl	800070c <HAL_GetTick>
 8000c1e:	1bc0      	subs	r0, r0, r7
 8000c20:	2864      	cmp	r0, #100	; 0x64
 8000c22:	d9f7      	bls.n	8000c14 <HAL_RCC_OscConfig+0x228>
 8000c24:	e72b      	b.n	8000a7e <HAL_RCC_OscConfig+0x92>
 8000c26:	b9ab      	cbnz	r3, 8000c54 <HAL_RCC_OscConfig+0x268>
 8000c28:	6f2b      	ldr	r3, [r5, #112]	; 0x70
 8000c2a:	f023 0301 	bic.w	r3, r3, #1
 8000c2e:	672b      	str	r3, [r5, #112]	; 0x70
 8000c30:	6f2b      	ldr	r3, [r5, #112]	; 0x70
 8000c32:	f023 0304 	bic.w	r3, r3, #4
 8000c36:	672b      	str	r3, [r5, #112]	; 0x70
 8000c38:	f7ff fd68 	bl	800070c <HAL_GetTick>
 8000c3c:	f241 3888 	movw	r8, #5000	; 0x1388
 8000c40:	4607      	mov	r7, r0
 8000c42:	6f2b      	ldr	r3, [r5, #112]	; 0x70
 8000c44:	0798      	lsls	r0, r3, #30
 8000c46:	d5d3      	bpl.n	8000bf0 <HAL_RCC_OscConfig+0x204>
 8000c48:	f7ff fd60 	bl	800070c <HAL_GetTick>
 8000c4c:	1bc0      	subs	r0, r0, r7
 8000c4e:	4540      	cmp	r0, r8
 8000c50:	d9f7      	bls.n	8000c42 <HAL_RCC_OscConfig+0x256>
 8000c52:	e714      	b.n	8000a7e <HAL_RCC_OscConfig+0x92>
 8000c54:	2b05      	cmp	r3, #5
 8000c56:	6f2b      	ldr	r3, [r5, #112]	; 0x70
 8000c58:	d103      	bne.n	8000c62 <HAL_RCC_OscConfig+0x276>
 8000c5a:	f043 0304 	orr.w	r3, r3, #4
 8000c5e:	672b      	str	r3, [r5, #112]	; 0x70
 8000c60:	e7b9      	b.n	8000bd6 <HAL_RCC_OscConfig+0x1ea>
 8000c62:	f023 0301 	bic.w	r3, r3, #1
 8000c66:	672b      	str	r3, [r5, #112]	; 0x70
 8000c68:	6f2b      	ldr	r3, [r5, #112]	; 0x70
 8000c6a:	f023 0304 	bic.w	r3, r3, #4
 8000c6e:	e7b5      	b.n	8000bdc <HAL_RCC_OscConfig+0x1f0>
 8000c70:	f7ff fd4c 	bl	800070c <HAL_GetTick>
 8000c74:	eba0 0008 	sub.w	r0, r0, r8
 8000c78:	42a8      	cmp	r0, r5
 8000c7a:	d9b6      	bls.n	8000bea <HAL_RCC_OscConfig+0x1fe>
 8000c7c:	e6ff      	b.n	8000a7e <HAL_RCC_OscConfig+0x92>
 8000c7e:	bf00      	nop
 8000c80:	40023800 	andmi	r3, r2, r0, lsl #16
 8000c84:	40007000 	andmi	r7, r0, r0
 8000c88:	4d24      	ldr	r5, [pc, #144]	; (8000d1c <HAL_RCC_OscConfig+0x330>)
 8000c8a:	68ab      	ldr	r3, [r5, #8]
 8000c8c:	f003 030c 	and.w	r3, r3, #12
 8000c90:	2b08      	cmp	r3, #8
 8000c92:	f43f aeaf 	beq.w	80009f4 <HAL_RCC_OscConfig+0x8>
 8000c96:	682b      	ldr	r3, [r5, #0]
 8000c98:	2a02      	cmp	r2, #2
 8000c9a:	f023 7380 	bic.w	r3, r3, #16777216	; 0x1000000
 8000c9e:	602b      	str	r3, [r5, #0]
 8000ca0:	d12e      	bne.n	8000d00 <HAL_RCC_OscConfig+0x314>
 8000ca2:	f7ff fd33 	bl	800070c <HAL_GetTick>
 8000ca6:	4606      	mov	r6, r0
 8000ca8:	682b      	ldr	r3, [r5, #0]
 8000caa:	0199      	lsls	r1, r3, #6
 8000cac:	d422      	bmi.n	8000cf4 <HAL_RCC_OscConfig+0x308>
 8000cae:	6a22      	ldr	r2, [r4, #32]
 8000cb0:	69e3      	ldr	r3, [r4, #28]
 8000cb2:	4313      	orrs	r3, r2
 8000cb4:	6a62      	ldr	r2, [r4, #36]	; 0x24
 8000cb6:	f043 5300 	orr.w	r3, r3, #536870912	; 0x20000000
 8000cba:	ea43 1382 	orr.w	r3, r3, r2, lsl #6
 8000cbe:	6ae2      	ldr	r2, [r4, #44]	; 0x2c
 8000cc0:	ea43 6302 	orr.w	r3, r3, r2, lsl #24
 8000cc4:	6aa2      	ldr	r2, [r4, #40]	; 0x28
 8000cc6:	4c15      	ldr	r4, [pc, #84]	; (8000d1c <HAL_RCC_OscConfig+0x330>)
 8000cc8:	0852      	lsrs	r2, r2, #1
 8000cca:	3a01      	subs	r2, #1
 8000ccc:	ea43 4302 	orr.w	r3, r3, r2, lsl #16
 8000cd0:	606b      	str	r3, [r5, #4]
 8000cd2:	682b      	ldr	r3, [r5, #0]
 8000cd4:	f043 7380 	orr.w	r3, r3, #16777216	; 0x1000000
 8000cd8:	602b      	str	r3, [r5, #0]
 8000cda:	f7ff fd17 	bl	800070c <HAL_GetTick>
 8000cde:	4605      	mov	r5, r0
 8000ce0:	6823      	ldr	r3, [r4, #0]
 8000ce2:	019a      	lsls	r2, r3, #6
 8000ce4:	f53f ae9c 	bmi.w	8000a20 <HAL_RCC_OscConfig+0x34>
 8000ce8:	f7ff fd10 	bl	800070c <HAL_GetTick>
 8000cec:	1b40      	subs	r0, r0, r5
 8000cee:	2802      	cmp	r0, #2
 8000cf0:	d9f6      	bls.n	8000ce0 <HAL_RCC_OscConfig+0x2f4>
 8000cf2:	e6c4      	b.n	8000a7e <HAL_RCC_OscConfig+0x92>
 8000cf4:	f7ff fd0a 	bl	800070c <HAL_GetTick>
 8000cf8:	1b80      	subs	r0, r0, r6
 8000cfa:	2802      	cmp	r0, #2
 8000cfc:	d9d4      	bls.n	8000ca8 <HAL_RCC_OscConfig+0x2bc>
 8000cfe:	e6be      	b.n	8000a7e <HAL_RCC_OscConfig+0x92>
 8000d00:	f7ff fd04 	bl	800070c <HAL_GetTick>
 8000d04:	4604      	mov	r4, r0
 8000d06:	682b      	ldr	r3, [r5, #0]
 8000d08:	019b      	lsls	r3, r3, #6
 8000d0a:	f57f ae89 	bpl.w	8000a20 <HAL_RCC_OscConfig+0x34>
 8000d0e:	f7ff fcfd 	bl	800070c <HAL_GetTick>
 8000d12:	1b00      	subs	r0, r0, r4
 8000d14:	2802      	cmp	r0, #2
 8000d16:	d9f6      	bls.n	8000d06 <HAL_RCC_OscConfig+0x31a>
 8000d18:	e6b1      	b.n	8000a7e <HAL_RCC_OscConfig+0x92>
 8000d1a:	bf00      	nop
 8000d1c:	40023800 	andmi	r3, r2, r0, lsl #16

08000d20 <HAL_RCC_GetSysClockFreq>:
 8000d20:	4b11      	ldr	r3, [pc, #68]	; (8000d68 <HAL_RCC_GetSysClockFreq+0x48>)
 8000d22:	689a      	ldr	r2, [r3, #8]
 8000d24:	f002 020c 	and.w	r2, r2, #12
 8000d28:	2a04      	cmp	r2, #4
 8000d2a:	d003      	beq.n	8000d34 <HAL_RCC_GetSysClockFreq+0x14>
 8000d2c:	2a08      	cmp	r2, #8
 8000d2e:	d003      	beq.n	8000d38 <HAL_RCC_GetSysClockFreq+0x18>
 8000d30:	480e      	ldr	r0, [pc, #56]	; (8000d6c <HAL_RCC_GetSysClockFreq+0x4c>)
 8000d32:	4770      	bx	lr
 8000d34:	480e      	ldr	r0, [pc, #56]	; (8000d70 <HAL_RCC_GetSysClockFreq+0x50>)
 8000d36:	4770      	bx	lr
 8000d38:	685a      	ldr	r2, [r3, #4]
 8000d3a:	6859      	ldr	r1, [r3, #4]
 8000d3c:	685b      	ldr	r3, [r3, #4]
 8000d3e:	0249      	lsls	r1, r1, #9
 8000d40:	f3c3 1388 	ubfx	r3, r3, #6, #9
 8000d44:	f002 023f 	and.w	r2, r2, #63	; 0x3f
 8000d48:	bf4c      	ite	mi
 8000d4a:	4809      	ldrmi	r0, [pc, #36]	; (8000d70 <HAL_RCC_GetSysClockFreq+0x50>)
 8000d4c:	4807      	ldrpl	r0, [pc, #28]	; (8000d6c <HAL_RCC_GetSysClockFreq+0x4c>)
 8000d4e:	fbb0 f0f2 	udiv	r0, r0, r2
 8000d52:	4358      	muls	r0, r3
 8000d54:	4b04      	ldr	r3, [pc, #16]	; (8000d68 <HAL_RCC_GetSysClockFreq+0x48>)
 8000d56:	685b      	ldr	r3, [r3, #4]
 8000d58:	f3c3 4301 	ubfx	r3, r3, #16, #2
 8000d5c:	3301      	adds	r3, #1
 8000d5e:	005b      	lsls	r3, r3, #1
 8000d60:	fbb0 f0f3 	udiv	r0, r0, r3
 8000d64:	4770      	bx	lr
 8000d66:	bf00      	nop
 8000d68:	40023800 	andmi	r3, r2, r0, lsl #16
 8000d6c:	00f42400 	rscseq	r2, r4, r0, lsl #8
 8000d70:	007a1200 	rsbseq	r1, sl, r0, lsl #4

08000d74 <HAL_RCC_ClockConfig>:
 8000d74:	e92d 41f0 	stmdb	sp!, {r4, r5, r6, r7, r8, lr}
 8000d78:	460d      	mov	r5, r1
 8000d7a:	4604      	mov	r4, r0
 8000d7c:	b910      	cbnz	r0, 8000d84 <HAL_RCC_ClockConfig+0x10>
 8000d7e:	2001      	movs	r0, #1
 8000d80:	e8bd 81f0 	ldmia.w	sp!, {r4, r5, r6, r7, r8, pc}
 8000d84:	4a3f      	ldr	r2, [pc, #252]	; (8000e84 <HAL_RCC_ClockConfig+0x110>)
 8000d86:	6813      	ldr	r3, [r2, #0]
 8000d88:	f003 030f 	and.w	r3, r3, #15
 8000d8c:	428b      	cmp	r3, r1
 8000d8e:	d328      	bcc.n	8000de2 <HAL_RCC_ClockConfig+0x6e>
 8000d90:	6822      	ldr	r2, [r4, #0]
 8000d92:	0796      	lsls	r6, r2, #30
 8000d94:	d430      	bmi.n	8000df8 <HAL_RCC_ClockConfig+0x84>
 8000d96:	07d0      	lsls	r0, r2, #31
 8000d98:	d436      	bmi.n	8000e08 <HAL_RCC_ClockConfig+0x94>
 8000d9a:	4a3a      	ldr	r2, [pc, #232]	; (8000e84 <HAL_RCC_ClockConfig+0x110>)
 8000d9c:	6813      	ldr	r3, [r2, #0]
 8000d9e:	f003 030f 	and.w	r3, r3, #15
 8000da2:	429d      	cmp	r5, r3
 8000da4:	d35a      	bcc.n	8000e5c <HAL_RCC_ClockConfig+0xe8>
 8000da6:	6822      	ldr	r2, [r4, #0]
 8000da8:	0751      	lsls	r1, r2, #29
 8000daa:	d462      	bmi.n	8000e72 <HAL_RCC_ClockConfig+0xfe>
 8000dac:	0713      	lsls	r3, r2, #28
 8000dae:	d507      	bpl.n	8000dc0 <HAL_RCC_ClockConfig+0x4c>
 8000db0:	4a35      	ldr	r2, [pc, #212]	; (8000e88 <HAL_RCC_ClockConfig+0x114>)
 8000db2:	6921      	ldr	r1, [r4, #16]
 8000db4:	6893      	ldr	r3, [r2, #8]
 8000db6:	f423 4360 	bic.w	r3, r3, #57344	; 0xe000
 8000dba:	ea43 03c1 	orr.w	r3, r3, r1, lsl #3
 8000dbe:	6093      	str	r3, [r2, #8]
 8000dc0:	f7ff ffae 	bl	8000d20 <HAL_RCC_GetSysClockFreq>
 8000dc4:	4b30      	ldr	r3, [pc, #192]	; (8000e88 <HAL_RCC_ClockConfig+0x114>)
 8000dc6:	4a31      	ldr	r2, [pc, #196]	; (8000e8c <HAL_RCC_ClockConfig+0x118>)
 8000dc8:	689b      	ldr	r3, [r3, #8]
 8000dca:	f3c3 1303 	ubfx	r3, r3, #4, #4
 8000dce:	5cd3      	ldrb	r3, [r2, r3]
 8000dd0:	40d8      	lsrs	r0, r3
 8000dd2:	4b2f      	ldr	r3, [pc, #188]	; (8000e90 <HAL_RCC_ClockConfig+0x11c>)
 8000dd4:	6018      	str	r0, [r3, #0]
 8000dd6:	200f      	movs	r0, #15
 8000dd8:	f7ff fc84 	bl	80006e4 <HAL_InitTick>
 8000ddc:	2000      	movs	r0, #0
 8000dde:	e8bd 81f0 	ldmia.w	sp!, {r4, r5, r6, r7, r8, pc}
 8000de2:	6813      	ldr	r3, [r2, #0]
 8000de4:	f023 030f 	bic.w	r3, r3, #15
 8000de8:	430b      	orrs	r3, r1
 8000dea:	6013      	str	r3, [r2, #0]
 8000dec:	6813      	ldr	r3, [r2, #0]
 8000dee:	f003 030f 	and.w	r3, r3, #15
 8000df2:	4299      	cmp	r1, r3
 8000df4:	d1c3      	bne.n	8000d7e <HAL_RCC_ClockConfig+0xa>
 8000df6:	e7cb      	b.n	8000d90 <HAL_RCC_ClockConfig+0x1c>
 8000df8:	4923      	ldr	r1, [pc, #140]	; (8000e88 <HAL_RCC_ClockConfig+0x114>)
 8000dfa:	68a0      	ldr	r0, [r4, #8]
 8000dfc:	688b      	ldr	r3, [r1, #8]
 8000dfe:	f023 03f0 	bic.w	r3, r3, #240	; 0xf0
 8000e02:	4303      	orrs	r3, r0
 8000e04:	608b      	str	r3, [r1, #8]
 8000e06:	e7c6      	b.n	8000d96 <HAL_RCC_ClockConfig+0x22>
 8000e08:	6861      	ldr	r1, [r4, #4]
 8000e0a:	4b1f      	ldr	r3, [pc, #124]	; (8000e88 <HAL_RCC_ClockConfig+0x114>)
 8000e0c:	2901      	cmp	r1, #1
 8000e0e:	681a      	ldr	r2, [r3, #0]
 8000e10:	d11c      	bne.n	8000e4c <HAL_RCC_ClockConfig+0xd8>
 8000e12:	f412 3f00 	tst.w	r2, #131072	; 0x20000
 8000e16:	d0b2      	beq.n	8000d7e <HAL_RCC_ClockConfig+0xa>
 8000e18:	689a      	ldr	r2, [r3, #8]
 8000e1a:	4e1b      	ldr	r6, [pc, #108]	; (8000e88 <HAL_RCC_ClockConfig+0x114>)
 8000e1c:	f022 0203 	bic.w	r2, r2, #3
 8000e20:	430a      	orrs	r2, r1
 8000e22:	609a      	str	r2, [r3, #8]
 8000e24:	f7ff fc72 	bl	800070c <HAL_GetTick>
 8000e28:	f241 3888 	movw	r8, #5000	; 0x1388
 8000e2c:	4607      	mov	r7, r0
 8000e2e:	68b3      	ldr	r3, [r6, #8]
 8000e30:	6862      	ldr	r2, [r4, #4]
 8000e32:	f003 030c 	and.w	r3, r3, #12
 8000e36:	ebb3 0f82 	cmp.w	r3, r2, lsl #2
 8000e3a:	d0ae      	beq.n	8000d9a <HAL_RCC_ClockConfig+0x26>
 8000e3c:	f7ff fc66 	bl	800070c <HAL_GetTick>
 8000e40:	1bc0      	subs	r0, r0, r7
 8000e42:	4540      	cmp	r0, r8
 8000e44:	d9f3      	bls.n	8000e2e <HAL_RCC_ClockConfig+0xba>
 8000e46:	2003      	movs	r0, #3
 8000e48:	e8bd 81f0 	ldmia.w	sp!, {r4, r5, r6, r7, r8, pc}
 8000e4c:	2902      	cmp	r1, #2
 8000e4e:	d102      	bne.n	8000e56 <HAL_RCC_ClockConfig+0xe2>
 8000e50:	f012 7f00 	tst.w	r2, #33554432	; 0x2000000
 8000e54:	e7df      	b.n	8000e16 <HAL_RCC_ClockConfig+0xa2>
 8000e56:	f012 0f02 	tst.w	r2, #2
 8000e5a:	e7dc      	b.n	8000e16 <HAL_RCC_ClockConfig+0xa2>
 8000e5c:	6813      	ldr	r3, [r2, #0]
 8000e5e:	f023 030f 	bic.w	r3, r3, #15
 8000e62:	432b      	orrs	r3, r5
 8000e64:	6013      	str	r3, [r2, #0]
 8000e66:	6813      	ldr	r3, [r2, #0]
 8000e68:	f003 030f 	and.w	r3, r3, #15
 8000e6c:	429d      	cmp	r5, r3
 8000e6e:	d186      	bne.n	8000d7e <HAL_RCC_ClockConfig+0xa>
 8000e70:	e799      	b.n	8000da6 <HAL_RCC_ClockConfig+0x32>
 8000e72:	4905      	ldr	r1, [pc, #20]	; (8000e88 <HAL_RCC_ClockConfig+0x114>)
 8000e74:	68e0      	ldr	r0, [r4, #12]
 8000e76:	688b      	ldr	r3, [r1, #8]
 8000e78:	f423 53e0 	bic.w	r3, r3, #7168	; 0x1c00
 8000e7c:	4303      	orrs	r3, r0
 8000e7e:	608b      	str	r3, [r1, #8]
 8000e80:	e794      	b.n	8000dac <HAL_RCC_ClockConfig+0x38>
 8000e82:	bf00      	nop
 8000e84:	40023c00 	andmi	r3, r2, r0, lsl #24
 8000e88:	40023800 	andmi	r3, r2, r0, lsl #16
 8000e8c:	08002734 	stmdaeq	r0, {r2, r4, r5, r8, r9, sl, sp}
 8000e90:	20000000 	andcs	r0, r0, r0

08000e94 <HAL_RCC_GetPCLK1Freq>:
 8000e94:	4b04      	ldr	r3, [pc, #16]	; (8000ea8 <HAL_RCC_GetPCLK1Freq+0x14>)
 8000e96:	4a05      	ldr	r2, [pc, #20]	; (8000eac <HAL_RCC_GetPCLK1Freq+0x18>)
 8000e98:	689b      	ldr	r3, [r3, #8]
 8000e9a:	f3c3 2382 	ubfx	r3, r3, #10, #3
 8000e9e:	5cd3      	ldrb	r3, [r2, r3]
 8000ea0:	4a03      	ldr	r2, [pc, #12]	; (8000eb0 <HAL_RCC_GetPCLK1Freq+0x1c>)
 8000ea2:	6810      	ldr	r0, [r2, #0]
 8000ea4:	40d8      	lsrs	r0, r3
 8000ea6:	4770      	bx	lr
 8000ea8:	40023800 	andmi	r3, r2, r0, lsl #16
 8000eac:	08002744 	stmdaeq	r0, {r2, r6, r8, r9, sl, sp}
 8000eb0:	20000000 	andcs	r0, r0, r0

08000eb4 <HAL_RCC_GetPCLK2Freq>:
 8000eb4:	4b04      	ldr	r3, [pc, #16]	; (8000ec8 <HAL_RCC_GetPCLK2Freq+0x14>)
 8000eb6:	4a05      	ldr	r2, [pc, #20]	; (8000ecc <HAL_RCC_GetPCLK2Freq+0x18>)
 8000eb8:	689b      	ldr	r3, [r3, #8]
 8000eba:	f3c3 3342 	ubfx	r3, r3, #13, #3
 8000ebe:	5cd3      	ldrb	r3, [r2, r3]
 8000ec0:	4a03      	ldr	r2, [pc, #12]	; (8000ed0 <HAL_RCC_GetPCLK2Freq+0x1c>)
 8000ec2:	6810      	ldr	r0, [r2, #0]
 8000ec4:	40d8      	lsrs	r0, r3
 8000ec6:	4770      	bx	lr
 8000ec8:	40023800 	andmi	r3, r2, r0, lsl #16
 8000ecc:	08002744 	stmdaeq	r0, {r2, r6, r8, r9, sl, sp}
 8000ed0:	20000000 	andcs	r0, r0, r0

08000ed4 <HAL_TIM_Base_MspInit>:
 8000ed4:	4770      	bx	lr

08000ed6 <HAL_TIM_Base_Start_IT>:
 8000ed6:	6803      	ldr	r3, [r0, #0]
 8000ed8:	68da      	ldr	r2, [r3, #12]
 8000eda:	f042 0201 	orr.w	r2, r2, #1
 8000ede:	60da      	str	r2, [r3, #12]
 8000ee0:	681a      	ldr	r2, [r3, #0]
 8000ee2:	f042 0201 	orr.w	r2, r2, #1
 8000ee6:	601a      	str	r2, [r3, #0]
 8000ee8:	2000      	movs	r0, #0
 8000eea:	4770      	bx	lr

08000eec <TIM_Base_SetConfig>:
 8000eec:	4a30      	ldr	r2, [pc, #192]	; (8000fb0 <TIM_Base_SetConfig+0xc4>)
 8000eee:	6803      	ldr	r3, [r0, #0]
 8000ef0:	4290      	cmp	r0, r2
 8000ef2:	d012      	beq.n	8000f1a <TIM_Base_SetConfig+0x2e>
 8000ef4:	f1b0 4f80 	cmp.w	r0, #1073741824	; 0x40000000
 8000ef8:	d00f      	beq.n	8000f1a <TIM_Base_SetConfig+0x2e>
 8000efa:	f5a2 427c 	sub.w	r2, r2, #64512	; 0xfc00
 8000efe:	4290      	cmp	r0, r2
 8000f00:	d00b      	beq.n	8000f1a <TIM_Base_SetConfig+0x2e>
 8000f02:	f502 6280 	add.w	r2, r2, #1024	; 0x400
 8000f06:	4290      	cmp	r0, r2
 8000f08:	d007      	beq.n	8000f1a <TIM_Base_SetConfig+0x2e>
 8000f0a:	f502 6280 	add.w	r2, r2, #1024	; 0x400
 8000f0e:	4290      	cmp	r0, r2
 8000f10:	d003      	beq.n	8000f1a <TIM_Base_SetConfig+0x2e>
 8000f12:	f502 4278 	add.w	r2, r2, #63488	; 0xf800
 8000f16:	4290      	cmp	r0, r2
 8000f18:	d11d      	bne.n	8000f56 <TIM_Base_SetConfig+0x6a>
 8000f1a:	684a      	ldr	r2, [r1, #4]
 8000f1c:	f023 0370 	bic.w	r3, r3, #112	; 0x70
 8000f20:	4313      	orrs	r3, r2
 8000f22:	4a23      	ldr	r2, [pc, #140]	; (8000fb0 <TIM_Base_SetConfig+0xc4>)
 8000f24:	4290      	cmp	r0, r2
 8000f26:	d104      	bne.n	8000f32 <TIM_Base_SetConfig+0x46>
 8000f28:	68ca      	ldr	r2, [r1, #12]
 8000f2a:	f423 7340 	bic.w	r3, r3, #768	; 0x300
 8000f2e:	4313      	orrs	r3, r2
 8000f30:	e028      	b.n	8000f84 <TIM_Base_SetConfig+0x98>
 8000f32:	f1b0 4f80 	cmp.w	r0, #1073741824	; 0x40000000
 8000f36:	d0f7      	beq.n	8000f28 <TIM_Base_SetConfig+0x3c>
 8000f38:	4a1e      	ldr	r2, [pc, #120]	; (8000fb4 <TIM_Base_SetConfig+0xc8>)
 8000f3a:	4290      	cmp	r0, r2
 8000f3c:	d0f4      	beq.n	8000f28 <TIM_Base_SetConfig+0x3c>
 8000f3e:	f502 6280 	add.w	r2, r2, #1024	; 0x400
 8000f42:	4290      	cmp	r0, r2
 8000f44:	d0f0      	beq.n	8000f28 <TIM_Base_SetConfig+0x3c>
 8000f46:	f502 6280 	add.w	r2, r2, #1024	; 0x400
 8000f4a:	4290      	cmp	r0, r2
 8000f4c:	d0ec      	beq.n	8000f28 <TIM_Base_SetConfig+0x3c>
 8000f4e:	f502 4278 	add.w	r2, r2, #63488	; 0xf800
 8000f52:	4290      	cmp	r0, r2
 8000f54:	d0e8      	beq.n	8000f28 <TIM_Base_SetConfig+0x3c>
 8000f56:	4a18      	ldr	r2, [pc, #96]	; (8000fb8 <TIM_Base_SetConfig+0xcc>)
 8000f58:	4290      	cmp	r0, r2
 8000f5a:	d0e5      	beq.n	8000f28 <TIM_Base_SetConfig+0x3c>
 8000f5c:	f502 6280 	add.w	r2, r2, #1024	; 0x400
 8000f60:	4290      	cmp	r0, r2
 8000f62:	d0e1      	beq.n	8000f28 <TIM_Base_SetConfig+0x3c>
 8000f64:	f502 6280 	add.w	r2, r2, #1024	; 0x400
 8000f68:	4290      	cmp	r0, r2
 8000f6a:	d0dd      	beq.n	8000f28 <TIM_Base_SetConfig+0x3c>
 8000f6c:	f5a2 3298 	sub.w	r2, r2, #77824	; 0x13000
 8000f70:	4290      	cmp	r0, r2
 8000f72:	d0d9      	beq.n	8000f28 <TIM_Base_SetConfig+0x3c>
 8000f74:	f502 6280 	add.w	r2, r2, #1024	; 0x400
 8000f78:	4290      	cmp	r0, r2
 8000f7a:	d0d5      	beq.n	8000f28 <TIM_Base_SetConfig+0x3c>
 8000f7c:	f502 6280 	add.w	r2, r2, #1024	; 0x400
 8000f80:	4290      	cmp	r0, r2
 8000f82:	d0d1      	beq.n	8000f28 <TIM_Base_SetConfig+0x3c>
 8000f84:	694a      	ldr	r2, [r1, #20]
 8000f86:	f023 0380 	bic.w	r3, r3, #128	; 0x80
 8000f8a:	4313      	orrs	r3, r2
 8000f8c:	6003      	str	r3, [r0, #0]
 8000f8e:	688b      	ldr	r3, [r1, #8]
 8000f90:	62c3      	str	r3, [r0, #44]	; 0x2c
 8000f92:	680b      	ldr	r3, [r1, #0]
 8000f94:	6283      	str	r3, [r0, #40]	; 0x28
 8000f96:	4b06      	ldr	r3, [pc, #24]	; (8000fb0 <TIM_Base_SetConfig+0xc4>)
 8000f98:	4298      	cmp	r0, r3
 8000f9a:	d006      	beq.n	8000faa <TIM_Base_SetConfig+0xbe>
 8000f9c:	f503 6380 	add.w	r3, r3, #1024	; 0x400
 8000fa0:	4298      	cmp	r0, r3
 8000fa2:	d002      	beq.n	8000faa <TIM_Base_SetConfig+0xbe>
 8000fa4:	2301      	movs	r3, #1
 8000fa6:	6143      	str	r3, [r0, #20]
 8000fa8:	4770      	bx	lr
 8000faa:	690b      	ldr	r3, [r1, #16]
 8000fac:	6303      	str	r3, [r0, #48]	; 0x30
 8000fae:	e7f9      	b.n	8000fa4 <TIM_Base_SetConfig+0xb8>
 8000fb0:	40010000 	andmi	r0, r1, r0
 8000fb4:	40000400 	andmi	r0, r0, r0, lsl #8
 8000fb8:	40014000 	andmi	r4, r1, r0

08000fbc <HAL_TIM_Base_Init>:
 8000fbc:	b510      	push	{r4, lr}
 8000fbe:	4604      	mov	r4, r0
 8000fc0:	b1a0      	cbz	r0, 8000fec <HAL_TIM_Base_Init+0x30>
 8000fc2:	f890 303d 	ldrb.w	r3, [r0, #61]	; 0x3d
 8000fc6:	f003 02ff 	and.w	r2, r3, #255	; 0xff
 8000fca:	b91b      	cbnz	r3, 8000fd4 <HAL_TIM_Base_Init+0x18>
 8000fcc:	f880 203c 	strb.w	r2, [r0, #60]	; 0x3c
 8000fd0:	f7ff ff80 	bl	8000ed4 <HAL_TIM_Base_MspInit>
 8000fd4:	2302      	movs	r3, #2
 8000fd6:	f884 303d 	strb.w	r3, [r4, #61]	; 0x3d
 8000fda:	6820      	ldr	r0, [r4, #0]
 8000fdc:	1d21      	adds	r1, r4, #4
 8000fde:	f7ff ff85 	bl	8000eec <TIM_Base_SetConfig>
 8000fe2:	2301      	movs	r3, #1
 8000fe4:	f884 303d 	strb.w	r3, [r4, #61]	; 0x3d
 8000fe8:	2000      	movs	r0, #0
 8000fea:	bd10      	pop	{r4, pc}
 8000fec:	2001      	movs	r0, #1
 8000fee:	bd10      	pop	{r4, pc}

08000ff0 <_ZN13I2C_Interface5startEv>:
 8000ff0:	4770      	bx	lr

08000ff2 <_ZN13I2C_Interface4stopEv>:
 8000ff2:	4770      	bx	lr

08000ff4 <_ZN13I2C_Interface4initEv>:
 8000ff4:	2314      	movs	r3, #20
 8000ff6:	6043      	str	r3, [r0, #4]
 8000ff8:	4770      	bx	lr

08000ffa <_ZN13I2C_Interface5writeEh>:
 8000ffa:	2000      	movs	r0, #0
 8000ffc:	4770      	bx	lr

08000ffe <_ZN13I2C_Interface4readEh>:
 8000ffe:	2000      	movs	r0, #0
 8001000:	4770      	bx	lr
 8001002:	0000      	movs	r0, r0

08001004 <_ZN13I2C_InterfaceC1Ev>:
 8001004:	4b01      	ldr	r3, [pc, #4]	; (800100c <_ZN13I2C_InterfaceC1Ev+0x8>)
 8001006:	6003      	str	r3, [r0, #0]
 8001008:	4770      	bx	lr
 800100a:	bf00      	nop
 800100c:	08002768 	stmdaeq	r0, {r3, r5, r6, r8, r9, sl, sp}

08001010 <_ZN13I2C_InterfaceD1Ev>:
 8001010:	4770      	bx	lr

08001012 <_ZN13I2C_Interface9write_regEhhh>:
 8001012:	e92d 41f0 	stmdb	sp!, {r4, r5, r6, r7, r8, lr}
 8001016:	461d      	mov	r5, r3
 8001018:	6803      	ldr	r3, [r0, #0]
 800101a:	4604      	mov	r4, r0
 800101c:	681b      	ldr	r3, [r3, #0]
 800101e:	4616      	mov	r6, r2
 8001020:	460f      	mov	r7, r1
 8001022:	4798      	blx	r3
 8001024:	6823      	ldr	r3, [r4, #0]
 8001026:	4639      	mov	r1, r7
 8001028:	68db      	ldr	r3, [r3, #12]
 800102a:	4620      	mov	r0, r4
 800102c:	4798      	blx	r3
 800102e:	6823      	ldr	r3, [r4, #0]
 8001030:	4631      	mov	r1, r6
 8001032:	68db      	ldr	r3, [r3, #12]
 8001034:	4620      	mov	r0, r4
 8001036:	4798      	blx	r3
 8001038:	6823      	ldr	r3, [r4, #0]
 800103a:	4629      	mov	r1, r5
 800103c:	68da      	ldr	r2, [r3, #12]
 800103e:	4620      	mov	r0, r4
 8001040:	4790      	blx	r2
 8001042:	6823      	ldr	r3, [r4, #0]
 8001044:	4620      	mov	r0, r4
 8001046:	685b      	ldr	r3, [r3, #4]
 8001048:	e8bd 41f0 	ldmia.w	sp!, {r4, r5, r6, r7, r8, lr}
 800104c:	4718      	bx	r3

0800104e <_ZN13I2C_Interface8read_regEhh>:
 800104e:	6803      	ldr	r3, [r0, #0]
 8001050:	b570      	push	{r4, r5, r6, lr}
 8001052:	4604      	mov	r4, r0
 8001054:	681b      	ldr	r3, [r3, #0]
 8001056:	4616      	mov	r6, r2
 8001058:	460d      	mov	r5, r1
 800105a:	4798      	blx	r3
 800105c:	6823      	ldr	r3, [r4, #0]
 800105e:	4629      	mov	r1, r5
 8001060:	68db      	ldr	r3, [r3, #12]
 8001062:	4620      	mov	r0, r4
 8001064:	4798      	blx	r3
 8001066:	6823      	ldr	r3, [r4, #0]
 8001068:	4631      	mov	r1, r6
 800106a:	68db      	ldr	r3, [r3, #12]
 800106c:	4620      	mov	r0, r4
 800106e:	4798      	blx	r3
 8001070:	6823      	ldr	r3, [r4, #0]
 8001072:	4620      	mov	r0, r4
 8001074:	681b      	ldr	r3, [r3, #0]
 8001076:	4798      	blx	r3
 8001078:	6823      	ldr	r3, [r4, #0]
 800107a:	f045 0101 	orr.w	r1, r5, #1
 800107e:	68db      	ldr	r3, [r3, #12]
 8001080:	4620      	mov	r0, r4
 8001082:	4798      	blx	r3
 8001084:	6823      	ldr	r3, [r4, #0]
 8001086:	2100      	movs	r1, #0
 8001088:	691b      	ldr	r3, [r3, #16]
 800108a:	4620      	mov	r0, r4
 800108c:	4798      	blx	r3
 800108e:	6823      	ldr	r3, [r4, #0]
 8001090:	4605      	mov	r5, r0
 8001092:	685b      	ldr	r3, [r3, #4]
 8001094:	4620      	mov	r0, r4
 8001096:	4798      	blx	r3
 8001098:	4628      	mov	r0, r5
 800109a:	bd70      	pop	{r4, r5, r6, pc}

0800109c <_ZN13I2C_Interface5delayEv>:
 800109c:	6842      	ldr	r2, [r0, #4]
 800109e:	2300      	movs	r3, #0
 80010a0:	4293      	cmp	r3, r2
 80010a2:	d002      	beq.n	80010aa <_ZN13I2C_Interface5delayEv+0xe>
 80010a4:	bf00      	nop
 80010a6:	3301      	adds	r3, #1
 80010a8:	e7fa      	b.n	80010a0 <_ZN13I2C_Interface5delayEv+0x4>
 80010aa:	4770      	bx	lr

080010ac <_Z8mem_initv>:
 80010ac:	4b01      	ldr	r3, [pc, #4]	; (80010b4 <_Z8mem_initv+0x8>)
 80010ae:	4802      	ldr	r0, [pc, #8]	; (80010b8 <_Z8mem_initv+0xc>)
 80010b0:	6018      	str	r0, [r3, #0]
 80010b2:	4770      	bx	lr
 80010b4:	20000004 	andcs	r0, r0, r4
 80010b8:	200002e4 	andcs	r0, r0, r4, ror #5

080010bc <_ZdlPvj>:
 80010bc:	4770      	bx	lr

080010be <__aeabi_atexit>:
 80010be:	2000      	movs	r0, #0
 80010c0:	4770      	bx	lr

080010c2 <_ZN12BackLedLightD1Ev>:
 80010c2:	4770      	bx	lr

080010c4 <_ZN12BackLedLightD0Ev>:
 80010c4:	b510      	push	{r4, lr}
 80010c6:	2114      	movs	r1, #20
 80010c8:	4604      	mov	r4, r0
 80010ca:	f7ff fff7 	bl	80010bc <_ZdlPvj>
 80010ce:	4620      	mov	r0, r4
 80010d0:	bd10      	pop	{r4, pc}
 80010d2:	0000      	movs	r0, r0

080010d4 <_ZN12BackLedLight4mainEv>:
 80010d4:	6883      	ldr	r3, [r0, #8]
 80010d6:	b510      	push	{r4, lr}
 80010d8:	4604      	mov	r4, r0
 80010da:	b9d3      	cbnz	r3, 8001112 <_ZN12BackLedLight4mainEv+0x3e>
 80010dc:	6842      	ldr	r2, [r0, #4]
 80010de:	6953      	ldr	r3, [r2, #20]
 80010e0:	f423 5300 	bic.w	r3, r3, #8192	; 0x2000
 80010e4:	6153      	str	r3, [r2, #20]
 80010e6:	68a3      	ldr	r3, [r4, #8]
 80010e8:	2b05      	cmp	r3, #5
 80010ea:	d127      	bne.n	800113c <_ZN12BackLedLight4mainEv+0x68>
 80010ec:	68e3      	ldr	r3, [r4, #12]
 80010ee:	2232      	movs	r2, #50	; 0x32
 80010f0:	f003 0107 	and.w	r1, r3, #7
 80010f4:	fbb3 f3f2 	udiv	r3, r3, r2
 80010f8:	220f      	movs	r2, #15
 80010fa:	fbb3 f2f2 	udiv	r2, r3, r2
 80010fe:	ebc2 1202 	rsb	r2, r2, r2, lsl #4
 8001102:	1a9b      	subs	r3, r3, r2
 8001104:	4a27      	ldr	r2, [pc, #156]	; (80011a4 <_ZN12BackLedLight4mainEv+0xd0>)
 8001106:	5cd3      	ldrb	r3, [r2, r3]
 8001108:	4299      	cmp	r1, r3
 800110a:	6863      	ldr	r3, [r4, #4]
 800110c:	695a      	ldr	r2, [r3, #20]
 800110e:	d21a      	bcs.n	8001146 <_ZN12BackLedLight4mainEv+0x72>
 8001110:	e011      	b.n	8001136 <_ZN12BackLedLight4mainEv+0x62>
 8001112:	2b01      	cmp	r3, #1
 8001114:	d104      	bne.n	8001120 <_ZN12BackLedLight4mainEv+0x4c>
 8001116:	6842      	ldr	r2, [r0, #4]
 8001118:	6953      	ldr	r3, [r2, #20]
 800111a:	f443 5300 	orr.w	r3, r3, #8192	; 0x2000
 800111e:	e7e1      	b.n	80010e4 <_ZN12BackLedLight4mainEv+0x10>
 8001120:	2b02      	cmp	r3, #2
 8001122:	d113      	bne.n	800114c <_ZN12BackLedLight4mainEv+0x78>
 8001124:	68c1      	ldr	r1, [r0, #12]
 8001126:	2364      	movs	r3, #100	; 0x64
 8001128:	fbb1 f2f3 	udiv	r2, r1, r3
 800112c:	fb03 1212 	mls	r2, r3, r2, r1
 8001130:	6843      	ldr	r3, [r0, #4]
 8001132:	b93a      	cbnz	r2, 8001144 <_ZN12BackLedLight4mainEv+0x70>
 8001134:	695a      	ldr	r2, [r3, #20]
 8001136:	f442 5200 	orr.w	r2, r2, #8192	; 0x2000
 800113a:	615a      	str	r2, [r3, #20]
 800113c:	68e3      	ldr	r3, [r4, #12]
 800113e:	3301      	adds	r3, #1
 8001140:	60e3      	str	r3, [r4, #12]
 8001142:	bd10      	pop	{r4, pc}
 8001144:	695a      	ldr	r2, [r3, #20]
 8001146:	f422 5200 	bic.w	r2, r2, #8192	; 0x2000
 800114a:	e7f6      	b.n	800113a <_ZN12BackLedLight4mainEv+0x66>
 800114c:	2b04      	cmp	r3, #4
 800114e:	d110      	bne.n	8001172 <_ZN12BackLedLight4mainEv+0x9e>
 8001150:	68c1      	ldr	r1, [r0, #12]
 8001152:	2332      	movs	r3, #50	; 0x32
 8001154:	fbb1 f2f3 	udiv	r2, r1, r3
 8001158:	fb03 1212 	mls	r2, r3, r2, r1
 800115c:	6843      	ldr	r3, [r0, #4]
 800115e:	b922      	cbnz	r2, 800116a <_ZN12BackLedLight4mainEv+0x96>
 8001160:	695a      	ldr	r2, [r3, #20]
 8001162:	f442 5200 	orr.w	r2, r2, #8192	; 0x2000
 8001166:	615a      	str	r2, [r3, #20]
 8001168:	e7bd      	b.n	80010e6 <_ZN12BackLedLight4mainEv+0x12>
 800116a:	695a      	ldr	r2, [r3, #20]
 800116c:	f422 5200 	bic.w	r2, r2, #8192	; 0x2000
 8001170:	e7f9      	b.n	8001166 <_ZN12BackLedLight4mainEv+0x92>
 8001172:	2b03      	cmp	r3, #3
 8001174:	d1b7      	bne.n	80010e6 <_ZN12BackLedLight4mainEv+0x12>
 8001176:	480c      	ldr	r0, [pc, #48]	; (80011a8 <_ZN12BackLedLight4mainEv+0xd4>)
 8001178:	f000 fe22 	bl	8001dc0 <_ZN5Timer8get_timeEv>
 800117c:	6923      	ldr	r3, [r4, #16]
 800117e:	f503 7348 	add.w	r3, r3, #800	; 0x320
 8001182:	4298      	cmp	r0, r3
 8001184:	d902      	bls.n	800118c <_ZN12BackLedLight4mainEv+0xb8>
 8001186:	2301      	movs	r3, #1
 8001188:	60a3      	str	r3, [r4, #8]
 800118a:	e7ac      	b.n	80010e6 <_ZN12BackLedLight4mainEv+0x12>
 800118c:	68e1      	ldr	r1, [r4, #12]
 800118e:	2264      	movs	r2, #100	; 0x64
 8001190:	fbb1 f3f2 	udiv	r3, r1, r2
 8001194:	fb02 1313 	mls	r3, r2, r3, r1
 8001198:	2b18      	cmp	r3, #24
 800119a:	6863      	ldr	r3, [r4, #4]
 800119c:	695a      	ldr	r2, [r3, #20]
 800119e:	d8e5      	bhi.n	800116c <_ZN12BackLedLight4mainEv+0x98>
 80011a0:	e7df      	b.n	8001162 <_ZN12BackLedLight4mainEv+0x8e>
 80011a2:	bf00      	nop
 80011a4:	0800277c 	stmdaeq	r0, {r2, r3, r4, r5, r6, r8, r9, sl, sp}
 80011a8:	200002dc 	ldrdcs	r0, [r0], -ip

080011ac <_ZN12BackLedLight8set_modeEj>:
 80011ac:	b510      	push	{r4, lr}
 80011ae:	2300      	movs	r3, #0
 80011b0:	4604      	mov	r4, r0
 80011b2:	60c3      	str	r3, [r0, #12]
 80011b4:	6081      	str	r1, [r0, #8]
 80011b6:	4802      	ldr	r0, [pc, #8]	; (80011c0 <_ZN12BackLedLight8set_modeEj+0x14>)
 80011b8:	f000 fe02 	bl	8001dc0 <_ZN5Timer8get_timeEv>
 80011bc:	6120      	str	r0, [r4, #16]
 80011be:	bd10      	pop	{r4, pc}
 80011c0:	200002dc 	ldrdcs	r0, [r0], -ip

080011c4 <_ZN12BackLedLightC1Ev>:
 80011c4:	4a16      	ldr	r2, [pc, #88]	; (8001220 <_ZN12BackLedLightC1Ev+0x5c>)
 80011c6:	4b17      	ldr	r3, [pc, #92]	; (8001224 <_ZN12BackLedLightC1Ev+0x60>)
 80011c8:	b510      	push	{r4, lr}
 80011ca:	6003      	str	r3, [r0, #0]
 80011cc:	6b13      	ldr	r3, [r2, #48]	; 0x30
 80011ce:	ea6f 2353 	mvn.w	r3, r3, lsr #9
 80011d2:	ea6f 2343 	mvn.w	r3, r3, lsl #9
 80011d6:	6313      	str	r3, [r2, #48]	; 0x30
 80011d8:	4b13      	ldr	r3, [pc, #76]	; (8001228 <_ZN12BackLedLightC1Ev+0x64>)
 80011da:	6043      	str	r3, [r0, #4]
 80011dc:	689a      	ldr	r2, [r3, #8]
 80011de:	f022 6240 	bic.w	r2, r2, #201326592	; 0xc000000
 80011e2:	609a      	str	r2, [r3, #8]
 80011e4:	689a      	ldr	r2, [r3, #8]
 80011e6:	f042 6240 	orr.w	r2, r2, #201326592	; 0xc000000
 80011ea:	609a      	str	r2, [r3, #8]
 80011ec:	685a      	ldr	r2, [r3, #4]
 80011ee:	f422 5200 	bic.w	r2, r2, #8192	; 0x2000
 80011f2:	605a      	str	r2, [r3, #4]
 80011f4:	685a      	ldr	r2, [r3, #4]
 80011f6:	605a      	str	r2, [r3, #4]
 80011f8:	681a      	ldr	r2, [r3, #0]
 80011fa:	f022 6240 	bic.w	r2, r2, #201326592	; 0xc000000
 80011fe:	601a      	str	r2, [r3, #0]
 8001200:	681a      	ldr	r2, [r3, #0]
 8001202:	f042 6280 	orr.w	r2, r2, #67108864	; 0x4000000
 8001206:	4604      	mov	r4, r0
 8001208:	601a      	str	r2, [r3, #0]
 800120a:	2103      	movs	r1, #3
 800120c:	f7ff ffce 	bl	80011ac <_ZN12BackLedLight8set_modeEj>
 8001210:	2300      	movs	r3, #0
 8001212:	2201      	movs	r2, #1
 8001214:	4621      	mov	r1, r4
 8001216:	4805      	ldr	r0, [pc, #20]	; (800122c <_ZN12BackLedLightC1Ev+0x68>)
 8001218:	f000 fd9e 	bl	8001d58 <_ZN5Timer8add_taskEP6Threadjb>
 800121c:	4620      	mov	r0, r4
 800121e:	bd10      	pop	{r4, pc}
 8001220:	40023800 	andmi	r3, r2, r0, lsl #16
 8001224:	08002794 	stmdaeq	r0, {r2, r4, r7, r8, r9, sl, sp}
 8001228:	40020c00 	andmi	r0, r2, r0, lsl #24
 800122c:	200002dc 	ldrdcs	r0, [r0], -ip

08001230 <main>:
 8001230:	b57f      	push	{r0, r1, r2, r3, r4, r5, r6, lr}
 8001232:	f000 f823 	bl	800127c <_Z27core_SystemClock_Config_300v>
 8001236:	480e      	ldr	r0, [pc, #56]	; (8001270 <main+0x40>)
 8001238:	f001 f85c 	bl	80022f4 <_ZN7Drivers4initEv>
 800123c:	a801      	add	r0, sp, #4
 800123e:	f7ff ffc1 	bl	80011c4 <_ZN12BackLedLightC1Ev>
 8001242:	f44f 7148 	mov.w	r1, #800	; 0x320
 8001246:	480b      	ldr	r0, [pc, #44]	; (8001274 <main+0x44>)
 8001248:	f000 fdc6 	bl	8001dd8 <_ZN5Timer8delay_msEj>
 800124c:	2105      	movs	r1, #5
 800124e:	a801      	add	r0, sp, #4
 8001250:	f7ff ffac 	bl	80011ac <_ZN12BackLedLight8set_modeEj>
 8001254:	4808      	ldr	r0, [pc, #32]	; (8001278 <main+0x48>)
 8001256:	f000 f92f 	bl	80014b8 <_ZN3Key4readEv>
 800125a:	2104      	movs	r1, #4
 800125c:	eb0d 0001 	add.w	r0, sp, r1
 8001260:	f7ff ffa4 	bl	80011ac <_ZN12BackLedLight8set_modeEj>
 8001264:	f04f 31ff 	mov.w	r1, #4294967295	; 0xffffffff
 8001268:	4801      	ldr	r0, [pc, #4]	; (8001270 <main+0x40>)
 800126a:	f000 feb9 	bl	8001fe0 <_ZN7Drivers15test_imu_sensorEi>
 800126e:	e7fe      	b.n	800126e <main+0x3e>
 8001270:	20000198 	mulcs	r0, r8, r1
 8001274:	200002dc 	ldrdcs	r0, [r0], -ip
 8001278:	200001f4 	strdcs	r0, [r0], -r4

0800127c <_Z27core_SystemClock_Config_300v>:
 800127c:	b510      	push	{r4, lr}
 800127e:	b092      	sub	sp, #72	; 0x48
 8001280:	2301      	movs	r3, #1
 8001282:	9306      	str	r3, [sp, #24]
 8001284:	f44f 3380 	mov.w	r3, #65536	; 0x10000
 8001288:	9307      	str	r3, [sp, #28]
 800128a:	f44f 0380 	mov.w	r3, #4194304	; 0x400000
 800128e:	930d      	str	r3, [sp, #52]	; 0x34
 8001290:	2304      	movs	r3, #4
 8001292:	930e      	str	r3, [sp, #56]	; 0x38
 8001294:	f44f 7396 	mov.w	r3, #300	; 0x12c
 8001298:	2402      	movs	r4, #2
 800129a:	930f      	str	r3, [sp, #60]	; 0x3c
 800129c:	a806      	add	r0, sp, #24
 800129e:	2309      	movs	r3, #9
 80012a0:	940c      	str	r4, [sp, #48]	; 0x30
 80012a2:	9410      	str	r4, [sp, #64]	; 0x40
 80012a4:	9311      	str	r3, [sp, #68]	; 0x44
 80012a6:	f7ff fba1 	bl	80009ec <HAL_RCC_OscConfig>
 80012aa:	b100      	cbz	r0, 80012ae <_Z27core_SystemClock_Config_300v+0x32>
 80012ac:	e7fe      	b.n	80012ac <_Z27core_SystemClock_Config_300v+0x30>
 80012ae:	f7ff fa89 	bl	80007c4 <HAL_PWREx_EnableOverDrive>
 80012b2:	b100      	cbz	r0, 80012b6 <_Z27core_SystemClock_Config_300v+0x3a>
 80012b4:	e7fe      	b.n	80012b4 <_Z27core_SystemClock_Config_300v+0x38>
 80012b6:	230f      	movs	r3, #15
 80012b8:	9301      	str	r3, [sp, #4]
 80012ba:	f44f 53a0 	mov.w	r3, #5120	; 0x1400
 80012be:	9003      	str	r0, [sp, #12]
 80012c0:	9304      	str	r3, [sp, #16]
 80012c2:	2107      	movs	r1, #7
 80012c4:	f44f 5380 	mov.w	r3, #4096	; 0x1000
 80012c8:	a801      	add	r0, sp, #4
 80012ca:	9402      	str	r4, [sp, #8]
 80012cc:	9305      	str	r3, [sp, #20]
 80012ce:	f7ff fd51 	bl	8000d74 <HAL_RCC_ClockConfig>
 80012d2:	b100      	cbz	r0, 80012d6 <_Z27core_SystemClock_Config_300v+0x5a>
 80012d4:	e7fe      	b.n	80012d4 <_Z27core_SystemClock_Config_300v+0x58>
 80012d6:	b012      	add	sp, #72	; 0x48
 80012d8:	bd10      	pop	{r4, pc}
 80012da:	0000      	movs	r0, r0

080012dc <_ZN8TerminalD1Ev>:
 80012dc:	b510      	push	{r4, lr}
 80012de:	4b03      	ldr	r3, [pc, #12]	; (80012ec <_ZN8TerminalD1Ev+0x10>)
 80012e0:	6003      	str	r3, [r0, #0]
 80012e2:	4604      	mov	r4, r0
 80012e4:	f000 fbf4 	bl	8001ad0 <_ZN5UsartD1Ev>
 80012e8:	4620      	mov	r0, r4
 80012ea:	bd10      	pop	{r4, pc}
 80012ec:	080027a8 	stmdaeq	r0, {r3, r5, r7, r8, r9, sl, sp}

080012f0 <_ZN8TerminalD0Ev>:
 80012f0:	b510      	push	{r4, lr}
 80012f2:	4604      	mov	r4, r0
 80012f4:	f7ff fff2 	bl	80012dc <_ZN8TerminalD1Ev>
 80012f8:	4620      	mov	r0, r4
 80012fa:	2104      	movs	r1, #4
 80012fc:	f7ff fede 	bl	80010bc <_ZdlPvj>
 8001300:	4620      	mov	r0, r4
 8001302:	bd10      	pop	{r4, pc}

08001304 <_ZN8TerminalC1Ev>:
 8001304:	b510      	push	{r4, lr}
 8001306:	4604      	mov	r4, r0
 8001308:	f000 fbea 	bl	8001ae0 <_ZN5UsartC1Ev>
 800130c:	4b01      	ldr	r3, [pc, #4]	; (8001314 <_ZN8TerminalC1Ev+0x10>)
 800130e:	6023      	str	r3, [r4, #0]
 8001310:	4620      	mov	r0, r4
 8001312:	bd10      	pop	{r4, pc}
 8001314:	080027a8 	stmdaeq	r0, {r3, r5, r7, r8, r9, sl, sp}

08001318 <_ZN8Terminal4putsEPc>:
 8001318:	b538      	push	{r3, r4, r5, lr}
 800131a:	4605      	mov	r5, r0
 800131c:	1e4c      	subs	r4, r1, #1
 800131e:	f814 1f01 	ldrb.w	r1, [r4, #1]!
 8001322:	b119      	cbz	r1, 800132c <_ZN8Terminal4putsEPc+0x14>
 8001324:	4628      	mov	r0, r5
 8001326:	f000 fc1f 	bl	8001b68 <_ZN5Usart8put_charEc>
 800132a:	e7f8      	b.n	800131e <_ZN8Terminal4putsEPc+0x6>
 800132c:	bd38      	pop	{r3, r4, r5, pc}

0800132e <_ZN8Terminal4putsEPKc>:
 800132e:	f7ff bff3 	b.w	8001318 <_ZN8Terminal4putsEPc>

08001332 <_ZN8Terminal4putiEl>:
 8001332:	b57f      	push	{r0, r1, r2, r3, r4, r5, r6, lr}
 8001334:	1e0b      	subs	r3, r1, #0
 8001336:	f04f 0200 	mov.w	r2, #0
 800133a:	f04f 010a 	mov.w	r1, #10
 800133e:	bfba      	itte	lt
 8001340:	425b      	neglt	r3, r3
 8001342:	2401      	movlt	r4, #1
 8001344:	4614      	movge	r4, r2
 8001346:	f88d 200f 	strb.w	r2, [sp, #15]
 800134a:	460e      	mov	r6, r1
 800134c:	aa04      	add	r2, sp, #16
 800134e:	fb93 f5f6 	sdiv	r5, r3, r6
 8001352:	440a      	add	r2, r1
 8001354:	fb06 3315 	mls	r3, r6, r5, r3
 8001358:	3330      	adds	r3, #48	; 0x30
 800135a:	f802 3c0c 	strb.w	r3, [r2, #-12]
 800135e:	1e4a      	subs	r2, r1, #1
 8001360:	b2d2      	uxtb	r2, r2
 8001362:	462b      	mov	r3, r5
 8001364:	b965      	cbnz	r5, 8001380 <_ZN8Terminal4putiEl+0x4e>
 8001366:	b12c      	cbz	r4, 8001374 <_ZN8Terminal4putiEl+0x42>
 8001368:	ab04      	add	r3, sp, #16
 800136a:	4413      	add	r3, r2
 800136c:	212d      	movs	r1, #45	; 0x2d
 800136e:	f803 1c0c 	strb.w	r1, [r3, #-12]
 8001372:	4611      	mov	r1, r2
 8001374:	ab01      	add	r3, sp, #4
 8001376:	4419      	add	r1, r3
 8001378:	f7ff ffce 	bl	8001318 <_ZN8Terminal4putsEPc>
 800137c:	b004      	add	sp, #16
 800137e:	bd70      	pop	{r4, r5, r6, pc}
 8001380:	4611      	mov	r1, r2
 8001382:	e7e3      	b.n	800134c <_ZN8Terminal4putiEl+0x1a>

08001384 <_ZN8Terminal5putuiEm>:
 8001384:	b530      	push	{r4, r5, lr}
 8001386:	b085      	sub	sp, #20
 8001388:	2300      	movs	r3, #0
 800138a:	220a      	movs	r2, #10
 800138c:	f88d 300f 	strb.w	r3, [sp, #15]
 8001390:	4615      	mov	r5, r2
 8001392:	fbb1 f4f5 	udiv	r4, r1, r5
 8001396:	fb05 1314 	mls	r3, r5, r4, r1
 800139a:	a904      	add	r1, sp, #16
 800139c:	4411      	add	r1, r2
 800139e:	3330      	adds	r3, #48	; 0x30
 80013a0:	f801 3c0c 	strb.w	r3, [r1, #-12]
 80013a4:	1e53      	subs	r3, r2, #1
 80013a6:	b2db      	uxtb	r3, r3
 80013a8:	4621      	mov	r1, r4
 80013aa:	b92c      	cbnz	r4, 80013b8 <_ZN8Terminal5putuiEm+0x34>
 80013ac:	ab01      	add	r3, sp, #4
 80013ae:	1899      	adds	r1, r3, r2
 80013b0:	f7ff ffb2 	bl	8001318 <_ZN8Terminal4putsEPc>
 80013b4:	b005      	add	sp, #20
 80013b6:	bd30      	pop	{r4, r5, pc}
 80013b8:	461a      	mov	r2, r3
 80013ba:	e7ea      	b.n	8001392 <_ZN8Terminal5putuiEm+0xe>

080013bc <_ZN9ADCDriverD1Ev>:
 80013bc:	4770      	bx	lr

080013be <_ZN9ADCDriverD0Ev>:
 80013be:	b510      	push	{r4, lr}
 80013c0:	2104      	movs	r1, #4
 80013c2:	4604      	mov	r4, r0
 80013c4:	f7ff fe7a 	bl	80010bc <_ZdlPvj>
 80013c8:	4620      	mov	r0, r4
 80013ca:	bd10      	pop	{r4, pc}

080013cc <_ZN9ADCDriverC1Ev>:
 80013cc:	4b01      	ldr	r3, [pc, #4]	; (80013d4 <_ZN9ADCDriverC1Ev+0x8>)
 80013ce:	6003      	str	r3, [r0, #0]
 80013d0:	4770      	bx	lr
 80013d2:	bf00      	nop
 80013d4:	080027b8 	stmdaeq	r0, {r3, r4, r5, r7, r8, r9, sl, sp}

080013d8 <_ZN9ADCDriver4initEv>:
 80013d8:	4770      	bx	lr

080013da <_ZN9ADCDriver4readEj>:
 80013da:	2000      	movs	r0, #0
 80013dc:	4770      	bx	lr

080013de <_ZN3KeyD1Ev>:
 80013de:	4770      	bx	lr

080013e0 <_ZN3KeyD0Ev>:
 80013e0:	b510      	push	{r4, lr}
 80013e2:	2118      	movs	r1, #24
 80013e4:	4604      	mov	r4, r0
 80013e6:	f7ff fe69 	bl	80010bc <_ZdlPvj>
 80013ea:	4620      	mov	r0, r4
 80013ec:	bd10      	pop	{r4, pc}

080013ee <_ZN3Key4mainEv>:
 80013ee:	7b02      	ldrb	r2, [r0, #12]
 80013f0:	6883      	ldr	r3, [r0, #8]
 80013f2:	b132      	cbz	r2, 8001402 <_ZN3Key4mainEv+0x14>
 80013f4:	2200      	movs	r2, #0
 80013f6:	7302      	strb	r2, [r0, #12]
 80013f8:	695a      	ldr	r2, [r3, #20]
 80013fa:	f442 7280 	orr.w	r2, r2, #256	; 0x100
 80013fe:	615a      	str	r2, [r3, #20]
 8001400:	4770      	bx	lr
 8001402:	2201      	movs	r2, #1
 8001404:	7302      	strb	r2, [r0, #12]
 8001406:	695a      	ldr	r2, [r3, #20]
 8001408:	f422 7280 	bic.w	r2, r2, #256	; 0x100
 800140c:	e7f7      	b.n	80013fe <_ZN3Key4mainEv+0x10>
 800140e:	0000      	movs	r0, r0

08001410 <_ZN3KeyC1Ev>:
 8001410:	4a1c      	ldr	r2, [pc, #112]	; (8001484 <_ZN3KeyC1Ev+0x74>)
 8001412:	4b1d      	ldr	r3, [pc, #116]	; (8001488 <_ZN3KeyC1Ev+0x78>)
 8001414:	6003      	str	r3, [r0, #0]
 8001416:	6b13      	ldr	r3, [r2, #48]	; 0x30
 8001418:	b530      	push	{r4, r5, lr}
 800141a:	f240 15ff 	movw	r5, #511	; 0x1ff
 800141e:	432b      	orrs	r3, r5
 8001420:	6313      	str	r3, [r2, #48]	; 0x30
 8001422:	4b1a      	ldr	r3, [pc, #104]	; (800148c <_ZN3KeyC1Ev+0x7c>)
 8001424:	6043      	str	r3, [r0, #4]
 8001426:	689c      	ldr	r4, [r3, #8]
 8001428:	f024 04c0 	bic.w	r4, r4, #192	; 0xc0
 800142c:	609c      	str	r4, [r3, #8]
 800142e:	689c      	ldr	r4, [r3, #8]
 8001430:	f044 04c0 	orr.w	r4, r4, #192	; 0xc0
 8001434:	609c      	str	r4, [r3, #8]
 8001436:	681c      	ldr	r4, [r3, #0]
 8001438:	f024 04c0 	bic.w	r4, r4, #192	; 0xc0
 800143c:	601c      	str	r4, [r3, #0]
 800143e:	681c      	ldr	r4, [r3, #0]
 8001440:	601c      	str	r4, [r3, #0]
 8001442:	68dc      	ldr	r4, [r3, #12]
 8001444:	f044 0440 	orr.w	r4, r4, #64	; 0x40
 8001448:	60dc      	str	r4, [r3, #12]
 800144a:	6b13      	ldr	r3, [r2, #48]	; 0x30
 800144c:	432b      	orrs	r3, r5
 800144e:	6313      	str	r3, [r2, #48]	; 0x30
 8001450:	4b0f      	ldr	r3, [pc, #60]	; (8001490 <_ZN3KeyC1Ev+0x80>)
 8001452:	6083      	str	r3, [r0, #8]
 8001454:	689a      	ldr	r2, [r3, #8]
 8001456:	f422 3240 	bic.w	r2, r2, #196608	; 0x30000
 800145a:	609a      	str	r2, [r3, #8]
 800145c:	689a      	ldr	r2, [r3, #8]
 800145e:	f442 3240 	orr.w	r2, r2, #196608	; 0x30000
 8001462:	609a      	str	r2, [r3, #8]
 8001464:	685a      	ldr	r2, [r3, #4]
 8001466:	f422 7280 	bic.w	r2, r2, #256	; 0x100
 800146a:	605a      	str	r2, [r3, #4]
 800146c:	685a      	ldr	r2, [r3, #4]
 800146e:	605a      	str	r2, [r3, #4]
 8001470:	681a      	ldr	r2, [r3, #0]
 8001472:	f422 3240 	bic.w	r2, r2, #196608	; 0x30000
 8001476:	601a      	str	r2, [r3, #0]
 8001478:	681a      	ldr	r2, [r3, #0]
 800147a:	f442 3280 	orr.w	r2, r2, #65536	; 0x10000
 800147e:	601a      	str	r2, [r3, #0]
 8001480:	bd30      	pop	{r4, r5, pc}
 8001482:	bf00      	nop
 8001484:	40023800 	andmi	r3, r2, r0, lsl #16
 8001488:	080027c8 	stmdaeq	r0, {r3, r6, r7, r8, r9, sl, sp}
 800148c:	40021000 	andmi	r1, r2, r0
 8001490:	40020000 	andmi	r0, r2, r0

08001494 <_ZN3Key4initEv>:
 8001494:	f04f 33ff 	mov.w	r3, #4294967295	; 0xffffffff
 8001498:	b510      	push	{r4, lr}
 800149a:	6143      	str	r3, [r0, #20]
 800149c:	2300      	movs	r3, #0
 800149e:	4604      	mov	r4, r0
 80014a0:	7303      	strb	r3, [r0, #12]
 80014a2:	4601      	mov	r1, r0
 80014a4:	f44f 72fa 	mov.w	r2, #500	; 0x1f4
 80014a8:	4802      	ldr	r0, [pc, #8]	; (80014b4 <_ZN3Key4initEv+0x20>)
 80014aa:	f000 fc55 	bl	8001d58 <_ZN5Timer8add_taskEP6Threadjb>
 80014ae:	6120      	str	r0, [r4, #16]
 80014b0:	bd10      	pop	{r4, pc}
 80014b2:	bf00      	nop
 80014b4:	200002dc 	ldrdcs	r0, [r0], -ip

080014b8 <_ZN3Key4readEv>:
 80014b8:	6843      	ldr	r3, [r0, #4]
 80014ba:	b570      	push	{r4, r5, r6, lr}
 80014bc:	4604      	mov	r4, r0
 80014be:	691a      	ldr	r2, [r3, #16]
 80014c0:	0712      	lsls	r2, r2, #28
 80014c2:	d501      	bpl.n	80014c8 <_ZN3Key4readEv+0x10>
 80014c4:	bf00      	nop
 80014c6:	e7fa      	b.n	80014be <_ZN3Key4readEv+0x6>
 80014c8:	2301      	movs	r3, #1
 80014ca:	6163      	str	r3, [r4, #20]
 80014cc:	2264      	movs	r2, #100	; 0x64
 80014ce:	7c21      	ldrb	r1, [r4, #16]
 80014d0:	480f      	ldr	r0, [pc, #60]	; (8001510 <_ZN3Key4readEv+0x58>)
 80014d2:	4d0f      	ldr	r5, [pc, #60]	; (8001510 <_ZN3Key4readEv+0x58>)
 80014d4:	f000 fc68 	bl	8001da8 <_ZN5Timer10set_periodEhj>
 80014d8:	480d      	ldr	r0, [pc, #52]	; (8001510 <_ZN3Key4readEv+0x58>)
 80014da:	f000 fc71 	bl	8001dc0 <_ZN5Timer8get_timeEv>
 80014de:	f500 66fa 	add.w	r6, r0, #2000	; 0x7d0
 80014e2:	6863      	ldr	r3, [r4, #4]
 80014e4:	691b      	ldr	r3, [r3, #16]
 80014e6:	071b      	lsls	r3, r3, #28
 80014e8:	d40f      	bmi.n	800150a <_ZN3Key4readEv+0x52>
 80014ea:	4809      	ldr	r0, [pc, #36]	; (8001510 <_ZN3Key4readEv+0x58>)
 80014ec:	f000 fc68 	bl	8001dc0 <_ZN5Timer8get_timeEv>
 80014f0:	42b0      	cmp	r0, r6
 80014f2:	d9f6      	bls.n	80014e2 <_ZN3Key4readEv+0x2a>
 80014f4:	6963      	ldr	r3, [r4, #20]
 80014f6:	2b01      	cmp	r3, #1
 80014f8:	d1f3      	bne.n	80014e2 <_ZN3Key4readEv+0x2a>
 80014fa:	2232      	movs	r2, #50	; 0x32
 80014fc:	7c21      	ldrb	r1, [r4, #16]
 80014fe:	4628      	mov	r0, r5
 8001500:	f000 fc52 	bl	8001da8 <_ZN5Timer10set_periodEhj>
 8001504:	2302      	movs	r3, #2
 8001506:	6163      	str	r3, [r4, #20]
 8001508:	e7eb      	b.n	80014e2 <_ZN3Key4readEv+0x2a>
 800150a:	6960      	ldr	r0, [r4, #20]
 800150c:	bd70      	pop	{r4, r5, r6, pc}
 800150e:	bf00      	nop
 8001510:	200002dc 	ldrdcs	r0, [r0], -ip

08001514 <_ZN10LineSensorD1Ev>:
 8001514:	4770      	bx	lr

08001516 <_ZN5ArrayIiLj8EED1Ev>:
 8001516:	4770      	bx	lr

08001518 <_ZN5ArrayIiLj8EED0Ev>:
 8001518:	b510      	push	{r4, lr}
 800151a:	2124      	movs	r1, #36	; 0x24
 800151c:	4604      	mov	r4, r0
 800151e:	f7ff fdcd 	bl	80010bc <_ZdlPvj>
 8001522:	4620      	mov	r0, r4
 8001524:	bd10      	pop	{r4, pc}

08001526 <_ZN10LineSensorD0Ev>:
 8001526:	b510      	push	{r4, lr}
 8001528:	21cc      	movs	r1, #204	; 0xcc
 800152a:	4604      	mov	r4, r0
 800152c:	f7ff fdc6 	bl	80010bc <_ZdlPvj>
 8001530:	4620      	mov	r0, r4
 8001532:	bd10      	pop	{r4, pc}

08001534 <_ZN10LineSensorC1Ev>:
 8001534:	4a48      	ldr	r2, [pc, #288]	; (8001658 <_ZN10LineSensorC1Ev+0x124>)
 8001536:	4b49      	ldr	r3, [pc, #292]	; (800165c <_ZN10LineSensorC1Ev+0x128>)
 8001538:	6003      	str	r3, [r0, #0]
 800153a:	6b13      	ldr	r3, [r2, #48]	; 0x30
 800153c:	b530      	push	{r4, r5, lr}
 800153e:	f240 14ff 	movw	r4, #511	; 0x1ff
 8001542:	4323      	orrs	r3, r4
 8001544:	6313      	str	r3, [r2, #48]	; 0x30
 8001546:	4b46      	ldr	r3, [pc, #280]	; (8001660 <_ZN10LineSensorC1Ev+0x12c>)
 8001548:	6043      	str	r3, [r0, #4]
 800154a:	689d      	ldr	r5, [r3, #8]
 800154c:	f425 4540 	bic.w	r5, r5, #49152	; 0xc000
 8001550:	609d      	str	r5, [r3, #8]
 8001552:	689d      	ldr	r5, [r3, #8]
 8001554:	f445 4540 	orr.w	r5, r5, #49152	; 0xc000
 8001558:	609d      	str	r5, [r3, #8]
 800155a:	685d      	ldr	r5, [r3, #4]
 800155c:	f025 0580 	bic.w	r5, r5, #128	; 0x80
 8001560:	605d      	str	r5, [r3, #4]
 8001562:	685d      	ldr	r5, [r3, #4]
 8001564:	605d      	str	r5, [r3, #4]
 8001566:	681d      	ldr	r5, [r3, #0]
 8001568:	f425 4540 	bic.w	r5, r5, #49152	; 0xc000
 800156c:	601d      	str	r5, [r3, #0]
 800156e:	681d      	ldr	r5, [r3, #0]
 8001570:	f445 4580 	orr.w	r5, r5, #16384	; 0x4000
 8001574:	601d      	str	r5, [r3, #0]
 8001576:	4b3b      	ldr	r3, [pc, #236]	; (8001664 <_ZN10LineSensorC1Ev+0x130>)
 8001578:	6103      	str	r3, [r0, #16]
 800157a:	6343      	str	r3, [r0, #52]	; 0x34
 800157c:	6583      	str	r3, [r0, #88]	; 0x58
 800157e:	67c3      	str	r3, [r0, #124]	; 0x7c
 8001580:	6b13      	ldr	r3, [r2, #48]	; 0x30
 8001582:	4323      	orrs	r3, r4
 8001584:	6313      	str	r3, [r2, #48]	; 0x30
 8001586:	4b38      	ldr	r3, [pc, #224]	; (8001668 <_ZN10LineSensorC1Ev+0x134>)
 8001588:	f8c0 30a0 	str.w	r3, [r0, #160]	; 0xa0
 800158c:	681d      	ldr	r5, [r3, #0]
 800158e:	f025 050c 	bic.w	r5, r5, #12
 8001592:	601d      	str	r5, [r3, #0]
 8001594:	681d      	ldr	r5, [r3, #0]
 8001596:	f045 050c 	orr.w	r5, r5, #12
 800159a:	601d      	str	r5, [r3, #0]
 800159c:	6b15      	ldr	r5, [r2, #48]	; 0x30
 800159e:	4325      	orrs	r5, r4
 80015a0:	6315      	str	r5, [r2, #48]	; 0x30
 80015a2:	681d      	ldr	r5, [r3, #0]
 80015a4:	f8c0 30a4 	str.w	r3, [r0, #164]	; 0xa4
 80015a8:	f025 0530 	bic.w	r5, r5, #48	; 0x30
 80015ac:	601d      	str	r5, [r3, #0]
 80015ae:	681d      	ldr	r5, [r3, #0]
 80015b0:	f045 0530 	orr.w	r5, r5, #48	; 0x30
 80015b4:	601d      	str	r5, [r3, #0]
 80015b6:	6b15      	ldr	r5, [r2, #48]	; 0x30
 80015b8:	4325      	orrs	r5, r4
 80015ba:	6315      	str	r5, [r2, #48]	; 0x30
 80015bc:	681d      	ldr	r5, [r3, #0]
 80015be:	f8c0 30a8 	str.w	r3, [r0, #168]	; 0xa8
 80015c2:	f025 05c0 	bic.w	r5, r5, #192	; 0xc0
 80015c6:	601d      	str	r5, [r3, #0]
 80015c8:	681d      	ldr	r5, [r3, #0]
 80015ca:	f045 05c0 	orr.w	r5, r5, #192	; 0xc0
 80015ce:	601d      	str	r5, [r3, #0]
 80015d0:	6b15      	ldr	r5, [r2, #48]	; 0x30
 80015d2:	4325      	orrs	r5, r4
 80015d4:	6315      	str	r5, [r2, #48]	; 0x30
 80015d6:	681d      	ldr	r5, [r3, #0]
 80015d8:	f8c0 30ac 	str.w	r3, [r0, #172]	; 0xac
 80015dc:	f425 7540 	bic.w	r5, r5, #768	; 0x300
 80015e0:	601d      	str	r5, [r3, #0]
 80015e2:	681d      	ldr	r5, [r3, #0]
 80015e4:	f445 7540 	orr.w	r5, r5, #768	; 0x300
 80015e8:	601d      	str	r5, [r3, #0]
 80015ea:	6b15      	ldr	r5, [r2, #48]	; 0x30
 80015ec:	4325      	orrs	r5, r4
 80015ee:	6315      	str	r5, [r2, #48]	; 0x30
 80015f0:	681d      	ldr	r5, [r3, #0]
 80015f2:	f8c0 30b0 	str.w	r3, [r0, #176]	; 0xb0
 80015f6:	f425 5540 	bic.w	r5, r5, #12288	; 0x3000
 80015fa:	601d      	str	r5, [r3, #0]
 80015fc:	681d      	ldr	r5, [r3, #0]
 80015fe:	f445 5540 	orr.w	r5, r5, #12288	; 0x3000
 8001602:	601d      	str	r5, [r3, #0]
 8001604:	6b15      	ldr	r5, [r2, #48]	; 0x30
 8001606:	4325      	orrs	r5, r4
 8001608:	6315      	str	r5, [r2, #48]	; 0x30
 800160a:	681d      	ldr	r5, [r3, #0]
 800160c:	f8c0 30b4 	str.w	r3, [r0, #180]	; 0xb4
 8001610:	f425 4540 	bic.w	r5, r5, #49152	; 0xc000
 8001614:	601d      	str	r5, [r3, #0]
 8001616:	681d      	ldr	r5, [r3, #0]
 8001618:	f445 4540 	orr.w	r5, r5, #49152	; 0xc000
 800161c:	601d      	str	r5, [r3, #0]
 800161e:	6b13      	ldr	r3, [r2, #48]	; 0x30
 8001620:	4323      	orrs	r3, r4
 8001622:	6313      	str	r3, [r2, #48]	; 0x30
 8001624:	4b11      	ldr	r3, [pc, #68]	; (800166c <_ZN10LineSensorC1Ev+0x138>)
 8001626:	f8c0 30b8 	str.w	r3, [r0, #184]	; 0xb8
 800162a:	681d      	ldr	r5, [r3, #0]
 800162c:	f425 7540 	bic.w	r5, r5, #768	; 0x300
 8001630:	601d      	str	r5, [r3, #0]
 8001632:	681d      	ldr	r5, [r3, #0]
 8001634:	f445 7540 	orr.w	r5, r5, #768	; 0x300
 8001638:	601d      	str	r5, [r3, #0]
 800163a:	6b15      	ldr	r5, [r2, #48]	; 0x30
 800163c:	432c      	orrs	r4, r5
 800163e:	6314      	str	r4, [r2, #48]	; 0x30
 8001640:	681a      	ldr	r2, [r3, #0]
 8001642:	f8c0 30bc 	str.w	r3, [r0, #188]	; 0xbc
 8001646:	f422 6240 	bic.w	r2, r2, #3072	; 0xc00
 800164a:	601a      	str	r2, [r3, #0]
 800164c:	681a      	ldr	r2, [r3, #0]
 800164e:	f442 6240 	orr.w	r2, r2, #3072	; 0xc00
 8001652:	601a      	str	r2, [r3, #0]
 8001654:	bd30      	pop	{r4, r5, pc}
 8001656:	bf00      	nop
 8001658:	40023800 	andmi	r3, r2, r0, lsl #16
 800165c:	080027ec 	stmdaeq	r0, {r2, r3, r5, r6, r7, r8, r9, sl, sp}
 8001660:	40021000 	andmi	r1, r2, r0
 8001664:	080027dc 	stmdaeq	r0, {r2, r3, r4, r6, r7, r8, r9, sl, sp}
 8001668:	40020000 	andmi	r0, r2, r0
 800166c:	40020800 	andmi	r0, r2, r0, lsl #16

08001670 <_ZN10LineSensor4initEv>:
 8001670:	6842      	ldr	r2, [r0, #4]
 8001672:	6953      	ldr	r3, [r2, #20]
 8001674:	f023 0380 	bic.w	r3, r3, #128	; 0x80
 8001678:	e92d 41f0 	stmdb	sp!, {r4, r5, r6, r7, r8, lr}
 800167c:	2164      	movs	r1, #100	; 0x64
 800167e:	4604      	mov	r4, r0
 8001680:	6153      	str	r3, [r2, #20]
 8001682:	482b      	ldr	r0, [pc, #172]	; (8001730 <_ZN10LineSensor4initEv+0xc0>)
 8001684:	f8df 80ac 	ldr.w	r8, [pc, #172]	; 8001734 <_ZN10LineSensor4initEv+0xc4>
 8001688:	f000 fba6 	bl	8001dd8 <_ZN5Timer8delay_msEj>
 800168c:	2164      	movs	r1, #100	; 0x64
 800168e:	4828      	ldr	r0, [pc, #160]	; (8001730 <_ZN10LineSensor4initEv+0xc0>)
 8001690:	f000 fba2 	bl	8001dd8 <_ZN5Timer8delay_msEj>
 8001694:	f104 0638 	add.w	r6, r4, #56	; 0x38
 8001698:	4637      	mov	r7, r6
 800169a:	2500      	movs	r5, #0
 800169c:	4629      	mov	r1, r5
 800169e:	4640      	mov	r0, r8
 80016a0:	f7ff fe9b 	bl	80013da <_ZN9ADCDriver4readEj>
 80016a4:	3501      	adds	r5, #1
 80016a6:	2d08      	cmp	r5, #8
 80016a8:	f847 0b04 	str.w	r0, [r7], #4
 80016ac:	d1f6      	bne.n	800169c <_ZN10LineSensor4initEv+0x2c>
 80016ae:	6862      	ldr	r2, [r4, #4]
 80016b0:	481f      	ldr	r0, [pc, #124]	; (8001730 <_ZN10LineSensor4initEv+0xc0>)
 80016b2:	6953      	ldr	r3, [r2, #20]
 80016b4:	4f1f      	ldr	r7, [pc, #124]	; (8001734 <_ZN10LineSensor4initEv+0xc4>)
 80016b6:	f043 0380 	orr.w	r3, r3, #128	; 0x80
 80016ba:	6153      	str	r3, [r2, #20]
 80016bc:	2164      	movs	r1, #100	; 0x64
 80016be:	f000 fb8b 	bl	8001dd8 <_ZN5Timer8delay_msEj>
 80016c2:	2500      	movs	r5, #0
 80016c4:	4629      	mov	r1, r5
 80016c6:	4638      	mov	r0, r7
 80016c8:	f7ff fe87 	bl	80013da <_ZN9ADCDriver4readEj>
 80016cc:	f856 3b04 	ldr.w	r3, [r6], #4
 80016d0:	3501      	adds	r5, #1
 80016d2:	1ac0      	subs	r0, r0, r3
 80016d4:	2d08      	cmp	r5, #8
 80016d6:	6230      	str	r0, [r6, #32]
 80016d8:	d1f4      	bne.n	80016c4 <_ZN10LineSensor4initEv+0x54>
 80016da:	f104 0380 	add.w	r3, r4, #128	; 0x80
 80016de:	f104 01a0 	add.w	r1, r4, #160	; 0xa0
 80016e2:	2200      	movs	r2, #0
 80016e4:	f843 2b04 	str.w	r2, [r3], #4
 80016e8:	4299      	cmp	r1, r3
 80016ea:	d1fb      	bne.n	80016e4 <_ZN10LineSensor4initEv+0x74>
 80016ec:	f06f 03ff 	mvn.w	r3, #255	; 0xff
 80016f0:	6163      	str	r3, [r4, #20]
 80016f2:	f06f 03bf 	mvn.w	r3, #191	; 0xbf
 80016f6:	61a3      	str	r3, [r4, #24]
 80016f8:	f06f 037f 	mvn.w	r3, #127	; 0x7f
 80016fc:	61e3      	str	r3, [r4, #28]
 80016fe:	f06f 033f 	mvn.w	r3, #63	; 0x3f
 8001702:	6223      	str	r3, [r4, #32]
 8001704:	2340      	movs	r3, #64	; 0x40
 8001706:	6263      	str	r3, [r4, #36]	; 0x24
 8001708:	2380      	movs	r3, #128	; 0x80
 800170a:	62a3      	str	r3, [r4, #40]	; 0x28
 800170c:	23c0      	movs	r3, #192	; 0xc0
 800170e:	62e3      	str	r3, [r4, #44]	; 0x2c
 8001710:	f44f 7380 	mov.w	r3, #256	; 0x100
 8001714:	6323      	str	r3, [r4, #48]	; 0x30
 8001716:	f44f 73c8 	mov.w	r3, #400	; 0x190
 800171a:	60a3      	str	r3, [r4, #8]
 800171c:	7322      	strb	r2, [r4, #12]
 800171e:	2300      	movs	r3, #0
 8001720:	2204      	movs	r2, #4
 8001722:	4621      	mov	r1, r4
 8001724:	4802      	ldr	r0, [pc, #8]	; (8001730 <_ZN10LineSensor4initEv+0xc0>)
 8001726:	f000 fb17 	bl	8001d58 <_ZN5Timer8add_taskEP6Threadjb>
 800172a:	2000      	movs	r0, #0
 800172c:	e8bd 81f0 	ldmia.w	sp!, {r4, r5, r6, r7, r8, pc}
 8001730:	200002dc 	ldrdcs	r0, [r0], -ip
 8001734:	20000150 	andcs	r0, r0, r0, asr r1

08001738 <_ZN10LineSensor9integrateEj>:
 8001738:	eb00 0081 	add.w	r0, r0, r1, lsl #2
 800173c:	b530      	push	{r4, r5, lr}
 800173e:	6942      	ldr	r2, [r0, #20]
 8001740:	f8d0 5080 	ldr.w	r5, [r0, #128]	; 0x80
 8001744:	fb02 f405 	mul.w	r4, r2, r5
 8001748:	b179      	cbz	r1, 800176a <_ZN10LineSensor9integrateEj+0x32>
 800174a:	6fc3      	ldr	r3, [r0, #124]	; 0x7c
 800174c:	6902      	ldr	r2, [r0, #16]
 800174e:	2906      	cmp	r1, #6
 8001750:	fb02 4203 	mla	r2, r2, r3, r4
 8001754:	442b      	add	r3, r5
 8001756:	d80b      	bhi.n	8001770 <_ZN10LineSensor9integrateEj+0x38>
 8001758:	f8d0 1084 	ldr.w	r1, [r0, #132]	; 0x84
 800175c:	6980      	ldr	r0, [r0, #24]
 800175e:	440b      	add	r3, r1
 8001760:	fb00 2201 	mla	r2, r0, r1, r2
 8001764:	fb92 f0f3 	sdiv	r0, r2, r3
 8001768:	bd30      	pop	{r4, r5, pc}
 800176a:	0062      	lsls	r2, r4, #1
 800176c:	006b      	lsls	r3, r5, #1
 800176e:	e7f3      	b.n	8001758 <_ZN10LineSensor9integrateEj+0x20>
 8001770:	4422      	add	r2, r4
 8001772:	442b      	add	r3, r5
 8001774:	e7f6      	b.n	8001764 <_ZN10LineSensor9integrateEj+0x2c>

08001776 <_ZN10LineSensor20find_center_line_posEv>:
 8001776:	6882      	ldr	r2, [r0, #8]
 8001778:	f100 0380 	add.w	r3, r0, #128	; 0x80
 800177c:	2000      	movs	r0, #0
 800177e:	f853 1b04 	ldr.w	r1, [r3], #4
 8001782:	428a      	cmp	r2, r1
 8001784:	db04      	blt.n	8001790 <_ZN10LineSensor20find_center_line_posEv+0x1a>
 8001786:	3001      	adds	r0, #1
 8001788:	2808      	cmp	r0, #8
 800178a:	d1f8      	bne.n	800177e <_ZN10LineSensor20find_center_line_posEv+0x8>
 800178c:	f04f 30ff 	mov.w	r0, #4294967295	; 0xffffffff
 8001790:	4770      	bx	lr
 8001792:	0000      	movs	r0, r0

08001794 <_ZN10LineSensor4mainEv>:
 8001794:	e92d 4ff8 	stmdb	sp!, {r3, r4, r5, r6, r7, r8, r9, sl, fp, lr}
 8001798:	2500      	movs	r5, #0
 800179a:	f8df a06c 	ldr.w	sl, [pc, #108]	; 8001808 <_ZN10LineSensor4mainEv+0x74>
 800179e:	f8df 906c 	ldr.w	r9, [pc, #108]	; 800180c <_ZN10LineSensor4mainEv+0x78>
 80017a2:	4604      	mov	r4, r0
 80017a4:	f100 0638 	add.w	r6, r0, #56	; 0x38
 80017a8:	46ab      	mov	fp, r5
 80017aa:	4629      	mov	r1, r5
 80017ac:	4650      	mov	r0, sl
 80017ae:	f7ff fe14 	bl	80013da <_ZN9ADCDriver4readEj>
 80017b2:	f856 3b04 	ldr.w	r3, [r6], #4
 80017b6:	1ac0      	subs	r0, r0, r3
 80017b8:	fb09 f000 	mul.w	r0, r9, r0
 80017bc:	6a33      	ldr	r3, [r6, #32]
 80017be:	fb90 f0f3 	sdiv	r0, r0, r3
 80017c2:	3501      	adds	r5, #1
 80017c4:	f510 707a 	adds.w	r0, r0, #1000	; 0x3e8
 80017c8:	bf54      	ite	pl
 80017ca:	6470      	strpl	r0, [r6, #68]	; 0x44
 80017cc:	f8c6 b044 	strmi.w	fp, [r6, #68]	; 0x44
 80017d0:	2d08      	cmp	r5, #8
 80017d2:	d1ea      	bne.n	80017aa <_ZN10LineSensor4mainEv+0x16>
 80017d4:	4620      	mov	r0, r4
 80017d6:	f7ff ffce 	bl	8001776 <_ZN10LineSensor20find_center_line_posEv>
 80017da:	1c43      	adds	r3, r0, #1
 80017dc:	4601      	mov	r1, r0
 80017de:	d011      	beq.n	8001804 <_ZN10LineSensor4mainEv+0x70>
 80017e0:	4620      	mov	r0, r4
 80017e2:	f7ff ffa9 	bl	8001738 <_ZN10LineSensor9integrateEj>
 80017e6:	2301      	movs	r3, #1
 80017e8:	4607      	mov	r7, r0
 80017ea:	4680      	mov	r8, r0
 80017ec:	f884 30c0 	strb.w	r3, [r4, #192]	; 0xc0
 80017f0:	2301      	movs	r3, #1
 80017f2:	f884 30c1 	strb.w	r3, [r4, #193]	; 0xc1
 80017f6:	f8c4 70c4 	str.w	r7, [r4, #196]	; 0xc4
 80017fa:	f8c4 80c8 	str.w	r8, [r4, #200]	; 0xc8
 80017fe:	7323      	strb	r3, [r4, #12]
 8001800:	e8bd 8ff8 	ldmia.w	sp!, {r3, r4, r5, r6, r7, r8, r9, sl, fp, pc}
 8001804:	2300      	movs	r3, #0
 8001806:	e7f1      	b.n	80017ec <_ZN10LineSensor4mainEv+0x58>
 8001808:	20000150 	andcs	r0, r0, r0, asr r1
 800180c:	fffffc18 			; <UNDEFINED> instruction: 0xfffffc18

08001810 <_ZN3IMUD1Ev>:
 8001810:	4770      	bx	lr

08001812 <_ZN3IMUD0Ev>:
 8001812:	b510      	push	{r4, lr}
 8001814:	2144      	movs	r1, #68	; 0x44
 8001816:	4604      	mov	r4, r0
 8001818:	f7ff fc50 	bl	80010bc <_ZdlPvj>
 800181c:	4620      	mov	r0, r4
 800181e:	bd10      	pop	{r4, pc}

08001820 <_ZN3IMUC1Ev>:
 8001820:	4b01      	ldr	r3, [pc, #4]	; (8001828 <_ZN3IMUC1Ev+0x8>)
 8001822:	6003      	str	r3, [r0, #0]
 8001824:	4770      	bx	lr
 8001826:	bf00      	nop
 8001828:	08002800 	stmdaeq	r0, {fp, sp}

0800182c <_ZN3IMU4readEb>:
 800182c:	e92d 41f0 	stmdb	sp!, {r4, r5, r6, r7, r8, lr}
 8001830:	4604      	mov	r4, r0
 8001832:	6c00      	ldr	r0, [r0, #64]	; 0x40
 8001834:	6803      	ldr	r3, [r0, #0]
 8001836:	681b      	ldr	r3, [r3, #0]
 8001838:	4688      	mov	r8, r1
 800183a:	4798      	blx	r3
 800183c:	6c20      	ldr	r0, [r4, #64]	; 0x40
 800183e:	6803      	ldr	r3, [r0, #0]
 8001840:	21d4      	movs	r1, #212	; 0xd4
 8001842:	68db      	ldr	r3, [r3, #12]
 8001844:	4798      	blx	r3
 8001846:	6c20      	ldr	r0, [r4, #64]	; 0x40
 8001848:	6803      	ldr	r3, [r0, #0]
 800184a:	2119      	movs	r1, #25
 800184c:	68db      	ldr	r3, [r3, #12]
 800184e:	4798      	blx	r3
 8001850:	6c20      	ldr	r0, [r4, #64]	; 0x40
 8001852:	6803      	ldr	r3, [r0, #0]
 8001854:	681b      	ldr	r3, [r3, #0]
 8001856:	4798      	blx	r3
 8001858:	6c20      	ldr	r0, [r4, #64]	; 0x40
 800185a:	6803      	ldr	r3, [r0, #0]
 800185c:	21d5      	movs	r1, #213	; 0xd5
 800185e:	68db      	ldr	r3, [r3, #12]
 8001860:	4798      	blx	r3
 8001862:	6c20      	ldr	r0, [r4, #64]	; 0x40
 8001864:	6803      	ldr	r3, [r0, #0]
 8001866:	2101      	movs	r1, #1
 8001868:	691b      	ldr	r3, [r3, #16]
 800186a:	4798      	blx	r3
 800186c:	0200      	lsls	r0, r0, #8
 800186e:	b207      	sxth	r7, r0
 8001870:	6c20      	ldr	r0, [r4, #64]	; 0x40
 8001872:	6803      	ldr	r3, [r0, #0]
 8001874:	2101      	movs	r1, #1
 8001876:	691b      	ldr	r3, [r3, #16]
 8001878:	4798      	blx	r3
 800187a:	4307      	orrs	r7, r0
 800187c:	6c20      	ldr	r0, [r4, #64]	; 0x40
 800187e:	6803      	ldr	r3, [r0, #0]
 8001880:	2101      	movs	r1, #1
 8001882:	691b      	ldr	r3, [r3, #16]
 8001884:	4798      	blx	r3
 8001886:	0200      	lsls	r0, r0, #8
 8001888:	b206      	sxth	r6, r0
 800188a:	6c20      	ldr	r0, [r4, #64]	; 0x40
 800188c:	6803      	ldr	r3, [r0, #0]
 800188e:	2101      	movs	r1, #1
 8001890:	691b      	ldr	r3, [r3, #16]
 8001892:	4798      	blx	r3
 8001894:	4306      	orrs	r6, r0
 8001896:	6c20      	ldr	r0, [r4, #64]	; 0x40
 8001898:	6803      	ldr	r3, [r0, #0]
 800189a:	2101      	movs	r1, #1
 800189c:	691b      	ldr	r3, [r3, #16]
 800189e:	4798      	blx	r3
 80018a0:	0200      	lsls	r0, r0, #8
 80018a2:	b205      	sxth	r5, r0
 80018a4:	6c20      	ldr	r0, [r4, #64]	; 0x40
 80018a6:	6803      	ldr	r3, [r0, #0]
 80018a8:	2100      	movs	r1, #0
 80018aa:	691b      	ldr	r3, [r3, #16]
 80018ac:	4798      	blx	r3
 80018ae:	4305      	orrs	r5, r0
 80018b0:	6c20      	ldr	r0, [r4, #64]	; 0x40
 80018b2:	6803      	ldr	r3, [r0, #0]
 80018b4:	685b      	ldr	r3, [r3, #4]
 80018b6:	b23f      	sxth	r7, r7
 80018b8:	b236      	sxth	r6, r6
 80018ba:	b22d      	sxth	r5, r5
 80018bc:	4798      	blx	r3
 80018be:	f1b8 0f00 	cmp.w	r8, #0
 80018c2:	d008      	beq.n	80018d6 <_ZN3IMU4readEb+0xaa>
 80018c4:	6aa3      	ldr	r3, [r4, #40]	; 0x28
 80018c6:	443b      	add	r3, r7
 80018c8:	62a3      	str	r3, [r4, #40]	; 0x28
 80018ca:	6ae3      	ldr	r3, [r4, #44]	; 0x2c
 80018cc:	4433      	add	r3, r6
 80018ce:	62e3      	str	r3, [r4, #44]	; 0x2c
 80018d0:	6b23      	ldr	r3, [r4, #48]	; 0x30
 80018d2:	442b      	add	r3, r5
 80018d4:	6323      	str	r3, [r4, #48]	; 0x30
 80018d6:	6aa3      	ldr	r3, [r4, #40]	; 0x28
 80018d8:	69e1      	ldr	r1, [r4, #28]
 80018da:	6b22      	ldr	r2, [r4, #48]	; 0x30
 80018dc:	6ae0      	ldr	r0, [r4, #44]	; 0x2c
 80018de:	1afb      	subs	r3, r7, r3
 80018e0:	1aad      	subs	r5, r5, r2
 80018e2:	6123      	str	r3, [r4, #16]
 80018e4:	2219      	movs	r2, #25
 80018e6:	fb93 f3f2 	sdiv	r3, r3, r2
 80018ea:	eb01 0343 	add.w	r3, r1, r3, lsl #1
 80018ee:	61e3      	str	r3, [r4, #28]
 80018f0:	6a23      	ldr	r3, [r4, #32]
 80018f2:	61a5      	str	r5, [r4, #24]
 80018f4:	1a30      	subs	r0, r6, r0
 80018f6:	6160      	str	r0, [r4, #20]
 80018f8:	fb90 f0f2 	sdiv	r0, r0, r2
 80018fc:	eb03 0040 	add.w	r0, r3, r0, lsl #1
 8001900:	6220      	str	r0, [r4, #32]
 8001902:	6a63      	ldr	r3, [r4, #36]	; 0x24
 8001904:	6c20      	ldr	r0, [r4, #64]	; 0x40
 8001906:	fb95 f5f2 	sdiv	r5, r5, r2
 800190a:	eb03 0545 	add.w	r5, r3, r5, lsl #1
 800190e:	6803      	ldr	r3, [r0, #0]
 8001910:	6265      	str	r5, [r4, #36]	; 0x24
 8001912:	681b      	ldr	r3, [r3, #0]
 8001914:	4798      	blx	r3
 8001916:	6c20      	ldr	r0, [r4, #64]	; 0x40
 8001918:	6803      	ldr	r3, [r0, #0]
 800191a:	21d4      	movs	r1, #212	; 0xd4
 800191c:	68db      	ldr	r3, [r3, #12]
 800191e:	4798      	blx	r3
 8001920:	6c20      	ldr	r0, [r4, #64]	; 0x40
 8001922:	6803      	ldr	r3, [r0, #0]
 8001924:	2129      	movs	r1, #41	; 0x29
 8001926:	68db      	ldr	r3, [r3, #12]
 8001928:	4798      	blx	r3
 800192a:	6c20      	ldr	r0, [r4, #64]	; 0x40
 800192c:	6803      	ldr	r3, [r0, #0]
 800192e:	681b      	ldr	r3, [r3, #0]
 8001930:	4798      	blx	r3
 8001932:	6c20      	ldr	r0, [r4, #64]	; 0x40
 8001934:	6803      	ldr	r3, [r0, #0]
 8001936:	21d5      	movs	r1, #213	; 0xd5
 8001938:	68db      	ldr	r3, [r3, #12]
 800193a:	4798      	blx	r3
 800193c:	6c20      	ldr	r0, [r4, #64]	; 0x40
 800193e:	6803      	ldr	r3, [r0, #0]
 8001940:	2101      	movs	r1, #1
 8001942:	691b      	ldr	r3, [r3, #16]
 8001944:	4798      	blx	r3
 8001946:	0200      	lsls	r0, r0, #8
 8001948:	b207      	sxth	r7, r0
 800194a:	6c20      	ldr	r0, [r4, #64]	; 0x40
 800194c:	6803      	ldr	r3, [r0, #0]
 800194e:	2101      	movs	r1, #1
 8001950:	691b      	ldr	r3, [r3, #16]
 8001952:	4798      	blx	r3
 8001954:	4307      	orrs	r7, r0
 8001956:	6c20      	ldr	r0, [r4, #64]	; 0x40
 8001958:	6803      	ldr	r3, [r0, #0]
 800195a:	2101      	movs	r1, #1
 800195c:	691b      	ldr	r3, [r3, #16]
 800195e:	4798      	blx	r3
 8001960:	0200      	lsls	r0, r0, #8
 8001962:	b206      	sxth	r6, r0
 8001964:	6c20      	ldr	r0, [r4, #64]	; 0x40
 8001966:	6803      	ldr	r3, [r0, #0]
 8001968:	2101      	movs	r1, #1
 800196a:	691b      	ldr	r3, [r3, #16]
 800196c:	4798      	blx	r3
 800196e:	4306      	orrs	r6, r0
 8001970:	6c20      	ldr	r0, [r4, #64]	; 0x40
 8001972:	6803      	ldr	r3, [r0, #0]
 8001974:	2101      	movs	r1, #1
 8001976:	691b      	ldr	r3, [r3, #16]
 8001978:	4798      	blx	r3
 800197a:	0200      	lsls	r0, r0, #8
 800197c:	b205      	sxth	r5, r0
 800197e:	6c20      	ldr	r0, [r4, #64]	; 0x40
 8001980:	6803      	ldr	r3, [r0, #0]
 8001982:	2100      	movs	r1, #0
 8001984:	691b      	ldr	r3, [r3, #16]
 8001986:	4798      	blx	r3
 8001988:	4305      	orrs	r5, r0
 800198a:	6c20      	ldr	r0, [r4, #64]	; 0x40
 800198c:	6803      	ldr	r3, [r0, #0]
 800198e:	685b      	ldr	r3, [r3, #4]
 8001990:	4798      	blx	r3
 8001992:	b23f      	sxth	r7, r7
 8001994:	b236      	sxth	r6, r6
 8001996:	b22d      	sxth	r5, r5
 8001998:	2301      	movs	r3, #1
 800199a:	6067      	str	r7, [r4, #4]
 800199c:	60a6      	str	r6, [r4, #8]
 800199e:	60e5      	str	r5, [r4, #12]
 80019a0:	f884 303c 	strb.w	r3, [r4, #60]	; 0x3c
 80019a4:	e8bd 81f0 	ldmia.w	sp!, {r4, r5, r6, r7, r8, pc}

080019a8 <_ZN3IMU4mainEv>:
 80019a8:	2100      	movs	r1, #0
 80019aa:	f7ff bf3f 	b.w	800182c <_ZN3IMU4readEb>

080019ae <_ZN3IMU7presentEv>:
 80019ae:	6b40      	ldr	r0, [r0, #52]	; 0x34
 80019b0:	3000      	adds	r0, #0
 80019b2:	bf18      	it	ne
 80019b4:	2001      	movne	r0, #1
 80019b6:	4770      	bx	lr

080019b8 <_ZN3IMU5readyEv>:
 80019b8:	f890 303c 	ldrb.w	r3, [r0, #60]	; 0x3c
 80019bc:	b672      	cpsid	i
 80019be:	b113      	cbz	r3, 80019c6 <_ZN3IMU5readyEv+0xe>
 80019c0:	2200      	movs	r2, #0
 80019c2:	f880 203c 	strb.w	r2, [r0, #60]	; 0x3c
 80019c6:	b662      	cpsie	i
 80019c8:	4618      	mov	r0, r3
 80019ca:	4770      	bx	lr

080019cc <_ZN3IMU11delay_loopsEm>:
 80019cc:	f111 31ff 	adds.w	r1, r1, #4294967295	; 0xffffffff
 80019d0:	d301      	bcc.n	80019d6 <_ZN3IMU11delay_loopsEm+0xa>
 80019d2:	bf00      	nop
 80019d4:	e7fa      	b.n	80019cc <_ZN3IMU11delay_loopsEm>
 80019d6:	4770      	bx	lr

080019d8 <_ZN3IMU4initER13I2C_Interface>:
 80019d8:	b538      	push	{r3, r4, r5, lr}
 80019da:	4604      	mov	r4, r0
 80019dc:	2210      	movs	r2, #16
 80019de:	4608      	mov	r0, r1
 80019e0:	6421      	str	r1, [r4, #64]	; 0x40
 80019e2:	23a8      	movs	r3, #168	; 0xa8
 80019e4:	21d4      	movs	r1, #212	; 0xd4
 80019e6:	f7ff fb14 	bl	8001012 <_ZN13I2C_Interface9write_regEhhh>
 80019ea:	2300      	movs	r3, #0
 80019ec:	6123      	str	r3, [r4, #16]
 80019ee:	6163      	str	r3, [r4, #20]
 80019f0:	61a3      	str	r3, [r4, #24]
 80019f2:	62a3      	str	r3, [r4, #40]	; 0x28
 80019f4:	62e3      	str	r3, [r4, #44]	; 0x2c
 80019f6:	6323      	str	r3, [r4, #48]	; 0x30
 80019f8:	61e3      	str	r3, [r4, #28]
 80019fa:	6223      	str	r3, [r4, #32]
 80019fc:	6263      	str	r3, [r4, #36]	; 0x24
 80019fe:	f242 7110 	movw	r1, #10000	; 0x2710
 8001a02:	4620      	mov	r0, r4
 8001a04:	f7ff ffe2 	bl	80019cc <_ZN3IMU11delay_loopsEm>
 8001a08:	220f      	movs	r2, #15
 8001a0a:	6363      	str	r3, [r4, #52]	; 0x34
 8001a0c:	21d4      	movs	r1, #212	; 0xd4
 8001a0e:	6c20      	ldr	r0, [r4, #64]	; 0x40
 8001a10:	f7ff fb1d 	bl	800104e <_ZN13I2C_Interface8read_regEhh>
 8001a14:	2868      	cmp	r0, #104	; 0x68
 8001a16:	bf04      	itt	eq
 8001a18:	2301      	moveq	r3, #1
 8001a1a:	6363      	streq	r3, [r4, #52]	; 0x34
 8001a1c:	2210      	movs	r2, #16
 8001a1e:	23a8      	movs	r3, #168	; 0xa8
 8001a20:	21d4      	movs	r1, #212	; 0xd4
 8001a22:	6c20      	ldr	r0, [r4, #64]	; 0x40
 8001a24:	f7ff faf5 	bl	8001012 <_ZN13I2C_Interface9write_regEhhh>
 8001a28:	2338      	movs	r3, #56	; 0x38
 8001a2a:	221e      	movs	r2, #30
 8001a2c:	21d4      	movs	r1, #212	; 0xd4
 8001a2e:	6c20      	ldr	r0, [r4, #64]	; 0x40
 8001a30:	f7ff faef 	bl	8001012 <_ZN13I2C_Interface9write_regEhhh>
 8001a34:	2300      	movs	r3, #0
 8001a36:	222e      	movs	r2, #46	; 0x2e
 8001a38:	21d4      	movs	r1, #212	; 0xd4
 8001a3a:	6c20      	ldr	r0, [r4, #64]	; 0x40
 8001a3c:	f7ff fae9 	bl	8001012 <_ZN13I2C_Interface9write_regEhhh>
 8001a40:	2300      	movs	r3, #0
 8001a42:	2212      	movs	r2, #18
 8001a44:	21d4      	movs	r1, #212	; 0xd4
 8001a46:	6c20      	ldr	r0, [r4, #64]	; 0x40
 8001a48:	f7ff fae3 	bl	8001012 <_ZN13I2C_Interface9write_regEhhh>
 8001a4c:	2360      	movs	r3, #96	; 0x60
 8001a4e:	2220      	movs	r2, #32
 8001a50:	21d4      	movs	r1, #212	; 0xd4
 8001a52:	6c20      	ldr	r0, [r4, #64]	; 0x40
 8001a54:	f7ff fadd 	bl	8001012 <_ZN13I2C_Interface9write_regEhhh>
 8001a58:	2338      	movs	r3, #56	; 0x38
 8001a5a:	221f      	movs	r2, #31
 8001a5c:	21d4      	movs	r1, #212	; 0xd4
 8001a5e:	6c20      	ldr	r0, [r4, #64]	; 0x40
 8001a60:	f7ff fad7 	bl	8001012 <_ZN13I2C_Interface9write_regEhhh>
 8001a64:	f242 7110 	movw	r1, #10000	; 0x2710
 8001a68:	4620      	mov	r0, r4
 8001a6a:	f7ff ffaf 	bl	80019cc <_ZN3IMU11delay_loopsEm>
 8001a6e:	2100      	movs	r1, #0
 8001a70:	4620      	mov	r0, r4
 8001a72:	f7ff fedb 	bl	800182c <_ZN3IMU4readEb>
 8001a76:	2300      	movs	r3, #0
 8001a78:	63a3      	str	r3, [r4, #56]	; 0x38
 8001a7a:	f44f 757a 	mov.w	r5, #1000	; 0x3e8
 8001a7e:	2101      	movs	r1, #1
 8001a80:	4620      	mov	r0, r4
 8001a82:	f7ff fed3 	bl	800182c <_ZN3IMU4readEb>
 8001a86:	2164      	movs	r1, #100	; 0x64
 8001a88:	4620      	mov	r0, r4
 8001a8a:	f7ff ff9f 	bl	80019cc <_ZN3IMU11delay_loopsEm>
 8001a8e:	3d01      	subs	r5, #1
 8001a90:	d1f5      	bne.n	8001a7e <_ZN3IMU4initER13I2C_Interface+0xa6>
 8001a92:	f44f 727a 	mov.w	r2, #1000	; 0x3e8
 8001a96:	6aa3      	ldr	r3, [r4, #40]	; 0x28
 8001a98:	61e5      	str	r5, [r4, #28]
 8001a9a:	fb93 f3f2 	sdiv	r3, r3, r2
 8001a9e:	6225      	str	r5, [r4, #32]
 8001aa0:	62a3      	str	r3, [r4, #40]	; 0x28
 8001aa2:	6265      	str	r5, [r4, #36]	; 0x24
 8001aa4:	6ae3      	ldr	r3, [r4, #44]	; 0x2c
 8001aa6:	6065      	str	r5, [r4, #4]
 8001aa8:	fb93 f3f2 	sdiv	r3, r3, r2
 8001aac:	60a5      	str	r5, [r4, #8]
 8001aae:	62e3      	str	r3, [r4, #44]	; 0x2c
 8001ab0:	60e5      	str	r5, [r4, #12]
 8001ab2:	6b23      	ldr	r3, [r4, #48]	; 0x30
 8001ab4:	4805      	ldr	r0, [pc, #20]	; (8001acc <_ZN3IMU4initER13I2C_Interface+0xf4>)
 8001ab6:	fb93 f3f2 	sdiv	r3, r3, r2
 8001aba:	4621      	mov	r1, r4
 8001abc:	6323      	str	r3, [r4, #48]	; 0x30
 8001abe:	220a      	movs	r2, #10
 8001ac0:	462b      	mov	r3, r5
 8001ac2:	f000 f949 	bl	8001d58 <_ZN5Timer8add_taskEP6Threadjb>
 8001ac6:	f884 503c 	strb.w	r5, [r4, #60]	; 0x3c
 8001aca:	bd38      	pop	{r3, r4, r5, pc}
 8001acc:	200002dc 	ldrdcs	r0, [r0], -ip

08001ad0 <_ZN5UsartD1Ev>:
 8001ad0:	4770      	bx	lr

08001ad2 <_ZN5UsartD0Ev>:
 8001ad2:	b510      	push	{r4, lr}
 8001ad4:	2104      	movs	r1, #4
 8001ad6:	4604      	mov	r4, r0
 8001ad8:	f7ff faf0 	bl	80010bc <_ZdlPvj>
 8001adc:	4620      	mov	r0, r4
 8001ade:	bd10      	pop	{r4, pc}

08001ae0 <_ZN5UsartC1Ev>:
 8001ae0:	4b01      	ldr	r3, [pc, #4]	; (8001ae8 <_ZN5UsartC1Ev+0x8>)
 8001ae2:	6003      	str	r3, [r0, #0]
 8001ae4:	4770      	bx	lr
 8001ae6:	bf00      	nop
 8001ae8:	08002814 	stmdaeq	r0, {r2, r4, fp, sp}

08001aec <_ZN5Usart4initEj>:
 8001aec:	4b1b      	ldr	r3, [pc, #108]	; (8001b5c <_ZN5Usart4initEj+0x70>)
 8001aee:	6b1a      	ldr	r2, [r3, #48]	; 0x30
 8001af0:	b5f0      	push	{r4, r5, r6, r7, lr}
 8001af2:	f042 0201 	orr.w	r2, r2, #1
 8001af6:	631a      	str	r2, [r3, #48]	; 0x30
 8001af8:	6c5a      	ldr	r2, [r3, #68]	; 0x44
 8001afa:	4d19      	ldr	r5, [pc, #100]	; (8001b60 <_ZN5Usart4initEj+0x74>)
 8001afc:	b0a3      	sub	sp, #140	; 0x8c
 8001afe:	f042 0210 	orr.w	r2, r2, #16
 8001b02:	645a      	str	r2, [r3, #68]	; 0x44
 8001b04:	f44f 7300 	mov.w	r3, #512	; 0x200
 8001b08:	2402      	movs	r4, #2
 8001b0a:	460f      	mov	r7, r1
 8001b0c:	9301      	str	r3, [sp, #4]
 8001b0e:	2607      	movs	r6, #7
 8001b10:	2301      	movs	r3, #1
 8001b12:	a901      	add	r1, sp, #4
 8001b14:	4628      	mov	r0, r5
 8001b16:	9303      	str	r3, [sp, #12]
 8001b18:	9402      	str	r4, [sp, #8]
 8001b1a:	9404      	str	r4, [sp, #16]
 8001b1c:	9605      	str	r6, [sp, #20]
 8001b1e:	f7fe fe89 	bl	8000834 <HAL_GPIO_Init>
 8001b22:	f44f 6380 	mov.w	r3, #1024	; 0x400
 8001b26:	a901      	add	r1, sp, #4
 8001b28:	4628      	mov	r0, r5
 8001b2a:	9301      	str	r3, [sp, #4]
 8001b2c:	9402      	str	r4, [sp, #8]
 8001b2e:	9605      	str	r6, [sp, #20]
 8001b30:	f7fe fe80 	bl	8000834 <HAL_GPIO_Init>
 8001b34:	4b0b      	ldr	r3, [pc, #44]	; (8001b64 <_ZN5Usart4initEj+0x78>)
 8001b36:	9306      	str	r3, [sp, #24]
 8001b38:	220c      	movs	r2, #12
 8001b3a:	2300      	movs	r3, #0
 8001b3c:	920b      	str	r2, [sp, #44]	; 0x2c
 8001b3e:	a806      	add	r0, sp, #24
 8001b40:	f44f 4200 	mov.w	r2, #32768	; 0x8000
 8001b44:	9707      	str	r7, [sp, #28]
 8001b46:	9308      	str	r3, [sp, #32]
 8001b48:	9309      	str	r3, [sp, #36]	; 0x24
 8001b4a:	930a      	str	r3, [sp, #40]	; 0x28
 8001b4c:	930c      	str	r3, [sp, #48]	; 0x30
 8001b4e:	920d      	str	r2, [sp, #52]	; 0x34
 8001b50:	930e      	str	r3, [sp, #56]	; 0x38
 8001b52:	930f      	str	r3, [sp, #60]	; 0x3c
 8001b54:	f7fe fd94 	bl	8000680 <HAL_UART_Init>
 8001b58:	b023      	add	sp, #140	; 0x8c
 8001b5a:	bdf0      	pop	{r4, r5, r6, r7, pc}
 8001b5c:	40023800 	andmi	r3, r2, r0, lsl #16
 8001b60:	40020000 	andmi	r0, r2, r0
 8001b64:	40011000 	andmi	r1, r1, r0

08001b68 <_ZN5Usart8put_charEc>:
 8001b68:	4b03      	ldr	r3, [pc, #12]	; (8001b78 <_ZN5Usart8put_charEc+0x10>)
 8001b6a:	69da      	ldr	r2, [r3, #28]
 8001b6c:	0612      	lsls	r2, r2, #24
 8001b6e:	d401      	bmi.n	8001b74 <_ZN5Usart8put_charEc+0xc>
 8001b70:	bf00      	nop
 8001b72:	e7fa      	b.n	8001b6a <_ZN5Usart8put_charEc+0x2>
 8001b74:	6299      	str	r1, [r3, #40]	; 0x28
 8001b76:	4770      	bx	lr
 8001b78:	40011000 	andmi	r1, r1, r0

08001b7c <_ZN14DistanceSensorD1Ev>:
 8001b7c:	4770      	bx	lr

08001b7e <_ZN14DistanceSensorD0Ev>:
 8001b7e:	b510      	push	{r4, lr}
 8001b80:	2144      	movs	r1, #68	; 0x44
 8001b82:	4604      	mov	r4, r0
 8001b84:	f7ff fa9a 	bl	80010bc <_ZdlPvj>
 8001b88:	4620      	mov	r0, r4
 8001b8a:	bd10      	pop	{r4, pc}

08001b8c <_ZN14DistanceSensorC1Ev>:
 8001b8c:	4925      	ldr	r1, [pc, #148]	; (8001c24 <_ZN14DistanceSensorC1Ev+0x98>)
 8001b8e:	4b26      	ldr	r3, [pc, #152]	; (8001c28 <_ZN14DistanceSensorC1Ev+0x9c>)
 8001b90:	6003      	str	r3, [r0, #0]
 8001b92:	6b0b      	ldr	r3, [r1, #48]	; 0x30
 8001b94:	b570      	push	{r4, r5, r6, lr}
 8001b96:	f240 15ff 	movw	r5, #511	; 0x1ff
 8001b9a:	432b      	orrs	r3, r5
 8001b9c:	630b      	str	r3, [r1, #48]	; 0x30
 8001b9e:	4b23      	ldr	r3, [pc, #140]	; (8001c2c <_ZN14DistanceSensorC1Ev+0xa0>)
 8001ba0:	6183      	str	r3, [r0, #24]
 8001ba2:	689a      	ldr	r2, [r3, #8]
 8001ba4:	f022 0230 	bic.w	r2, r2, #48	; 0x30
 8001ba8:	609a      	str	r2, [r3, #8]
 8001baa:	689a      	ldr	r2, [r3, #8]
 8001bac:	f042 0230 	orr.w	r2, r2, #48	; 0x30
 8001bb0:	609a      	str	r2, [r3, #8]
 8001bb2:	685a      	ldr	r2, [r3, #4]
 8001bb4:	f022 0204 	bic.w	r2, r2, #4
 8001bb8:	605a      	str	r2, [r3, #4]
 8001bba:	685a      	ldr	r2, [r3, #4]
 8001bbc:	605a      	str	r2, [r3, #4]
 8001bbe:	681a      	ldr	r2, [r3, #0]
 8001bc0:	f022 0230 	bic.w	r2, r2, #48	; 0x30
 8001bc4:	601a      	str	r2, [r3, #0]
 8001bc6:	681a      	ldr	r2, [r3, #0]
 8001bc8:	f042 0210 	orr.w	r2, r2, #16
 8001bcc:	601a      	str	r2, [r3, #0]
 8001bce:	6b0a      	ldr	r2, [r1, #48]	; 0x30
 8001bd0:	432a      	orrs	r2, r5
 8001bd2:	630a      	str	r2, [r1, #48]	; 0x30
 8001bd4:	4a16      	ldr	r2, [pc, #88]	; (8001c30 <_ZN14DistanceSensorC1Ev+0xa4>)
 8001bd6:	61c2      	str	r2, [r0, #28]
 8001bd8:	6816      	ldr	r6, [r2, #0]
 8001bda:	f426 6640 	bic.w	r6, r6, #3072	; 0xc00
 8001bde:	6016      	str	r6, [r2, #0]
 8001be0:	6816      	ldr	r6, [r2, #0]
 8001be2:	f446 6640 	orr.w	r6, r6, #3072	; 0xc00
 8001be6:	6016      	str	r6, [r2, #0]
 8001be8:	6b0e      	ldr	r6, [r1, #48]	; 0x30
 8001bea:	432e      	orrs	r6, r5
 8001bec:	630e      	str	r6, [r1, #48]	; 0x30
 8001bee:	681e      	ldr	r6, [r3, #0]
 8001bf0:	6203      	str	r3, [r0, #32]
 8001bf2:	f026 0603 	bic.w	r6, r6, #3
 8001bf6:	601e      	str	r6, [r3, #0]
 8001bf8:	681e      	ldr	r6, [r3, #0]
 8001bfa:	f046 0603 	orr.w	r6, r6, #3
 8001bfe:	601e      	str	r6, [r3, #0]
 8001c00:	6b0e      	ldr	r6, [r1, #48]	; 0x30
 8001c02:	4335      	orrs	r5, r6
 8001c04:	630d      	str	r5, [r1, #48]	; 0x30
 8001c06:	6811      	ldr	r1, [r2, #0]
 8001c08:	6242      	str	r2, [r0, #36]	; 0x24
 8001c0a:	f021 0103 	bic.w	r1, r1, #3
 8001c0e:	6011      	str	r1, [r2, #0]
 8001c10:	6811      	ldr	r1, [r2, #0]
 8001c12:	f041 0103 	orr.w	r1, r1, #3
 8001c16:	6011      	str	r1, [r2, #0]
 8001c18:	695a      	ldr	r2, [r3, #20]
 8001c1a:	f022 0204 	bic.w	r2, r2, #4
 8001c1e:	615a      	str	r2, [r3, #20]
 8001c20:	bd70      	pop	{r4, r5, r6, pc}
 8001c22:	bf00      	nop
 8001c24:	40023800 	andmi	r3, r2, r0, lsl #16
 8001c28:	08002824 	stmdaeq	r0, {r2, r5, fp, sp}
 8001c2c:	40020400 	andmi	r0, r2, r0, lsl #8
 8001c30:	40020000 	andmi	r0, r2, r0

08001c34 <_ZN14DistanceSensor4initEv>:
 8001c34:	6982      	ldr	r2, [r0, #24]
 8001c36:	b538      	push	{r3, r4, r5, lr}
 8001c38:	6953      	ldr	r3, [r2, #20]
 8001c3a:	2500      	movs	r5, #0
 8001c3c:	f023 0304 	bic.w	r3, r3, #4
 8001c40:	6285      	str	r5, [r0, #40]	; 0x28
 8001c42:	4604      	mov	r4, r0
 8001c44:	6153      	str	r3, [r2, #20]
 8001c46:	f44f 7380 	mov.w	r3, #256	; 0x100
 8001c4a:	62c5      	str	r5, [r0, #44]	; 0x2c
 8001c4c:	6305      	str	r5, [r0, #48]	; 0x30
 8001c4e:	6345      	str	r5, [r0, #52]	; 0x34
 8001c50:	6385      	str	r5, [r0, #56]	; 0x38
 8001c52:	63c5      	str	r5, [r0, #60]	; 0x3c
 8001c54:	6405      	str	r5, [r0, #64]	; 0x40
 8001c56:	6043      	str	r3, [r0, #4]
 8001c58:	6083      	str	r3, [r0, #8]
 8001c5a:	60c3      	str	r3, [r0, #12]
 8001c5c:	7405      	strb	r5, [r0, #16]
 8001c5e:	7445      	strb	r5, [r0, #17]
 8001c60:	4601      	mov	r1, r0
 8001c62:	462b      	mov	r3, r5
 8001c64:	2232      	movs	r2, #50	; 0x32
 8001c66:	4803      	ldr	r0, [pc, #12]	; (8001c74 <_ZN14DistanceSensor4initEv+0x40>)
 8001c68:	f000 f876 	bl	8001d58 <_ZN5Timer8add_taskEP6Threadjb>
 8001c6c:	7525      	strb	r5, [r4, #20]
 8001c6e:	4628      	mov	r0, r5
 8001c70:	bd38      	pop	{r3, r4, r5, pc}
 8001c72:	bf00      	nop
 8001c74:	200002dc 	ldrdcs	r0, [r0], -ip

08001c78 <_ZN14DistanceSensor6filterEPij>:
 8001c78:	eb00 0282 	add.w	r2, r0, r2, lsl #2
 8001c7c:	6b93      	ldr	r3, [r2, #56]	; 0x38
 8001c7e:	6ad2      	ldr	r2, [r2, #44]	; 0x2c
 8001c80:	1a9b      	subs	r3, r3, r2
 8001c82:	ea23 73e3 	bic.w	r3, r3, r3, asr #31
 8001c86:	2210      	movs	r2, #16
 8001c88:	f5c3 5380 	rsb	r3, r3, #4096	; 0x1000
 8001c8c:	fb93 f3f2 	sdiv	r3, r3, r2
 8001c90:	680a      	ldr	r2, [r1, #0]
 8001c92:	eb02 0242 	add.w	r2, r2, r2, lsl #1
 8001c96:	4413      	add	r3, r2
 8001c98:	2204      	movs	r2, #4
 8001c9a:	fb93 f3f2 	sdiv	r3, r3, r2
 8001c9e:	600b      	str	r3, [r1, #0]
 8001ca0:	4770      	bx	lr
 8001ca2:	0000      	movs	r0, r0

08001ca4 <_ZN14DistanceSensor4mainEv>:
 8001ca4:	b538      	push	{r3, r4, r5, lr}
 8001ca6:	6a85      	ldr	r5, [r0, #40]	; 0x28
 8001ca8:	4604      	mov	r4, r0
 8001caa:	b115      	cbz	r5, 8001cb2 <_ZN14DistanceSensor4mainEv+0xe>
 8001cac:	2d01      	cmp	r5, #1
 8001cae:	d017      	beq.n	8001ce0 <_ZN14DistanceSensor4mainEv+0x3c>
 8001cb0:	bd38      	pop	{r3, r4, r5, pc}
 8001cb2:	2108      	movs	r1, #8
 8001cb4:	4826      	ldr	r0, [pc, #152]	; (8001d50 <_ZN14DistanceSensor4mainEv+0xac>)
 8001cb6:	f7ff fb90 	bl	80013da <_ZN9ADCDriver4readEj>
 8001cba:	2109      	movs	r1, #9
 8001cbc:	63a0      	str	r0, [r4, #56]	; 0x38
 8001cbe:	4824      	ldr	r0, [pc, #144]	; (8001d50 <_ZN14DistanceSensor4mainEv+0xac>)
 8001cc0:	f7ff fb8b 	bl	80013da <_ZN9ADCDriver4readEj>
 8001cc4:	210a      	movs	r1, #10
 8001cc6:	63e0      	str	r0, [r4, #60]	; 0x3c
 8001cc8:	4821      	ldr	r0, [pc, #132]	; (8001d50 <_ZN14DistanceSensor4mainEv+0xac>)
 8001cca:	f7ff fb86 	bl	80013da <_ZN9ADCDriver4readEj>
 8001cce:	69a2      	ldr	r2, [r4, #24]
 8001cd0:	6420      	str	r0, [r4, #64]	; 0x40
 8001cd2:	6953      	ldr	r3, [r2, #20]
 8001cd4:	f043 0304 	orr.w	r3, r3, #4
 8001cd8:	6153      	str	r3, [r2, #20]
 8001cda:	2301      	movs	r3, #1
 8001cdc:	62a3      	str	r3, [r4, #40]	; 0x28
 8001cde:	bd38      	pop	{r3, r4, r5, pc}
 8001ce0:	2108      	movs	r1, #8
 8001ce2:	481b      	ldr	r0, [pc, #108]	; (8001d50 <_ZN14DistanceSensor4mainEv+0xac>)
 8001ce4:	f7ff fb79 	bl	80013da <_ZN9ADCDriver4readEj>
 8001ce8:	2109      	movs	r1, #9
 8001cea:	62e0      	str	r0, [r4, #44]	; 0x2c
 8001cec:	4818      	ldr	r0, [pc, #96]	; (8001d50 <_ZN14DistanceSensor4mainEv+0xac>)
 8001cee:	f7ff fb74 	bl	80013da <_ZN9ADCDriver4readEj>
 8001cf2:	210a      	movs	r1, #10
 8001cf4:	6320      	str	r0, [r4, #48]	; 0x30
 8001cf6:	4816      	ldr	r0, [pc, #88]	; (8001d50 <_ZN14DistanceSensor4mainEv+0xac>)
 8001cf8:	f7ff fb6f 	bl	80013da <_ZN9ADCDriver4readEj>
 8001cfc:	69a2      	ldr	r2, [r4, #24]
 8001cfe:	6360      	str	r0, [r4, #52]	; 0x34
 8001d00:	6953      	ldr	r3, [r2, #20]
 8001d02:	f023 0304 	bic.w	r3, r3, #4
 8001d06:	6153      	str	r3, [r2, #20]
 8001d08:	f104 0108 	add.w	r1, r4, #8
 8001d0c:	2200      	movs	r2, #0
 8001d0e:	4620      	mov	r0, r4
 8001d10:	f7ff ffb2 	bl	8001c78 <_ZN14DistanceSensor6filterEPij>
 8001d14:	462a      	mov	r2, r5
 8001d16:	1d21      	adds	r1, r4, #4
 8001d18:	4620      	mov	r0, r4
 8001d1a:	f7ff ffad 	bl	8001c78 <_ZN14DistanceSensor6filterEPij>
 8001d1e:	2202      	movs	r2, #2
 8001d20:	f104 010c 	add.w	r1, r4, #12
 8001d24:	4620      	mov	r0, r4
 8001d26:	f7ff ffa7 	bl	8001c78 <_ZN14DistanceSensor6filterEPij>
 8001d2a:	68a2      	ldr	r2, [r4, #8]
 8001d2c:	2aef      	cmp	r2, #239	; 0xef
 8001d2e:	f04f 0300 	mov.w	r3, #0
 8001d32:	dc04      	bgt.n	8001d3e <_ZN14DistanceSensor4mainEv+0x9a>
 8001d34:	2ad1      	cmp	r2, #209	; 0xd1
 8001d36:	7425      	strb	r5, [r4, #16]
 8001d38:	dd03      	ble.n	8001d42 <_ZN14DistanceSensor4mainEv+0x9e>
 8001d3a:	7463      	strb	r3, [r4, #17]
 8001d3c:	e002      	b.n	8001d44 <_ZN14DistanceSensor4mainEv+0xa0>
 8001d3e:	7423      	strb	r3, [r4, #16]
 8001d40:	e7fb      	b.n	8001d3a <_ZN14DistanceSensor4mainEv+0x96>
 8001d42:	7465      	strb	r5, [r4, #17]
 8001d44:	2300      	movs	r3, #0
 8001d46:	62a3      	str	r3, [r4, #40]	; 0x28
 8001d48:	2301      	movs	r3, #1
 8001d4a:	7523      	strb	r3, [r4, #20]
 8001d4c:	bd38      	pop	{r3, r4, r5, pc}
 8001d4e:	bf00      	nop
 8001d50:	20000150 	andcs	r0, r0, r0, asr r1

08001d54 <_ZN5TimerC1Ev>:
 8001d54:	4770      	bx	lr

08001d56 <_ZN5TimerD1Ev>:
 8001d56:	4770      	bx	lr

08001d58 <_ZN5Timer8add_taskEP6Threadjb>:
 8001d58:	b5f0      	push	{r4, r5, r6, r7, lr}
 8001d5a:	b672      	cpsid	i
 8001d5c:	4d11      	ldr	r5, [pc, #68]	; (8001da4 <_ZN5Timer8add_taskEP6Threadjb+0x4c>)
 8001d5e:	2400      	movs	r4, #0
 8001d60:	f04f 30ff 	mov.w	r0, #4294967295	; 0xffffffff
 8001d64:	f04f 0e14 	mov.w	lr, #20
 8001d68:	462f      	mov	r7, r5
 8001d6a:	fb0e f604 	mul.w	r6, lr, r4
 8001d6e:	eb05 0c06 	add.w	ip, r5, r6
 8001d72:	59ae      	ldr	r6, [r5, r6]
 8001d74:	b926      	cbnz	r6, 8001d80 <_ZN5Timer8add_taskEP6Threadjb+0x28>
 8001d76:	f8dc 6004 	ldr.w	r6, [ip, #4]
 8001d7a:	2e00      	cmp	r6, #0
 8001d7c:	bf08      	it	eq
 8001d7e:	4620      	moveq	r0, r4
 8001d80:	3401      	adds	r4, #1
 8001d82:	2c10      	cmp	r4, #16
 8001d84:	d1f1      	bne.n	8001d6a <_ZN5Timer8add_taskEP6Threadjb+0x12>
 8001d86:	1c44      	adds	r4, r0, #1
 8001d88:	d00a      	beq.n	8001da0 <_ZN5Timer8add_taskEP6Threadjb+0x48>
 8001d8a:	b2c4      	uxtb	r4, r0
 8001d8c:	2514      	movs	r5, #20
 8001d8e:	4365      	muls	r5, r4
 8001d90:	197c      	adds	r4, r7, r5
 8001d92:	2600      	movs	r6, #0
 8001d94:	517e      	str	r6, [r7, r5]
 8001d96:	6061      	str	r1, [r4, #4]
 8001d98:	60a2      	str	r2, [r4, #8]
 8001d9a:	60e2      	str	r2, [r4, #12]
 8001d9c:	7426      	strb	r6, [r4, #16]
 8001d9e:	7463      	strb	r3, [r4, #17]
 8001da0:	b662      	cpsie	i
 8001da2:	bdf0      	pop	{r4, r5, r6, r7, pc}
 8001da4:	20000010 	andcs	r0, r0, r0, lsl r0

08001da8 <_ZN5Timer10set_periodEhj>:
 8001da8:	4804      	ldr	r0, [pc, #16]	; (8001dbc <_ZN5Timer10set_periodEhj+0x14>)
 8001daa:	2314      	movs	r3, #20
 8001dac:	fb03 0101 	mla	r1, r3, r1, r0
 8001db0:	2300      	movs	r3, #0
 8001db2:	60ca      	str	r2, [r1, #12]
 8001db4:	608a      	str	r2, [r1, #8]
 8001db6:	740b      	strb	r3, [r1, #16]
 8001db8:	4770      	bx	lr
 8001dba:	bf00      	nop
 8001dbc:	20000010 	andcs	r0, r0, r0, lsl r0

08001dc0 <_ZN5Timer8get_timeEv>:
 8001dc0:	b082      	sub	sp, #8
 8001dc2:	b672      	cpsid	i
 8001dc4:	4b03      	ldr	r3, [pc, #12]	; (8001dd4 <_ZN5Timer8get_timeEv+0x14>)
 8001dc6:	681b      	ldr	r3, [r3, #0]
 8001dc8:	9301      	str	r3, [sp, #4]
 8001dca:	b662      	cpsie	i
 8001dcc:	9801      	ldr	r0, [sp, #4]
 8001dce:	b002      	add	sp, #8
 8001dd0:	4770      	bx	lr
 8001dd2:	bf00      	nop
 8001dd4:	2000000c 	andcs	r0, r0, ip

08001dd8 <_ZN5Timer8delay_msEj>:
 8001dd8:	b507      	push	{r0, r1, r2, lr}
 8001dda:	4602      	mov	r2, r0
 8001ddc:	f7ff fff0 	bl	8001dc0 <_ZN5Timer8get_timeEv>
 8001de0:	4401      	add	r1, r0
 8001de2:	9101      	str	r1, [sp, #4]
 8001de4:	4610      	mov	r0, r2
 8001de6:	f7ff ffeb 	bl	8001dc0 <_ZN5Timer8get_timeEv>
 8001dea:	9b01      	ldr	r3, [sp, #4]
 8001dec:	4298      	cmp	r0, r3
 8001dee:	d201      	bcs.n	8001df4 <_ZN5Timer8delay_msEj+0x1c>
 8001df0:	bf00      	nop
 8001df2:	e7f7      	b.n	8001de4 <_ZN5Timer8delay_msEj+0xc>
 8001df4:	b003      	add	sp, #12
 8001df6:	f85d fb04 	ldr.w	pc, [sp], #4
 8001dfa:	0000      	movs	r0, r0

08001dfc <TIM2_IRQHandler>:
 8001dfc:	b5f8      	push	{r3, r4, r5, r6, r7, lr}
 8001dfe:	f04f 4380 	mov.w	r3, #1073741824	; 0x40000000
 8001e02:	691a      	ldr	r2, [r3, #16]
 8001e04:	07d2      	lsls	r2, r2, #31
 8001e06:	d514      	bpl.n	8001e32 <TIM2_IRQHandler+0x36>
 8001e08:	4f19      	ldr	r7, [pc, #100]	; (8001e70 <TIM2_IRQHandler+0x74>)
 8001e0a:	f64f 72fe 	movw	r2, #65534	; 0xfffe
 8001e0e:	611a      	str	r2, [r3, #16]
 8001e10:	2400      	movs	r4, #0
 8001e12:	2614      	movs	r6, #20
 8001e14:	463d      	mov	r5, r7
 8001e16:	fb06 7304 	mla	r3, r6, r4, r7
 8001e1a:	68da      	ldr	r2, [r3, #12]
 8001e1c:	b152      	cbz	r2, 8001e34 <TIM2_IRQHandler+0x38>
 8001e1e:	68da      	ldr	r2, [r3, #12]
 8001e20:	3a01      	subs	r2, #1
 8001e22:	60da      	str	r2, [r3, #12]
 8001e24:	3401      	adds	r4, #1
 8001e26:	2c10      	cmp	r4, #16
 8001e28:	d1f5      	bne.n	8001e16 <TIM2_IRQHandler+0x1a>
 8001e2a:	4a12      	ldr	r2, [pc, #72]	; (8001e74 <TIM2_IRQHandler+0x78>)
 8001e2c:	6813      	ldr	r3, [r2, #0]
 8001e2e:	3301      	adds	r3, #1
 8001e30:	6013      	str	r3, [r2, #0]
 8001e32:	bdf8      	pop	{r3, r4, r5, r6, r7, pc}
 8001e34:	689a      	ldr	r2, [r3, #8]
 8001e36:	60da      	str	r2, [r3, #12]
 8001e38:	7c1a      	ldrb	r2, [r3, #16]
 8001e3a:	2aff      	cmp	r2, #255	; 0xff
 8001e3c:	bf1f      	itttt	ne
 8001e3e:	7c1a      	ldrbne	r2, [r3, #16]
 8001e40:	3201      	addne	r2, #1
 8001e42:	b2d2      	uxtbne	r2, r2
 8001e44:	741a      	strbne	r2, [r3, #16]
 8001e46:	fb06 f304 	mul.w	r3, r6, r4
 8001e4a:	18ea      	adds	r2, r5, r3
 8001e4c:	7c52      	ldrb	r2, [r2, #17]
 8001e4e:	2a00      	cmp	r2, #0
 8001e50:	d1e8      	bne.n	8001e24 <TIM2_IRQHandler+0x28>
 8001e52:	58ea      	ldr	r2, [r5, r3]
 8001e54:	b10a      	cbz	r2, 8001e5a <TIM2_IRQHandler+0x5e>
 8001e56:	58eb      	ldr	r3, [r5, r3]
 8001e58:	4798      	blx	r3
 8001e5a:	fb06 5304 	mla	r3, r6, r4, r5
 8001e5e:	685a      	ldr	r2, [r3, #4]
 8001e60:	2a00      	cmp	r2, #0
 8001e62:	d0df      	beq.n	8001e24 <TIM2_IRQHandler+0x28>
 8001e64:	6858      	ldr	r0, [r3, #4]
 8001e66:	6803      	ldr	r3, [r0, #0]
 8001e68:	689b      	ldr	r3, [r3, #8]
 8001e6a:	4798      	blx	r3
 8001e6c:	e7da      	b.n	8001e24 <TIM2_IRQHandler+0x28>
 8001e6e:	bf00      	nop
 8001e70:	20000010 	andcs	r0, r0, r0, lsl r0
 8001e74:	2000000c 	andcs	r0, r0, ip

08001e78 <_ZN5Timer12timer_2_initEj>:
 8001e78:	b510      	push	{r4, lr}
 8001e7a:	b092      	sub	sp, #72	; 0x48
 8001e7c:	460c      	mov	r4, r1
 8001e7e:	f7ff f809 	bl	8000e94 <HAL_RCC_GetPCLK1Freq>
 8001e82:	2c00      	cmp	r4, #0
 8001e84:	bf08      	it	eq
 8001e86:	2401      	moveq	r4, #1
 8001e88:	42a0      	cmp	r0, r4
 8001e8a:	ea4f 0340 	mov.w	r3, r0, lsl #1
 8001e8e:	bf28      	it	cs
 8001e90:	4620      	movcs	r0, r4
 8001e92:	ee07 3a10 	vmov	s14, r3
 8001e96:	ee07 0a90 	vmov	s15, r0
 8001e9a:	eeb8 7a47 	vcvt.f32.u32	s14, s14
 8001e9e:	eef8 7a67 	vcvt.f32.u32	s15, s15
 8001ea2:	491b      	ldr	r1, [pc, #108]	; (8001f10 <_ZN5Timer12timer_2_initEj+0x98>)
 8001ea4:	eec7 6a27 	vdiv.f32	s13, s14, s15
 8001ea8:	6c0a      	ldr	r2, [r1, #64]	; 0x40
 8001eaa:	f042 0201 	orr.w	r2, r2, #1
 8001eae:	640a      	str	r2, [r1, #64]	; 0x40
 8001eb0:	f04f 4280 	mov.w	r2, #1073741824	; 0x40000000
 8001eb4:	9202      	str	r2, [sp, #8]
 8001eb6:	2400      	movs	r4, #0
 8001eb8:	a802      	add	r0, sp, #8
 8001eba:	9406      	str	r4, [sp, #24]
 8001ebc:	9404      	str	r4, [sp, #16]
 8001ebe:	9407      	str	r4, [sp, #28]
 8001ec0:	eefc 7ae6 	vcvt.u32.f32	s15, s13
 8001ec4:	ee17 3a90 	vmov	r3, s15
 8001ec8:	0c1b      	lsrs	r3, r3, #16
 8001eca:	1c5a      	adds	r2, r3, #1
 8001ecc:	ee07 2a10 	vmov	s14, r2
 8001ed0:	eeb8 7ac7 	vcvt.f32.s32	s14, s14
 8001ed4:	9303      	str	r3, [sp, #12]
 8001ed6:	eec6 7a87 	vdiv.f32	s15, s13, s14
 8001eda:	ed9f 7a0e 	vldr	s14, [pc, #56]	; 8001f14 <_ZN5Timer12timer_2_initEj+0x9c>
 8001ede:	ee77 7ac7 	vsub.f32	s15, s15, s14
 8001ee2:	eefc 7ae7 	vcvt.u32.f32	s15, s15
 8001ee6:	edcd 7a01 	vstr	s15, [sp, #4]
 8001eea:	f8bd 2004 	ldrh.w	r2, [sp, #4]
 8001eee:	9205      	str	r2, [sp, #20]
 8001ef0:	f7ff f864 	bl	8000fbc <HAL_TIM_Base_Init>
 8001ef4:	4622      	mov	r2, r4
 8001ef6:	2103      	movs	r1, #3
 8001ef8:	201c      	movs	r0, #28
 8001efa:	f7fe fc0d 	bl	8000718 <HAL_NVIC_SetPriority>
 8001efe:	201c      	movs	r0, #28
 8001f00:	f7fe fc3e 	bl	8000780 <HAL_NVIC_EnableIRQ>
 8001f04:	a802      	add	r0, sp, #8
 8001f06:	f7fe ffe6 	bl	8000ed6 <HAL_TIM_Base_Start_IT>
 8001f0a:	b012      	add	sp, #72	; 0x48
 8001f0c:	bd10      	pop	{r4, pc}
 8001f0e:	bf00      	nop
 8001f10:	40023800 	andmi	r3, r2, r0, lsl #16
 8001f14:	3f800000 	svccc	0x00800000

08001f18 <_ZN5Timer4initEv>:
 8001f18:	b5f8      	push	{r3, r4, r5, r6, r7, lr}
 8001f1a:	2200      	movs	r2, #0
 8001f1c:	4d0c      	ldr	r5, [pc, #48]	; (8001f50 <_ZN5Timer4initEv+0x38>)
 8001f1e:	2714      	movs	r7, #20
 8001f20:	4613      	mov	r3, r2
 8001f22:	f44f 767a 	mov.w	r6, #1000	; 0x3e8
 8001f26:	fb07 f402 	mul.w	r4, r7, r2
 8001f2a:	1929      	adds	r1, r5, r4
 8001f2c:	3201      	adds	r2, #1
 8001f2e:	2a10      	cmp	r2, #16
 8001f30:	512b      	str	r3, [r5, r4]
 8001f32:	604b      	str	r3, [r1, #4]
 8001f34:	608e      	str	r6, [r1, #8]
 8001f36:	60cb      	str	r3, [r1, #12]
 8001f38:	740b      	strb	r3, [r1, #16]
 8001f3a:	744b      	strb	r3, [r1, #17]
 8001f3c:	d1f3      	bne.n	8001f26 <_ZN5Timer4initEv+0xe>
 8001f3e:	4a05      	ldr	r2, [pc, #20]	; (8001f54 <_ZN5Timer4initEv+0x3c>)
 8001f40:	f44f 717a 	mov.w	r1, #1000	; 0x3e8
 8001f44:	6013      	str	r3, [r2, #0]
 8001f46:	6003      	str	r3, [r0, #0]
 8001f48:	f7ff ff96 	bl	8001e78 <_ZN5Timer12timer_2_initEj>
 8001f4c:	b662      	cpsie	i
 8001f4e:	bdf8      	pop	{r3, r4, r5, r6, r7, pc}
 8001f50:	20000010 	andcs	r0, r0, r0, lsl r0
 8001f54:	2000000c 	andcs	r0, r0, ip

08001f58 <_ZN7DriversD1Ev>:
 8001f58:	4770      	bx	lr

08001f5a <_ZN7DriversD0Ev>:
 8001f5a:	b510      	push	{r4, lr}
 8001f5c:	2108      	movs	r1, #8
 8001f5e:	4604      	mov	r4, r0
 8001f60:	f7ff f8ac 	bl	80010bc <_ZdlPvj>
 8001f64:	4620      	mov	r0, r4
 8001f66:	bd10      	pop	{r4, pc}

08001f68 <_ZN4TI2CILh3ELh1ELh2ELh200ELh3EED1Ev>:
 8001f68:	b510      	push	{r4, lr}
 8001f6a:	4b03      	ldr	r3, [pc, #12]	; (8001f78 <_ZN4TI2CILh3ELh1ELh2ELh200ELh3EED1Ev+0x10>)
 8001f6c:	6003      	str	r3, [r0, #0]
 8001f6e:	4604      	mov	r4, r0
 8001f70:	f7ff f84e 	bl	8001010 <_ZN13I2C_InterfaceD1Ev>
 8001f74:	4620      	mov	r0, r4
 8001f76:	bd10      	pop	{r4, pc}
 8001f78:	08002838 	stmdaeq	r0, {r3, r4, r5, fp, sp}

08001f7c <_ZN4TI2CILh3ELh1ELh2ELh200ELh3EED0Ev>:
 8001f7c:	b510      	push	{r4, lr}
 8001f7e:	4604      	mov	r4, r0
 8001f80:	f7ff fff2 	bl	8001f68 <_ZN4TI2CILh3ELh1ELh2ELh200ELh3EED1Ev>
 8001f84:	4620      	mov	r0, r4
 8001f86:	2110      	movs	r1, #16
 8001f88:	f7ff f898 	bl	80010bc <_ZdlPvj>
 8001f8c:	4620      	mov	r0, r4
 8001f8e:	bd10      	pop	{r4, pc}

08001f90 <_ZN7DriversC1Ev>:
 8001f90:	4910      	ldr	r1, [pc, #64]	; (8001fd4 <_ZN7DriversC1Ev+0x44>)
 8001f92:	4b11      	ldr	r3, [pc, #68]	; (8001fd8 <_ZN7DriversC1Ev+0x48>)
 8001f94:	6003      	str	r3, [r0, #0]
 8001f96:	6b0b      	ldr	r3, [r1, #48]	; 0x30
 8001f98:	ea6f 2353 	mvn.w	r3, r3, lsr #9
 8001f9c:	ea6f 2343 	mvn.w	r3, r3, lsl #9
 8001fa0:	630b      	str	r3, [r1, #48]	; 0x30
 8001fa2:	4b0e      	ldr	r3, [pc, #56]	; (8001fdc <_ZN7DriversC1Ev+0x4c>)
 8001fa4:	6043      	str	r3, [r0, #4]
 8001fa6:	689a      	ldr	r2, [r3, #8]
 8001fa8:	f422 3240 	bic.w	r2, r2, #196608	; 0x30000
 8001fac:	609a      	str	r2, [r3, #8]
 8001fae:	689a      	ldr	r2, [r3, #8]
 8001fb0:	f442 3240 	orr.w	r2, r2, #196608	; 0x30000
 8001fb4:	609a      	str	r2, [r3, #8]
 8001fb6:	685a      	ldr	r2, [r3, #4]
 8001fb8:	f422 7280 	bic.w	r2, r2, #256	; 0x100
 8001fbc:	605a      	str	r2, [r3, #4]
 8001fbe:	685a      	ldr	r2, [r3, #4]
 8001fc0:	605a      	str	r2, [r3, #4]
 8001fc2:	681a      	ldr	r2, [r3, #0]
 8001fc4:	f422 3240 	bic.w	r2, r2, #196608	; 0x30000
 8001fc8:	601a      	str	r2, [r3, #0]
 8001fca:	681a      	ldr	r2, [r3, #0]
 8001fcc:	f442 3280 	orr.w	r2, r2, #65536	; 0x10000
 8001fd0:	601a      	str	r2, [r3, #0]
 8001fd2:	4770      	bx	lr
 8001fd4:	40023800 	andmi	r3, r2, r0, lsl #16
 8001fd8:	08002960 	stmdaeq	r0, {r5, r6, r8, fp, sp}
 8001fdc:	40020000 	andmi	r0, r2, r0

08001fe0 <_ZN7Drivers15test_imu_sensorEi>:
 8001fe0:	e92d 43f8 	stmdb	sp!, {r3, r4, r5, r6, r7, r8, r9, lr}
 8001fe4:	4680      	mov	r8, r0
 8001fe6:	460f      	mov	r7, r1
 8001fe8:	4840      	ldr	r0, [pc, #256]	; (80020ec <_ZN7Drivers15test_imu_sensorEi+0x10c>)
 8001fea:	4941      	ldr	r1, [pc, #260]	; (80020f0 <_ZN7Drivers15test_imu_sensorEi+0x110>)
 8001fec:	4d41      	ldr	r5, [pc, #260]	; (80020f4 <_ZN7Drivers15test_imu_sensorEi+0x114>)
 8001fee:	4c3f      	ldr	r4, [pc, #252]	; (80020ec <_ZN7Drivers15test_imu_sensorEi+0x10c>)
 8001ff0:	4e41      	ldr	r6, [pc, #260]	; (80020f8 <_ZN7Drivers15test_imu_sensorEi+0x118>)
 8001ff2:	f7ff f99c 	bl	800132e <_ZN8Terminal4putsEPKc>
 8001ff6:	f04f 0901 	mov.w	r9, #1
 8001ffa:	f1b9 0f00 	cmp.w	r9, #0
 8001ffe:	d072      	beq.n	80020e6 <_ZN7Drivers15test_imu_sensorEi+0x106>
 8002000:	4628      	mov	r0, r5
 8002002:	f7ff fcd9 	bl	80019b8 <_ZN3IMU5readyEv>
 8002006:	2800      	cmp	r0, #0
 8002008:	d0f7      	beq.n	8001ffa <_ZN7Drivers15test_imu_sensorEi+0x1a>
 800200a:	f8d8 2004 	ldr.w	r2, [r8, #4]
 800200e:	6929      	ldr	r1, [r5, #16]
 8002010:	6953      	ldr	r3, [r2, #20]
 8002012:	f443 7380 	orr.w	r3, r3, #256	; 0x100
 8002016:	2f00      	cmp	r7, #0
 8002018:	6153      	str	r3, [r2, #20]
 800201a:	4620      	mov	r0, r4
 800201c:	bfc8      	it	gt
 800201e:	f107 37ff 	addgt.w	r7, r7, #4294967295	; 0xffffffff
 8002022:	f7ff f986 	bl	8001332 <_ZN8Terminal4putiEl>
 8002026:	4631      	mov	r1, r6
 8002028:	4620      	mov	r0, r4
 800202a:	f7ff f980 	bl	800132e <_ZN8Terminal4putsEPKc>
 800202e:	6969      	ldr	r1, [r5, #20]
 8002030:	4620      	mov	r0, r4
 8002032:	f7ff f97e 	bl	8001332 <_ZN8Terminal4putiEl>
 8002036:	4631      	mov	r1, r6
 8002038:	4620      	mov	r0, r4
 800203a:	f7ff f978 	bl	800132e <_ZN8Terminal4putsEPKc>
 800203e:	69a9      	ldr	r1, [r5, #24]
 8002040:	4620      	mov	r0, r4
 8002042:	f7ff f976 	bl	8001332 <_ZN8Terminal4putiEl>
 8002046:	4631      	mov	r1, r6
 8002048:	4620      	mov	r0, r4
 800204a:	f7ff f970 	bl	800132e <_ZN8Terminal4putsEPKc>
 800204e:	492b      	ldr	r1, [pc, #172]	; (80020fc <_ZN7Drivers15test_imu_sensorEi+0x11c>)
 8002050:	4620      	mov	r0, r4
 8002052:	f7ff f96c 	bl	800132e <_ZN8Terminal4putsEPKc>
 8002056:	6869      	ldr	r1, [r5, #4]
 8002058:	4620      	mov	r0, r4
 800205a:	f7ff f96a 	bl	8001332 <_ZN8Terminal4putiEl>
 800205e:	4631      	mov	r1, r6
 8002060:	4620      	mov	r0, r4
 8002062:	f7ff f964 	bl	800132e <_ZN8Terminal4putsEPKc>
 8002066:	68a9      	ldr	r1, [r5, #8]
 8002068:	4620      	mov	r0, r4
 800206a:	f7ff f962 	bl	8001332 <_ZN8Terminal4putiEl>
 800206e:	4631      	mov	r1, r6
 8002070:	4620      	mov	r0, r4
 8002072:	f7ff f95c 	bl	800132e <_ZN8Terminal4putsEPKc>
 8002076:	68e9      	ldr	r1, [r5, #12]
 8002078:	4620      	mov	r0, r4
 800207a:	f7ff f95a 	bl	8001332 <_ZN8Terminal4putiEl>
 800207e:	4631      	mov	r1, r6
 8002080:	4620      	mov	r0, r4
 8002082:	f7ff f954 	bl	800132e <_ZN8Terminal4putsEPKc>
 8002086:	491d      	ldr	r1, [pc, #116]	; (80020fc <_ZN7Drivers15test_imu_sensorEi+0x11c>)
 8002088:	4620      	mov	r0, r4
 800208a:	f7ff f950 	bl	800132e <_ZN8Terminal4putsEPKc>
 800208e:	69e9      	ldr	r1, [r5, #28]
 8002090:	4620      	mov	r0, r4
 8002092:	f7ff f94e 	bl	8001332 <_ZN8Terminal4putiEl>
 8002096:	4631      	mov	r1, r6
 8002098:	4620      	mov	r0, r4
 800209a:	f7ff f948 	bl	800132e <_ZN8Terminal4putsEPKc>
 800209e:	6a29      	ldr	r1, [r5, #32]
 80020a0:	4620      	mov	r0, r4
 80020a2:	f7ff f946 	bl	8001332 <_ZN8Terminal4putiEl>
 80020a6:	4631      	mov	r1, r6
 80020a8:	4620      	mov	r0, r4
 80020aa:	f7ff f940 	bl	800132e <_ZN8Terminal4putsEPKc>
 80020ae:	6a69      	ldr	r1, [r5, #36]	; 0x24
 80020b0:	4620      	mov	r0, r4
 80020b2:	f7ff f93e 	bl	8001332 <_ZN8Terminal4putiEl>
 80020b6:	4631      	mov	r1, r6
 80020b8:	4620      	mov	r0, r4
 80020ba:	f7ff f938 	bl	800132e <_ZN8Terminal4putsEPKc>
 80020be:	4910      	ldr	r1, [pc, #64]	; (8002100 <_ZN7Drivers15test_imu_sensorEi+0x120>)
 80020c0:	4620      	mov	r0, r4
 80020c2:	f7ff f934 	bl	800132e <_ZN8Terminal4putsEPKc>
 80020c6:	f8d8 2004 	ldr.w	r2, [r8, #4]
 80020ca:	480e      	ldr	r0, [pc, #56]	; (8002104 <_ZN7Drivers15test_imu_sensorEi+0x124>)
 80020cc:	6953      	ldr	r3, [r2, #20]
 80020ce:	f423 7380 	bic.w	r3, r3, #256	; 0x100
 80020d2:	6153      	str	r3, [r2, #20]
 80020d4:	21c8      	movs	r1, #200	; 0xc8
 80020d6:	f7ff fe7f 	bl	8001dd8 <_ZN5Timer8delay_msEj>
 80020da:	f117 0900 	adds.w	r9, r7, #0
 80020de:	bf18      	it	ne
 80020e0:	f04f 0901 	movne.w	r9, #1
 80020e4:	e789      	b.n	8001ffa <_ZN7Drivers15test_imu_sensorEi+0x1a>
 80020e6:	e8bd 83f8 	ldmia.w	sp!, {r3, r4, r5, r6, r7, r8, r9, pc}
 80020ea:	bf00      	nop
 80020ec:	200002d8 	ldrdcs	r0, [r0], -r8
 80020f0:	08002854 	stmdaeq	r0, {r2, r4, r6, fp, sp}
 80020f4:	200001b0 			; <UNDEFINED> instruction: 0x200001b0
 80020f8:	08002867 	stmdaeq	r0, {r0, r1, r2, r5, r6, fp, sp}
 80020fc:	08002865 	stmdaeq	r0, {r0, r2, r5, r6, fp, sp}
 8002100:	08002873 	stmdaeq	r0, {r0, r1, r4, r5, r6, fp, sp}
 8002104:	200002dc 	ldrdcs	r0, [r0], -ip

08002108 <_ZN4GpioILh3ELh1ELh1EE8set_modeEh>:
 8002108:	b9b9      	cbnz	r1, 800213a <_ZN4GpioILh3ELh1ELh1EE8set_modeEh+0x32>
 800210a:	6803      	ldr	r3, [r0, #0]
 800210c:	689a      	ldr	r2, [r3, #8]
 800210e:	f022 020c 	bic.w	r2, r2, #12
 8002112:	609a      	str	r2, [r3, #8]
 8002114:	689a      	ldr	r2, [r3, #8]
 8002116:	f042 020c 	orr.w	r2, r2, #12
 800211a:	609a      	str	r2, [r3, #8]
 800211c:	685a      	ldr	r2, [r3, #4]
 800211e:	f022 0202 	bic.w	r2, r2, #2
 8002122:	605a      	str	r2, [r3, #4]
 8002124:	685a      	ldr	r2, [r3, #4]
 8002126:	605a      	str	r2, [r3, #4]
 8002128:	681a      	ldr	r2, [r3, #0]
 800212a:	f022 020c 	bic.w	r2, r2, #12
 800212e:	601a      	str	r2, [r3, #0]
 8002130:	681a      	ldr	r2, [r3, #0]
 8002132:	f042 0204 	orr.w	r2, r2, #4
 8002136:	601a      	str	r2, [r3, #0]
 8002138:	4770      	bx	lr
 800213a:	2901      	cmp	r1, #1
 800213c:	d10e      	bne.n	800215c <_ZN4GpioILh3ELh1ELh1EE8set_modeEh+0x54>
 800213e:	6803      	ldr	r3, [r0, #0]
 8002140:	689a      	ldr	r2, [r3, #8]
 8002142:	f022 020c 	bic.w	r2, r2, #12
 8002146:	609a      	str	r2, [r3, #8]
 8002148:	689a      	ldr	r2, [r3, #8]
 800214a:	f042 020c 	orr.w	r2, r2, #12
 800214e:	609a      	str	r2, [r3, #8]
 8002150:	681a      	ldr	r2, [r3, #0]
 8002152:	f022 020c 	bic.w	r2, r2, #12
 8002156:	601a      	str	r2, [r3, #0]
 8002158:	681a      	ldr	r2, [r3, #0]
 800215a:	e7ec      	b.n	8002136 <_ZN4GpioILh3ELh1ELh1EE8set_modeEh+0x2e>
 800215c:	2902      	cmp	r1, #2
 800215e:	d113      	bne.n	8002188 <_ZN4GpioILh3ELh1ELh1EE8set_modeEh+0x80>
 8002160:	6803      	ldr	r3, [r0, #0]
 8002162:	689a      	ldr	r2, [r3, #8]
 8002164:	f022 020c 	bic.w	r2, r2, #12
 8002168:	609a      	str	r2, [r3, #8]
 800216a:	689a      	ldr	r2, [r3, #8]
 800216c:	f042 020c 	orr.w	r2, r2, #12
 8002170:	609a      	str	r2, [r3, #8]
 8002172:	681a      	ldr	r2, [r3, #0]
 8002174:	f022 020c 	bic.w	r2, r2, #12
 8002178:	601a      	str	r2, [r3, #0]
 800217a:	681a      	ldr	r2, [r3, #0]
 800217c:	601a      	str	r2, [r3, #0]
 800217e:	68da      	ldr	r2, [r3, #12]
 8002180:	f042 0204 	orr.w	r2, r2, #4
 8002184:	60da      	str	r2, [r3, #12]
 8002186:	4770      	bx	lr
 8002188:	2905      	cmp	r1, #5
 800218a:	d110      	bne.n	80021ae <_ZN4GpioILh3ELh1ELh1EE8set_modeEh+0xa6>
 800218c:	6803      	ldr	r3, [r0, #0]
 800218e:	689a      	ldr	r2, [r3, #8]
 8002190:	f022 020c 	bic.w	r2, r2, #12
 8002194:	609a      	str	r2, [r3, #8]
 8002196:	689a      	ldr	r2, [r3, #8]
 8002198:	f042 020c 	orr.w	r2, r2, #12
 800219c:	609a      	str	r2, [r3, #8]
 800219e:	681a      	ldr	r2, [r3, #0]
 80021a0:	f022 020c 	bic.w	r2, r2, #12
 80021a4:	601a      	str	r2, [r3, #0]
 80021a6:	681a      	ldr	r2, [r3, #0]
 80021a8:	f042 0208 	orr.w	r2, r2, #8
 80021ac:	e7c3      	b.n	8002136 <_ZN4GpioILh3ELh1ELh1EE8set_modeEh+0x2e>
 80021ae:	2904      	cmp	r1, #4
 80021b0:	d1c2      	bne.n	8002138 <_ZN4GpioILh3ELh1ELh1EE8set_modeEh+0x30>
 80021b2:	6803      	ldr	r3, [r0, #0]
 80021b4:	681a      	ldr	r2, [r3, #0]
 80021b6:	f022 020c 	bic.w	r2, r2, #12
 80021ba:	601a      	str	r2, [r3, #0]
 80021bc:	681a      	ldr	r2, [r3, #0]
 80021be:	f042 020c 	orr.w	r2, r2, #12
 80021c2:	e7b8      	b.n	8002136 <_ZN4GpioILh3ELh1ELh1EE8set_modeEh+0x2e>

080021c4 <_ZN4GpioILh3ELh1ELh1EE4initEv>:
 80021c4:	4a06      	ldr	r2, [pc, #24]	; (80021e0 <_ZN4GpioILh3ELh1ELh1EE4initEv+0x1c>)
 80021c6:	b508      	push	{r3, lr}
 80021c8:	6b13      	ldr	r3, [r2, #48]	; 0x30
 80021ca:	ea6f 2353 	mvn.w	r3, r3, lsr #9
 80021ce:	ea6f 2343 	mvn.w	r3, r3, lsl #9
 80021d2:	6313      	str	r3, [r2, #48]	; 0x30
 80021d4:	4b03      	ldr	r3, [pc, #12]	; (80021e4 <_ZN4GpioILh3ELh1ELh1EE4initEv+0x20>)
 80021d6:	6003      	str	r3, [r0, #0]
 80021d8:	2101      	movs	r1, #1
 80021da:	f7ff ff95 	bl	8002108 <_ZN4GpioILh3ELh1ELh1EE8set_modeEh>
 80021de:	bd08      	pop	{r3, pc}
 80021e0:	40023800 	andmi	r3, r2, r0, lsl #16
 80021e4:	40020c00 	andmi	r0, r2, r0, lsl #24

080021e8 <_ZN4GpioILh3ELh2ELh1EE8set_modeEh>:
 80021e8:	b9b9      	cbnz	r1, 800221a <_ZN4GpioILh3ELh2ELh1EE8set_modeEh+0x32>
 80021ea:	6803      	ldr	r3, [r0, #0]
 80021ec:	689a      	ldr	r2, [r3, #8]
 80021ee:	f022 0230 	bic.w	r2, r2, #48	; 0x30
 80021f2:	609a      	str	r2, [r3, #8]
 80021f4:	689a      	ldr	r2, [r3, #8]
 80021f6:	f042 0230 	orr.w	r2, r2, #48	; 0x30
 80021fa:	609a      	str	r2, [r3, #8]
 80021fc:	685a      	ldr	r2, [r3, #4]
 80021fe:	f022 0204 	bic.w	r2, r2, #4
 8002202:	605a      	str	r2, [r3, #4]
 8002204:	685a      	ldr	r2, [r3, #4]
 8002206:	605a      	str	r2, [r3, #4]
 8002208:	681a      	ldr	r2, [r3, #0]
 800220a:	f022 0230 	bic.w	r2, r2, #48	; 0x30
 800220e:	601a      	str	r2, [r3, #0]
 8002210:	681a      	ldr	r2, [r3, #0]
 8002212:	f042 0210 	orr.w	r2, r2, #16
 8002216:	601a      	str	r2, [r3, #0]
 8002218:	4770      	bx	lr
 800221a:	2901      	cmp	r1, #1
 800221c:	d10e      	bne.n	800223c <_ZN4GpioILh3ELh2ELh1EE8set_modeEh+0x54>
 800221e:	6803      	ldr	r3, [r0, #0]
 8002220:	689a      	ldr	r2, [r3, #8]
 8002222:	f022 0230 	bic.w	r2, r2, #48	; 0x30
 8002226:	609a      	str	r2, [r3, #8]
 8002228:	689a      	ldr	r2, [r3, #8]
 800222a:	f042 0230 	orr.w	r2, r2, #48	; 0x30
 800222e:	609a      	str	r2, [r3, #8]
 8002230:	681a      	ldr	r2, [r3, #0]
 8002232:	f022 0230 	bic.w	r2, r2, #48	; 0x30
 8002236:	601a      	str	r2, [r3, #0]
 8002238:	681a      	ldr	r2, [r3, #0]
 800223a:	e7ec      	b.n	8002216 <_ZN4GpioILh3ELh2ELh1EE8set_modeEh+0x2e>
 800223c:	2902      	cmp	r1, #2
 800223e:	d113      	bne.n	8002268 <_ZN4GpioILh3ELh2ELh1EE8set_modeEh+0x80>
 8002240:	6803      	ldr	r3, [r0, #0]
 8002242:	689a      	ldr	r2, [r3, #8]
 8002244:	f022 0230 	bic.w	r2, r2, #48	; 0x30
 8002248:	609a      	str	r2, [r3, #8]
 800224a:	689a      	ldr	r2, [r3, #8]
 800224c:	f042 0230 	orr.w	r2, r2, #48	; 0x30
 8002250:	609a      	str	r2, [r3, #8]
 8002252:	681a      	ldr	r2, [r3, #0]
 8002254:	f022 0230 	bic.w	r2, r2, #48	; 0x30
 8002258:	601a      	str	r2, [r3, #0]
 800225a:	681a      	ldr	r2, [r3, #0]
 800225c:	601a      	str	r2, [r3, #0]
 800225e:	68da      	ldr	r2, [r3, #12]
 8002260:	f042 0210 	orr.w	r2, r2, #16
 8002264:	60da      	str	r2, [r3, #12]
 8002266:	4770      	bx	lr
 8002268:	2905      	cmp	r1, #5
 800226a:	d110      	bne.n	800228e <_ZN4GpioILh3ELh2ELh1EE8set_modeEh+0xa6>
 800226c:	6803      	ldr	r3, [r0, #0]
 800226e:	689a      	ldr	r2, [r3, #8]
 8002270:	f022 0230 	bic.w	r2, r2, #48	; 0x30
 8002274:	609a      	str	r2, [r3, #8]
 8002276:	689a      	ldr	r2, [r3, #8]
 8002278:	f042 0230 	orr.w	r2, r2, #48	; 0x30
 800227c:	609a      	str	r2, [r3, #8]
 800227e:	681a      	ldr	r2, [r3, #0]
 8002280:	f022 0230 	bic.w	r2, r2, #48	; 0x30
 8002284:	601a      	str	r2, [r3, #0]
 8002286:	681a      	ldr	r2, [r3, #0]
 8002288:	f042 0220 	orr.w	r2, r2, #32
 800228c:	e7c3      	b.n	8002216 <_ZN4GpioILh3ELh2ELh1EE8set_modeEh+0x2e>
 800228e:	2904      	cmp	r1, #4
 8002290:	d1c2      	bne.n	8002218 <_ZN4GpioILh3ELh2ELh1EE8set_modeEh+0x30>
 8002292:	6803      	ldr	r3, [r0, #0]
 8002294:	681a      	ldr	r2, [r3, #0]
 8002296:	f022 0230 	bic.w	r2, r2, #48	; 0x30
 800229a:	601a      	str	r2, [r3, #0]
 800229c:	681a      	ldr	r2, [r3, #0]
 800229e:	f042 0230 	orr.w	r2, r2, #48	; 0x30
 80022a2:	e7b8      	b.n	8002216 <_ZN4GpioILh3ELh2ELh1EE8set_modeEh+0x2e>

080022a4 <_ZN4GpioILh3ELh2ELh1EE4initEv>:
 80022a4:	4a06      	ldr	r2, [pc, #24]	; (80022c0 <_ZN4GpioILh3ELh2ELh1EE4initEv+0x1c>)
 80022a6:	b508      	push	{r3, lr}
 80022a8:	6b13      	ldr	r3, [r2, #48]	; 0x30
 80022aa:	ea6f 2353 	mvn.w	r3, r3, lsr #9
 80022ae:	ea6f 2343 	mvn.w	r3, r3, lsl #9
 80022b2:	6313      	str	r3, [r2, #48]	; 0x30
 80022b4:	4b03      	ldr	r3, [pc, #12]	; (80022c4 <_ZN4GpioILh3ELh2ELh1EE4initEv+0x20>)
 80022b6:	6003      	str	r3, [r0, #0]
 80022b8:	2101      	movs	r1, #1
 80022ba:	f7ff ff95 	bl	80021e8 <_ZN4GpioILh3ELh2ELh1EE8set_modeEh>
 80022be:	bd08      	pop	{r3, pc}
 80022c0:	40023800 	andmi	r3, r2, r0, lsl #16
 80022c4:	40020c00 	andmi	r0, r2, r0, lsl #24

080022c8 <_ZN4TI2CILh3ELh1ELh2ELh200ELh3EE4initEv>:
 80022c8:	23c8      	movs	r3, #200	; 0xc8
 80022ca:	b510      	push	{r4, lr}
 80022cc:	6043      	str	r3, [r0, #4]
 80022ce:	4604      	mov	r4, r0
 80022d0:	3008      	adds	r0, #8
 80022d2:	f7ff ff77 	bl	80021c4 <_ZN4GpioILh3ELh1ELh1EE4initEv>
 80022d6:	f104 000c 	add.w	r0, r4, #12
 80022da:	f7ff ffe3 	bl	80022a4 <_ZN4GpioILh3ELh2ELh1EE4initEv>
 80022de:	68a2      	ldr	r2, [r4, #8]
 80022e0:	6953      	ldr	r3, [r2, #20]
 80022e2:	f023 0302 	bic.w	r3, r3, #2
 80022e6:	6153      	str	r3, [r2, #20]
 80022e8:	68e2      	ldr	r2, [r4, #12]
 80022ea:	6953      	ldr	r3, [r2, #20]
 80022ec:	f023 0304 	bic.w	r3, r3, #4
 80022f0:	6153      	str	r3, [r2, #20]
 80022f2:	bd10      	pop	{r4, pc}

080022f4 <_ZN7Drivers4initEv>:
 80022f4:	6842      	ldr	r2, [r0, #4]
 80022f6:	b538      	push	{r3, r4, r5, lr}
 80022f8:	6953      	ldr	r3, [r2, #20]
 80022fa:	f443 7380 	orr.w	r3, r3, #256	; 0x100
 80022fe:	6153      	str	r3, [r2, #20]
 8002300:	f44f 31e1 	mov.w	r1, #115200	; 0x1c200
 8002304:	4604      	mov	r4, r0
 8002306:	483b      	ldr	r0, [pc, #236]	; (80023f4 <_ZN7Drivers4initEv+0x100>)
 8002308:	f7ff fbf0 	bl	8001aec <_ZN5Usart4initEj>
 800230c:	493a      	ldr	r1, [pc, #232]	; (80023f8 <_ZN7Drivers4initEv+0x104>)
 800230e:	4839      	ldr	r0, [pc, #228]	; (80023f4 <_ZN7Drivers4initEv+0x100>)
 8002310:	f7ff f80d 	bl	800132e <_ZN8Terminal4putsEPKc>
 8002314:	4939      	ldr	r1, [pc, #228]	; (80023fc <_ZN7Drivers4initEv+0x108>)
 8002316:	4837      	ldr	r0, [pc, #220]	; (80023f4 <_ZN7Drivers4initEv+0x100>)
 8002318:	f7ff f809 	bl	800132e <_ZN8Terminal4putsEPKc>
 800231c:	f7fe fec6 	bl	80010ac <_Z8mem_initv>
 8002320:	4937      	ldr	r1, [pc, #220]	; (8002400 <_ZN7Drivers4initEv+0x10c>)
 8002322:	4605      	mov	r5, r0
 8002324:	4833      	ldr	r0, [pc, #204]	; (80023f4 <_ZN7Drivers4initEv+0x100>)
 8002326:	f7ff f802 	bl	800132e <_ZN8Terminal4putsEPKc>
 800232a:	4629      	mov	r1, r5
 800232c:	4831      	ldr	r0, [pc, #196]	; (80023f4 <_ZN7Drivers4initEv+0x100>)
 800232e:	f7ff f829 	bl	8001384 <_ZN8Terminal5putuiEm>
 8002332:	4934      	ldr	r1, [pc, #208]	; (8002404 <_ZN7Drivers4initEv+0x110>)
 8002334:	482f      	ldr	r0, [pc, #188]	; (80023f4 <_ZN7Drivers4initEv+0x100>)
 8002336:	f7fe fffa 	bl	800132e <_ZN8Terminal4putsEPKc>
 800233a:	4833      	ldr	r0, [pc, #204]	; (8002408 <_ZN7Drivers4initEv+0x114>)
 800233c:	f7ff fdec 	bl	8001f18 <_ZN5Timer4initEv>
 8002340:	4932      	ldr	r1, [pc, #200]	; (800240c <_ZN7Drivers4initEv+0x118>)
 8002342:	482c      	ldr	r0, [pc, #176]	; (80023f4 <_ZN7Drivers4initEv+0x100>)
 8002344:	f7fe fff3 	bl	800132e <_ZN8Terminal4putsEPKc>
 8002348:	4931      	ldr	r1, [pc, #196]	; (8002410 <_ZN7Drivers4initEv+0x11c>)
 800234a:	482a      	ldr	r0, [pc, #168]	; (80023f4 <_ZN7Drivers4initEv+0x100>)
 800234c:	f7fe ffef 	bl	800132e <_ZN8Terminal4putsEPKc>
 8002350:	21c8      	movs	r1, #200	; 0xc8
 8002352:	482d      	ldr	r0, [pc, #180]	; (8002408 <_ZN7Drivers4initEv+0x114>)
 8002354:	f7ff fd40 	bl	8001dd8 <_ZN5Timer8delay_msEj>
 8002358:	492e      	ldr	r1, [pc, #184]	; (8002414 <_ZN7Drivers4initEv+0x120>)
 800235a:	4826      	ldr	r0, [pc, #152]	; (80023f4 <_ZN7Drivers4initEv+0x100>)
 800235c:	f7fe ffe7 	bl	800132e <_ZN8Terminal4putsEPKc>
 8002360:	482d      	ldr	r0, [pc, #180]	; (8002418 <_ZN7Drivers4initEv+0x124>)
 8002362:	f7ff ffb1 	bl	80022c8 <_ZN4TI2CILh3ELh1ELh2ELh200ELh3EE4initEv>
 8002366:	492d      	ldr	r1, [pc, #180]	; (800241c <_ZN7Drivers4initEv+0x128>)
 8002368:	4822      	ldr	r0, [pc, #136]	; (80023f4 <_ZN7Drivers4initEv+0x100>)
 800236a:	f7fe ffe0 	bl	800132e <_ZN8Terminal4putsEPKc>
 800236e:	492a      	ldr	r1, [pc, #168]	; (8002418 <_ZN7Drivers4initEv+0x124>)
 8002370:	482b      	ldr	r0, [pc, #172]	; (8002420 <_ZN7Drivers4initEv+0x12c>)
 8002372:	f7ff fb31 	bl	80019d8 <_ZN3IMU4initER13I2C_Interface>
 8002376:	481f      	ldr	r0, [pc, #124]	; (80023f4 <_ZN7Drivers4initEv+0x100>)
 8002378:	492a      	ldr	r1, [pc, #168]	; (8002424 <_ZN7Drivers4initEv+0x130>)
 800237a:	f7fe ffd8 	bl	800132e <_ZN8Terminal4putsEPKc>
 800237e:	4828      	ldr	r0, [pc, #160]	; (8002420 <_ZN7Drivers4initEv+0x12c>)
 8002380:	f7ff fb15 	bl	80019ae <_ZN3IMU7presentEv>
 8002384:	2800      	cmp	r0, #0
 8002386:	d032      	beq.n	80023ee <_ZN7Drivers4initEv+0xfa>
 8002388:	4927      	ldr	r1, [pc, #156]	; (8002428 <_ZN7Drivers4initEv+0x134>)
 800238a:	481a      	ldr	r0, [pc, #104]	; (80023f4 <_ZN7Drivers4initEv+0x100>)
 800238c:	f7fe ffcf 	bl	800132e <_ZN8Terminal4putsEPKc>
 8002390:	491c      	ldr	r1, [pc, #112]	; (8002404 <_ZN7Drivers4initEv+0x110>)
 8002392:	4818      	ldr	r0, [pc, #96]	; (80023f4 <_ZN7Drivers4initEv+0x100>)
 8002394:	f7fe ffcb 	bl	800132e <_ZN8Terminal4putsEPKc>
 8002398:	4824      	ldr	r0, [pc, #144]	; (800242c <_ZN7Drivers4initEv+0x138>)
 800239a:	f7ff f81d 	bl	80013d8 <_ZN9ADCDriver4initEv>
 800239e:	4924      	ldr	r1, [pc, #144]	; (8002430 <_ZN7Drivers4initEv+0x13c>)
 80023a0:	4814      	ldr	r0, [pc, #80]	; (80023f4 <_ZN7Drivers4initEv+0x100>)
 80023a2:	f7fe ffc4 	bl	800132e <_ZN8Terminal4putsEPKc>
 80023a6:	4823      	ldr	r0, [pc, #140]	; (8002434 <_ZN7Drivers4initEv+0x140>)
 80023a8:	f7ff f962 	bl	8001670 <_ZN10LineSensor4initEv>
 80023ac:	4922      	ldr	r1, [pc, #136]	; (8002438 <_ZN7Drivers4initEv+0x144>)
 80023ae:	4811      	ldr	r0, [pc, #68]	; (80023f4 <_ZN7Drivers4initEv+0x100>)
 80023b0:	f7fe ffbd 	bl	800132e <_ZN8Terminal4putsEPKc>
 80023b4:	4821      	ldr	r0, [pc, #132]	; (800243c <_ZN7Drivers4initEv+0x148>)
 80023b6:	f7ff fc3d 	bl	8001c34 <_ZN14DistanceSensor4initEv>
 80023ba:	4921      	ldr	r1, [pc, #132]	; (8002440 <_ZN7Drivers4initEv+0x14c>)
 80023bc:	480d      	ldr	r0, [pc, #52]	; (80023f4 <_ZN7Drivers4initEv+0x100>)
 80023be:	f7fe ffb6 	bl	800132e <_ZN8Terminal4putsEPKc>
 80023c2:	4820      	ldr	r0, [pc, #128]	; (8002444 <_ZN7Drivers4initEv+0x150>)
 80023c4:	f7ff f866 	bl	8001494 <_ZN3Key4initEv>
 80023c8:	491f      	ldr	r1, [pc, #124]	; (8002448 <_ZN7Drivers4initEv+0x154>)
 80023ca:	480a      	ldr	r0, [pc, #40]	; (80023f4 <_ZN7Drivers4initEv+0x100>)
 80023cc:	f7fe ffaf 	bl	800132e <_ZN8Terminal4putsEPKc>
 80023d0:	491e      	ldr	r1, [pc, #120]	; (800244c <_ZN7Drivers4initEv+0x158>)
 80023d2:	4808      	ldr	r0, [pc, #32]	; (80023f4 <_ZN7Drivers4initEv+0x100>)
 80023d4:	f7fe ffab 	bl	800132e <_ZN8Terminal4putsEPKc>
 80023d8:	491d      	ldr	r1, [pc, #116]	; (8002450 <_ZN7Drivers4initEv+0x15c>)
 80023da:	4806      	ldr	r0, [pc, #24]	; (80023f4 <_ZN7Drivers4initEv+0x100>)
 80023dc:	f7fe ffa7 	bl	800132e <_ZN8Terminal4putsEPKc>
 80023e0:	6862      	ldr	r2, [r4, #4]
 80023e2:	6953      	ldr	r3, [r2, #20]
 80023e4:	f423 7380 	bic.w	r3, r3, #256	; 0x100
 80023e8:	6153      	str	r3, [r2, #20]
 80023ea:	2000      	movs	r0, #0
 80023ec:	bd38      	pop	{r3, r4, r5, pc}
 80023ee:	4919      	ldr	r1, [pc, #100]	; (8002454 <_ZN7Drivers4initEv+0x160>)
 80023f0:	e7cb      	b.n	800238a <_ZN7Drivers4initEv+0x96>
 80023f2:	bf00      	nop
 80023f4:	200002d8 	ldrdcs	r0, [r0], -r8
 80023f8:	08002869 	stmdaeq	r0, {r0, r3, r5, r6, fp, sp}
 80023fc:	08002875 	stmdaeq	r0, {r0, r2, r4, r5, r6, fp, sp}
 8002400:	08002889 	stmdaeq	r0, {r0, r3, r7, fp, sp}
 8002404:	08002873 	stmdaeq	r0, {r0, r1, r4, r5, r6, fp, sp}
 8002408:	200002dc 	ldrdcs	r0, [r0], -ip
 800240c:	080028a7 	stmdaeq	r0, {r0, r1, r2, r5, r7, fp, sp}
 8002410:	080028b8 	stmdaeq	r0, {r3, r4, r5, r7, fp, sp}
 8002414:	080028cf 	stmdaeq	r0, {r0, r1, r2, r3, r6, r7, fp, sp}
 8002418:	200001a0 	andcs	r0, r0, r0, lsr #3
 800241c:	080028c6 	stmdaeq	r0, {r1, r2, r6, r7, fp, sp}
 8002420:	200001b0 			; <UNDEFINED> instruction: 0x200001b0
 8002424:	080028d5 	stmdaeq	r0, {r0, r2, r4, r6, r7, fp, sp}
 8002428:	080028e9 	stmdaeq	r0, {r0, r3, r5, r6, r7, fp, sp}
 800242c:	20000150 	andcs	r0, r0, r0, asr r1
 8002430:	080028f4 	stmdaeq	r0, {r2, r4, r5, r6, r7, fp, sp}
 8002434:	2000020c 	andcs	r0, r0, ip, lsl #4
 8002438:	08002903 	stmdaeq	r0, {r0, r1, r8, fp, sp}
 800243c:	20000154 	andcs	r0, r0, r4, asr r1
 8002440:	0800291a 	stmdaeq	r0, {r1, r3, r4, r8, fp, sp}
 8002444:	200001f4 	strdcs	r0, [r0], -r4
 8002448:	08002935 	stmdaeq	r0, {r0, r2, r4, r5, r8, fp, sp}
 800244c:	08002872 	stmdaeq	r0, {r1, r4, r5, r6, fp, sp}
 8002450:	08002944 	stmdaeq	r0, {r2, r6, r8, fp, sp}
 8002454:	080028ee 	stmdaeq	r0, {r1, r2, r3, r5, r6, r7, fp, sp}

08002458 <_ZN4TI2CILh3ELh1ELh2ELh200ELh3EE4stopEv>:
 8002458:	b570      	push	{r4, r5, r6, lr}
 800245a:	4604      	mov	r4, r0
 800245c:	f100 060c 	add.w	r6, r0, #12
 8002460:	f104 0508 	add.w	r5, r4, #8
 8002464:	4630      	mov	r0, r6
 8002466:	2100      	movs	r1, #0
 8002468:	f7ff febe 	bl	80021e8 <_ZN4GpioILh3ELh2ELh1EE8set_modeEh>
 800246c:	4628      	mov	r0, r5
 800246e:	2100      	movs	r1, #0
 8002470:	f7ff fe4a 	bl	8002108 <_ZN4GpioILh3ELh1ELh1EE8set_modeEh>
 8002474:	4630      	mov	r0, r6
 8002476:	2101      	movs	r1, #1
 8002478:	f7ff feb6 	bl	80021e8 <_ZN4GpioILh3ELh2ELh1EE8set_modeEh>
 800247c:	4628      	mov	r0, r5
 800247e:	2100      	movs	r1, #0
 8002480:	f7ff fe42 	bl	8002108 <_ZN4GpioILh3ELh1ELh1EE8set_modeEh>
 8002484:	4630      	mov	r0, r6
 8002486:	2101      	movs	r1, #1
 8002488:	f7ff feae 	bl	80021e8 <_ZN4GpioILh3ELh2ELh1EE8set_modeEh>
 800248c:	4628      	mov	r0, r5
 800248e:	2101      	movs	r1, #1
 8002490:	f7ff fe3a 	bl	8002108 <_ZN4GpioILh3ELh1ELh1EE8set_modeEh>
 8002494:	4620      	mov	r0, r4
 8002496:	e8bd 4070 	ldmia.w	sp!, {r4, r5, r6, lr}
 800249a:	f7fe bdff 	b.w	800109c <_ZN13I2C_Interface5delayEv>

0800249e <_ZN4TI2CILh3ELh1ELh2ELh200ELh3EE5startEv>:
 800249e:	b570      	push	{r4, r5, r6, lr}
 80024a0:	4604      	mov	r4, r0
 80024a2:	f100 060c 	add.w	r6, r0, #12
 80024a6:	f104 0508 	add.w	r5, r4, #8
 80024aa:	4630      	mov	r0, r6
 80024ac:	2101      	movs	r1, #1
 80024ae:	f7ff fe9b 	bl	80021e8 <_ZN4GpioILh3ELh2ELh1EE8set_modeEh>
 80024b2:	4628      	mov	r0, r5
 80024b4:	2101      	movs	r1, #1
 80024b6:	f7ff fe27 	bl	8002108 <_ZN4GpioILh3ELh1ELh1EE8set_modeEh>
 80024ba:	4630      	mov	r0, r6
 80024bc:	2101      	movs	r1, #1
 80024be:	f7ff fe93 	bl	80021e8 <_ZN4GpioILh3ELh2ELh1EE8set_modeEh>
 80024c2:	4628      	mov	r0, r5
 80024c4:	2100      	movs	r1, #0
 80024c6:	f7ff fe1f 	bl	8002108 <_ZN4GpioILh3ELh1ELh1EE8set_modeEh>
 80024ca:	4630      	mov	r0, r6
 80024cc:	2100      	movs	r1, #0
 80024ce:	f7ff fe8b 	bl	80021e8 <_ZN4GpioILh3ELh2ELh1EE8set_modeEh>
 80024d2:	4628      	mov	r0, r5
 80024d4:	2101      	movs	r1, #1
 80024d6:	f7ff fe17 	bl	8002108 <_ZN4GpioILh3ELh1ELh1EE8set_modeEh>
 80024da:	4620      	mov	r0, r4
 80024dc:	e8bd 4070 	ldmia.w	sp!, {r4, r5, r6, lr}
 80024e0:	f7fe bddc 	b.w	800109c <_ZN13I2C_Interface5delayEv>

080024e4 <_ZN4TI2CILh3ELh1ELh2ELh200ELh3EE4readEh>:
 80024e4:	e92d 43f8 	stmdb	sp!, {r3, r4, r5, r6, r7, r8, r9, lr}
 80024e8:	4604      	mov	r4, r0
 80024ea:	f100 0708 	add.w	r7, r0, #8
 80024ee:	4638      	mov	r0, r7
 80024f0:	4689      	mov	r9, r1
 80024f2:	f104 060c 	add.w	r6, r4, #12
 80024f6:	2101      	movs	r1, #1
 80024f8:	f7ff fe06 	bl	8002108 <_ZN4GpioILh3ELh1ELh1EE8set_modeEh>
 80024fc:	2100      	movs	r1, #0
 80024fe:	4630      	mov	r0, r6
 8002500:	f7ff fe72 	bl	80021e8 <_ZN4GpioILh3ELh2ELh1EE8set_modeEh>
 8002504:	4620      	mov	r0, r4
 8002506:	f7fe fdc9 	bl	800109c <_ZN13I2C_Interface5delayEv>
 800250a:	f04f 0809 	mov.w	r8, #9
 800250e:	2500      	movs	r5, #0
 8002510:	f1b8 0801 	subs.w	r8, r8, #1
 8002514:	d017      	beq.n	8002546 <_ZN4TI2CILh3ELh1ELh2ELh200ELh3EE4readEh+0x62>
 8002516:	2101      	movs	r1, #1
 8002518:	4630      	mov	r0, r6
 800251a:	f7ff fe65 	bl	80021e8 <_ZN4GpioILh3ELh2ELh1EE8set_modeEh>
 800251e:	4620      	mov	r0, r4
 8002520:	f7fe fdbc 	bl	800109c <_ZN13I2C_Interface5delayEv>
 8002524:	68a3      	ldr	r3, [r4, #8]
 8002526:	691b      	ldr	r3, [r3, #16]
 8002528:	006d      	lsls	r5, r5, #1
 800252a:	079b      	lsls	r3, r3, #30
 800252c:	4630      	mov	r0, r6
 800252e:	b2ed      	uxtb	r5, r5
 8002530:	f04f 0100 	mov.w	r1, #0
 8002534:	bf48      	it	mi
 8002536:	f045 0501 	orrmi.w	r5, r5, #1
 800253a:	f7ff fe55 	bl	80021e8 <_ZN4GpioILh3ELh2ELh1EE8set_modeEh>
 800253e:	4620      	mov	r0, r4
 8002540:	f7fe fdac 	bl	800109c <_ZN13I2C_Interface5delayEv>
 8002544:	e7e4      	b.n	8002510 <_ZN4TI2CILh3ELh1ELh2ELh200ELh3EE4readEh+0x2c>
 8002546:	f1b9 0f00 	cmp.w	r9, #0
 800254a:	d01e      	beq.n	800258a <_ZN4TI2CILh3ELh1ELh2ELh200ELh3EE4readEh+0xa6>
 800254c:	4641      	mov	r1, r8
 800254e:	4638      	mov	r0, r7
 8002550:	f7ff fdda 	bl	8002108 <_ZN4GpioILh3ELh1ELh1EE8set_modeEh>
 8002554:	4620      	mov	r0, r4
 8002556:	f7fe fda1 	bl	800109c <_ZN13I2C_Interface5delayEv>
 800255a:	2101      	movs	r1, #1
 800255c:	4630      	mov	r0, r6
 800255e:	f7ff fe43 	bl	80021e8 <_ZN4GpioILh3ELh2ELh1EE8set_modeEh>
 8002562:	4620      	mov	r0, r4
 8002564:	f7fe fd9a 	bl	800109c <_ZN13I2C_Interface5delayEv>
 8002568:	2100      	movs	r1, #0
 800256a:	4630      	mov	r0, r6
 800256c:	f7ff fe3c 	bl	80021e8 <_ZN4GpioILh3ELh2ELh1EE8set_modeEh>
 8002570:	4620      	mov	r0, r4
 8002572:	f7fe fd93 	bl	800109c <_ZN13I2C_Interface5delayEv>
 8002576:	2101      	movs	r1, #1
 8002578:	4638      	mov	r0, r7
 800257a:	f7ff fdc5 	bl	8002108 <_ZN4GpioILh3ELh1ELh1EE8set_modeEh>
 800257e:	4620      	mov	r0, r4
 8002580:	f7fe fd8c 	bl	800109c <_ZN13I2C_Interface5delayEv>
 8002584:	4628      	mov	r0, r5
 8002586:	e8bd 83f8 	ldmia.w	sp!, {r3, r4, r5, r6, r7, r8, r9, pc}
 800258a:	2101      	movs	r1, #1
 800258c:	e7df      	b.n	800254e <_ZN4TI2CILh3ELh1ELh2ELh200ELh3EE4readEh+0x6a>

0800258e <_ZN4TI2CILh3ELh1ELh2ELh200ELh3EE5writeEh>:
 800258e:	e92d 41f0 	stmdb	sp!, {r4, r5, r6, r7, r8, lr}
 8002592:	4604      	mov	r4, r0
 8002594:	460f      	mov	r7, r1
 8002596:	2609      	movs	r6, #9
 8002598:	f100 050c 	add.w	r5, r0, #12
 800259c:	f100 0808 	add.w	r8, r0, #8
 80025a0:	3e01      	subs	r6, #1
 80025a2:	d01a      	beq.n	80025da <_ZN4TI2CILh3ELh1ELh2ELh200ELh3EE5writeEh+0x4c>
 80025a4:	2100      	movs	r1, #0
 80025a6:	4628      	mov	r0, r5
 80025a8:	f7ff fe1e 	bl	80021e8 <_ZN4GpioILh3ELh2ELh1EE8set_modeEh>
 80025ac:	4620      	mov	r0, r4
 80025ae:	f7fe fd75 	bl	800109c <_ZN13I2C_Interface5delayEv>
 80025b2:	063b      	lsls	r3, r7, #24
 80025b4:	bf4c      	ite	mi
 80025b6:	2101      	movmi	r1, #1
 80025b8:	2100      	movpl	r1, #0
 80025ba:	4640      	mov	r0, r8
 80025bc:	f7ff fda4 	bl	8002108 <_ZN4GpioILh3ELh1ELh1EE8set_modeEh>
 80025c0:	4620      	mov	r0, r4
 80025c2:	f7fe fd6b 	bl	800109c <_ZN13I2C_Interface5delayEv>
 80025c6:	2101      	movs	r1, #1
 80025c8:	4628      	mov	r0, r5
 80025ca:	f7ff fe0d 	bl	80021e8 <_ZN4GpioILh3ELh2ELh1EE8set_modeEh>
 80025ce:	007f      	lsls	r7, r7, #1
 80025d0:	4620      	mov	r0, r4
 80025d2:	f7fe fd63 	bl	800109c <_ZN13I2C_Interface5delayEv>
 80025d6:	b2ff      	uxtb	r7, r7
 80025d8:	e7e2      	b.n	80025a0 <_ZN4TI2CILh3ELh1ELh2ELh200ELh3EE5writeEh+0x12>
 80025da:	4631      	mov	r1, r6
 80025dc:	4628      	mov	r0, r5
 80025de:	f7ff fe03 	bl	80021e8 <_ZN4GpioILh3ELh2ELh1EE8set_modeEh>
 80025e2:	4620      	mov	r0, r4
 80025e4:	f7fe fd5a 	bl	800109c <_ZN13I2C_Interface5delayEv>
 80025e8:	2101      	movs	r1, #1
 80025ea:	4640      	mov	r0, r8
 80025ec:	f7ff fd8c 	bl	8002108 <_ZN4GpioILh3ELh1ELh1EE8set_modeEh>
 80025f0:	4620      	mov	r0, r4
 80025f2:	f7fe fd53 	bl	800109c <_ZN13I2C_Interface5delayEv>
 80025f6:	2101      	movs	r1, #1
 80025f8:	4628      	mov	r0, r5
 80025fa:	f7ff fdf5 	bl	80021e8 <_ZN4GpioILh3ELh2ELh1EE8set_modeEh>
 80025fe:	4620      	mov	r0, r4
 8002600:	f7fe fd4c 	bl	800109c <_ZN13I2C_Interface5delayEv>
 8002604:	68a3      	ldr	r3, [r4, #8]
 8002606:	4631      	mov	r1, r6
 8002608:	691f      	ldr	r7, [r3, #16]
 800260a:	4628      	mov	r0, r5
 800260c:	f7ff fdec 	bl	80021e8 <_ZN4GpioILh3ELh2ELh1EE8set_modeEh>
 8002610:	4620      	mov	r0, r4
 8002612:	f7fe fd43 	bl	800109c <_ZN13I2C_Interface5delayEv>
 8002616:	f087 0002 	eor.w	r0, r7, #2
 800261a:	f3c0 0040 	ubfx	r0, r0, #1, #1
 800261e:	e8bd 81f0 	ldmia.w	sp!, {r4, r5, r6, r7, r8, pc}
 8002622:	0000      	movs	r0, r0

08002624 <_GLOBAL__sub_I_drivers>:
 8002624:	b538      	push	{r3, r4, r5, lr}
 8002626:	4d2f      	ldr	r5, [pc, #188]	; (80026e4 <_GLOBAL__sub_I_drivers+0xc0>)
 8002628:	4c2f      	ldr	r4, [pc, #188]	; (80026e8 <_GLOBAL__sub_I_drivers+0xc4>)
 800262a:	4628      	mov	r0, r5
 800262c:	f7ff fcb0 	bl	8001f90 <_ZN7DriversC1Ev>
 8002630:	4628      	mov	r0, r5
 8002632:	4d2e      	ldr	r5, [pc, #184]	; (80026ec <_GLOBAL__sub_I_drivers+0xc8>)
 8002634:	492e      	ldr	r1, [pc, #184]	; (80026f0 <_GLOBAL__sub_I_drivers+0xcc>)
 8002636:	4622      	mov	r2, r4
 8002638:	f7fe fd41 	bl	80010be <__aeabi_atexit>
 800263c:	4628      	mov	r0, r5
 800263e:	f7fe fe61 	bl	8001304 <_ZN8TerminalC1Ev>
 8002642:	4628      	mov	r0, r5
 8002644:	4d2b      	ldr	r5, [pc, #172]	; (80026f4 <_GLOBAL__sub_I_drivers+0xd0>)
 8002646:	492c      	ldr	r1, [pc, #176]	; (80026f8 <_GLOBAL__sub_I_drivers+0xd4>)
 8002648:	4622      	mov	r2, r4
 800264a:	f7fe fd38 	bl	80010be <__aeabi_atexit>
 800264e:	4628      	mov	r0, r5
 8002650:	f7ff fb80 	bl	8001d54 <_ZN5TimerC1Ev>
 8002654:	4628      	mov	r0, r5
 8002656:	4d29      	ldr	r5, [pc, #164]	; (80026fc <_GLOBAL__sub_I_drivers+0xd8>)
 8002658:	4929      	ldr	r1, [pc, #164]	; (8002700 <_GLOBAL__sub_I_drivers+0xdc>)
 800265a:	4622      	mov	r2, r4
 800265c:	f7fe fd2f 	bl	80010be <__aeabi_atexit>
 8002660:	4628      	mov	r0, r5
 8002662:	f7fe fccf 	bl	8001004 <_ZN13I2C_InterfaceC1Ev>
 8002666:	4628      	mov	r0, r5
 8002668:	4b26      	ldr	r3, [pc, #152]	; (8002704 <_GLOBAL__sub_I_drivers+0xe0>)
 800266a:	f840 3b08 	str.w	r3, [r0], #8
 800266e:	f7ff fda9 	bl	80021c4 <_ZN4GpioILh3ELh1ELh1EE4initEv>
 8002672:	f105 000c 	add.w	r0, r5, #12
 8002676:	f7ff fe15 	bl	80022a4 <_ZN4GpioILh3ELh2ELh1EE4initEv>
 800267a:	4628      	mov	r0, r5
 800267c:	4d22      	ldr	r5, [pc, #136]	; (8002708 <_GLOBAL__sub_I_drivers+0xe4>)
 800267e:	4923      	ldr	r1, [pc, #140]	; (800270c <_GLOBAL__sub_I_drivers+0xe8>)
 8002680:	4622      	mov	r2, r4
 8002682:	f7fe fd1c 	bl	80010be <__aeabi_atexit>
 8002686:	4628      	mov	r0, r5
 8002688:	f7ff f8ca 	bl	8001820 <_ZN3IMUC1Ev>
 800268c:	4628      	mov	r0, r5
 800268e:	4d20      	ldr	r5, [pc, #128]	; (8002710 <_GLOBAL__sub_I_drivers+0xec>)
 8002690:	4920      	ldr	r1, [pc, #128]	; (8002714 <_GLOBAL__sub_I_drivers+0xf0>)
 8002692:	4622      	mov	r2, r4
 8002694:	f7fe fd13 	bl	80010be <__aeabi_atexit>
 8002698:	4628      	mov	r0, r5
 800269a:	f7fe fe97 	bl	80013cc <_ZN9ADCDriverC1Ev>
 800269e:	4628      	mov	r0, r5
 80026a0:	4d1d      	ldr	r5, [pc, #116]	; (8002718 <_GLOBAL__sub_I_drivers+0xf4>)
 80026a2:	491e      	ldr	r1, [pc, #120]	; (800271c <_GLOBAL__sub_I_drivers+0xf8>)
 80026a4:	4622      	mov	r2, r4
 80026a6:	f7fe fd0a 	bl	80010be <__aeabi_atexit>
 80026aa:	4628      	mov	r0, r5
 80026ac:	f7fe ff42 	bl	8001534 <_ZN10LineSensorC1Ev>
 80026b0:	4628      	mov	r0, r5
 80026b2:	4d1b      	ldr	r5, [pc, #108]	; (8002720 <_GLOBAL__sub_I_drivers+0xfc>)
 80026b4:	491b      	ldr	r1, [pc, #108]	; (8002724 <_GLOBAL__sub_I_drivers+0x100>)
 80026b6:	4622      	mov	r2, r4
 80026b8:	f7fe fd01 	bl	80010be <__aeabi_atexit>
 80026bc:	4628      	mov	r0, r5
 80026be:	f7ff fa65 	bl	8001b8c <_ZN14DistanceSensorC1Ev>
 80026c2:	4628      	mov	r0, r5
 80026c4:	4d18      	ldr	r5, [pc, #96]	; (8002728 <_GLOBAL__sub_I_drivers+0x104>)
 80026c6:	4919      	ldr	r1, [pc, #100]	; (800272c <_GLOBAL__sub_I_drivers+0x108>)
 80026c8:	4622      	mov	r2, r4
 80026ca:	f7fe fcf8 	bl	80010be <__aeabi_atexit>
 80026ce:	4628      	mov	r0, r5
 80026d0:	f7fe fe9e 	bl	8001410 <_ZN3KeyC1Ev>
 80026d4:	4622      	mov	r2, r4
 80026d6:	4628      	mov	r0, r5
 80026d8:	4915      	ldr	r1, [pc, #84]	; (8002730 <_GLOBAL__sub_I_drivers+0x10c>)
 80026da:	e8bd 4038 	ldmia.w	sp!, {r3, r4, r5, lr}
 80026de:	f7fe bcee 	b.w	80010be <__aeabi_atexit>
 80026e2:	bf00      	nop
 80026e4:	20000198 	mulcs	r0, r8, r1
 80026e8:	20000008 	andcs	r0, r0, r8
 80026ec:	200002d8 	ldrdcs	r0, [r0], -r8
 80026f0:	08001f59 	stmdaeq	r0, {r0, r3, r4, r6, r8, r9, sl, fp, ip}
 80026f4:	200002dc 	ldrdcs	r0, [r0], -ip
 80026f8:	080012dd 	stmdaeq	r0, {r0, r2, r3, r4, r6, r7, r9, ip}
 80026fc:	200001a0 	andcs	r0, r0, r0, lsr #3
 8002700:	08001d57 	stmdaeq	r0, {r0, r1, r2, r4, r6, r8, sl, fp, ip}
 8002704:	08002838 	stmdaeq	r0, {r3, r4, r5, fp, sp}
 8002708:	200001b0 			; <UNDEFINED> instruction: 0x200001b0
 800270c:	08001f69 	stmdaeq	r0, {r0, r3, r5, r6, r8, r9, sl, fp, ip}
 8002710:	20000150 	andcs	r0, r0, r0, asr r1
 8002714:	08001811 	stmdaeq	r0, {r0, r4, fp, ip}
 8002718:	2000020c 	andcs	r0, r0, ip, lsl #4
 800271c:	080013bd 	stmdaeq	r0, {r0, r2, r3, r4, r5, r7, r8, r9, ip}
 8002720:	20000154 	andcs	r0, r0, r4, asr r1
 8002724:	08001515 	stmdaeq	r0, {r0, r2, r4, r8, sl, ip}
 8002728:	200001f4 	strdcs	r0, [r0], -r4
 800272c:	08001b7d 	stmdaeq	r0, {r0, r2, r3, r4, r5, r6, r8, r9, fp, ip}
 8002730:	080013df 	stmdaeq	r0, {r0, r1, r2, r3, r4, r6, r7, r8, r9, ip}

08002734 <AHBPrescTable>:
 8002734:	00000000 	andeq	r0, r0, r0
 8002738:	00000000 	andeq	r0, r0, r0
 800273c:	04030201 	streq	r0, [r3], #-513	; 0xfffffdff
 8002740:	09080706 	stmdbeq	r8, {r1, r2, r8, r9, sl}

08002744 <APBPrescTable>:
 8002744:	00000000 	andeq	r0, r0, r0
 8002748:	04030201 	streq	r0, [r3], #-513	; 0xfffffdff

0800274c <CSWTCH.38>:
 800274c:	08020401 	stmdaeq	r2, {r0, sl}

08002750 <CSWTCH.39>:
 8002750:	10101000 	andsne	r1, r0, r0
 8002754:	10101004 	andsne	r1, r0, r4
 8002758:	10101002 	andsne	r1, r0, r2
 800275c:	00000008 	andeq	r0, r0, r8

08002760 <_ZTV13I2C_Interface>:
 8002760:	00000000 	andeq	r0, r0, r0
 8002764:	00000000 	andeq	r0, r0, r0
 8002768:	08000ff1 	stmdaeq	r0, {r0, r4, r5, r6, r7, r8, r9, sl, fp}
 800276c:	08000ff3 	stmdaeq	r0, {r0, r1, r4, r5, r6, r7, r8, r9, sl, fp}
 8002770:	08000ff5 	stmdaeq	r0, {r0, r2, r4, r5, r6, r7, r8, r9, sl, fp}
 8002774:	08000ffb 	stmdaeq	r0, {r0, r1, r3, r4, r5, r6, r7, r8, r9, sl, fp}
 8002778:	08000fff 	stmdaeq	r0, {r0, r1, r2, r3, r4, r5, r6, r7, r8, r9, sl, fp}

0800277c <_ZL14breath_pattern>:
 800277c:	03020100 	movweq	r0, #8448	; 0x2100
 8002780:	07060504 	streq	r0, [r6, -r4, lsl #10]
 8002784:	03040506 	movweq	r0, #17670	; 0x4506
 8002788:	00000102 	andeq	r0, r0, r2, lsl #2

0800278c <_ZTV12BackLedLight>:
 800278c:	00000000 	andeq	r0, r0, r0
 8002790:	00000000 	andeq	r0, r0, r0
 8002794:	080010c3 	stmdaeq	r0, {r0, r1, r6, r7, ip}
 8002798:	080010c5 	stmdaeq	r0, {r0, r2, r6, r7, ip}
 800279c:	080010d5 	stmdaeq	r0, {r0, r2, r4, r6, r7, ip}

080027a0 <_ZTV8Terminal>:
 80027a0:	00000000 	andeq	r0, r0, r0
 80027a4:	00000000 	andeq	r0, r0, r0
 80027a8:	080012dd 	stmdaeq	r0, {r0, r2, r3, r4, r6, r7, r9, ip}
 80027ac:	080012f1 	stmdaeq	r0, {r0, r4, r5, r6, r7, r9, ip}

080027b0 <_ZTV9ADCDriver>:
 80027b0:	00000000 	andeq	r0, r0, r0
 80027b4:	00000000 	andeq	r0, r0, r0
 80027b8:	080013bd 	stmdaeq	r0, {r0, r2, r3, r4, r5, r7, r8, r9, ip}
 80027bc:	080013bf 	stmdaeq	r0, {r0, r1, r2, r3, r4, r5, r7, r8, r9, ip}

080027c0 <_ZTV3Key>:
 80027c0:	00000000 	andeq	r0, r0, r0
 80027c4:	00000000 	andeq	r0, r0, r0
 80027c8:	080013df 	stmdaeq	r0, {r0, r1, r2, r3, r4, r6, r7, r8, r9, ip}
 80027cc:	080013e1 	stmdaeq	r0, {r0, r5, r6, r7, r8, r9, ip}
 80027d0:	080013ef 	stmdaeq	r0, {r0, r1, r2, r3, r5, r6, r7, r8, r9, ip}

080027d4 <_ZTV5ArrayIiLj8EE>:
 80027d4:	00000000 	andeq	r0, r0, r0
 80027d8:	00000000 	andeq	r0, r0, r0
 80027dc:	08001517 	stmdaeq	r0, {r0, r1, r2, r4, r8, sl, ip}
 80027e0:	08001519 	stmdaeq	r0, {r0, r3, r4, r8, sl, ip}

080027e4 <_ZTV10LineSensor>:
 80027e4:	00000000 	andeq	r0, r0, r0
 80027e8:	00000000 	andeq	r0, r0, r0
 80027ec:	08001515 	stmdaeq	r0, {r0, r2, r4, r8, sl, ip}
 80027f0:	08001527 	stmdaeq	r0, {r0, r1, r2, r5, r8, sl, ip}
 80027f4:	08001795 	stmdaeq	r0, {r0, r2, r4, r7, r8, r9, sl, ip}

080027f8 <_ZTV3IMU>:
 80027f8:	00000000 	andeq	r0, r0, r0
 80027fc:	00000000 	andeq	r0, r0, r0
 8002800:	08001811 	stmdaeq	r0, {r0, r4, fp, ip}
 8002804:	08001813 	stmdaeq	r0, {r0, r1, r4, fp, ip}
 8002808:	080019a9 	stmdaeq	r0, {r0, r3, r5, r7, r8, fp, ip}

0800280c <_ZTV5Usart>:
 800280c:	00000000 	andeq	r0, r0, r0
 8002810:	00000000 	andeq	r0, r0, r0
 8002814:	08001ad1 	stmdaeq	r0, {r0, r4, r6, r7, r9, fp, ip}
 8002818:	08001ad3 	stmdaeq	r0, {r0, r1, r4, r6, r7, r9, fp, ip}

0800281c <_ZTV14DistanceSensor>:
 800281c:	00000000 	andeq	r0, r0, r0
 8002820:	00000000 	andeq	r0, r0, r0
 8002824:	08001b7d 	stmdaeq	r0, {r0, r2, r3, r4, r5, r6, r8, r9, fp, ip}
 8002828:	08001b7f 	stmdaeq	r0, {r0, r1, r2, r3, r4, r5, r6, r8, r9, fp, ip}
 800282c:	08001ca5 	stmdaeq	r0, {r0, r2, r5, r7, sl, fp, ip}

08002830 <_ZTV4TI2CILh3ELh1ELh2ELh200ELh3EE>:
 8002830:	00000000 	andeq	r0, r0, r0
 8002834:	00000000 	andeq	r0, r0, r0
 8002838:	0800249f 	stmdaeq	r0, {r0, r1, r2, r3, r4, r7, sl, sp}
 800283c:	08002459 	stmdaeq	r0, {r0, r3, r4, r6, sl, sp}
 8002840:	080022c9 	stmdaeq	r0, {r0, r3, r6, r7, r9, sp}
 8002844:	0800258f 	stmdaeq	r0, {r0, r1, r2, r3, r7, r8, sl, sp}
 8002848:	080024e5 	stmdaeq	r0, {r0, r2, r5, r6, r7, sl, sp}
 800284c:	08001f69 	stmdaeq	r0, {r0, r3, r5, r6, r8, r9, sl, fp, ip}
 8002850:	08001f7d 	stmdaeq	r0, {r0, r2, r3, r4, r5, r6, r8, r9, sl, fp, ip}
 8002854:	74736509 	ldrbtvc	r6, [r3], #-1289	; 0xfffffaf7
 8002858:	756d695f 	strbvc	r6, [sp, #-2399]!	; 0xfffff6a1
 800285c:	6e65735f 	mcrvs	3, 3, r7, cr5, cr15, {2}
 8002860:	0a726f73 	beq	9c9e634 <_sidata+0x1c9bcc8>
 8002864:	203a2000 	eorscs	r2, sl, r0
 8002868:	0a0a0a00 	beq	8285070 <_sidata+0x282704>
 800286c:	23232323 			; <UNDEFINED> instruction: 0x23232323
 8002870:	0a0a0a23 	beq	8285104 <_sidata+0x282798>
 8002874:	72657400 	rsbvc	r7, r5, #0, 8
 8002878:	616e696d 	cmnvs	lr, sp, ror #18
 800287c:	6e69206c 	cdpvs	0, 6, cr2, cr9, cr12, {3}
 8002880:	64207469 	strtvs	r7, [r0], #-1129	; 0xfffffb97
 8002884:	0a656e6f 	beq	995e248 <_sidata+0x195b8dc>
 8002888:	6d656d00 	stclvs	13, cr6, [r5, #-0]
 800288c:	696e6920 	stmdbvs	lr!, {r5, r8, fp, sp, lr}^
 8002890:	6f642074 	svcvs	0x00642074
 8002894:	202c656e 	eorcs	r6, ip, lr, ror #10
 8002898:	70616568 	rsbvc	r6, r1, r8, ror #10
 800289c:	61747320 	cmnvs	r4, r0, lsr #6
 80028a0:	61207472 			; <UNDEFINED> instruction: 0x61207472
 80028a4:	74002074 	strvc	r2, [r0], #-116	; 0xffffff8c
 80028a8:	72656d69 	rsbvc	r6, r5, #6720	; 0x1a40
 80028ac:	696e6920 	stmdbvs	lr!, {r5, r8, fp, sp, lr}^
 80028b0:	6f642074 	svcvs	0x00642074
 80028b4:	000a656e 	andeq	r6, sl, lr, ror #10
 80028b8:	616c6564 	cmnvs	ip, r4, ror #10
 80028bc:	30322079 	eorscc	r2, r2, r9, ror r0
 80028c0:	736d2030 	cmnvc	sp, #48	; 0x30
 80028c4:	32690020 	rsbcc	r0, r9, #32
 80028c8:	6e692063 	cdpvs	0, 6, cr2, cr9, cr3, {3}
 80028cc:	64207469 	strtvs	r7, [r0], #-1129	; 0xfffffb97
 80028d0:	0a656e6f 	beq	995e294 <_sidata+0x195b928>
 80028d4:	756d6900 	strbvc	r6, [sp, #-2304]!	; 0xfffff700
 80028d8:	696e6920 	stmdbvs	lr!, {r5, r8, fp, sp, lr}^
 80028dc:	6f642074 	svcvs	0x00642074
 80028e0:	7720656e 	strvc	r6, [r0, -lr, ror #10]!
 80028e4:	20687469 	rsbcs	r7, r8, r9, ror #8
 80028e8:	75727400 	ldrbvc	r7, [r2, #-1024]!	; 0xfffffc00
 80028ec:	61660065 	cmnvs	r6, r5, rrx
 80028f0:	0065736c 	rsbeq	r7, r5, ip, ror #6
 80028f4:	20636461 	rsbcs	r6, r3, r1, ror #8
 80028f8:	74696e69 	strbtvc	r6, [r9], #-3689	; 0xfffff197
 80028fc:	6e6f6420 	cdpvs	4, 6, cr6, cr15, cr0, {1}
 8002900:	6c000a65 			; <UNDEFINED> instruction: 0x6c000a65
 8002904:	20656e69 	rsbcs	r6, r5, r9, ror #28
 8002908:	736e6573 	cmnvc	lr, #482344960	; 0x1cc00000
 800290c:	6920726f 	stmdbvs	r0!, {r0, r1, r2, r3, r5, r6, r9, ip, sp, lr}
 8002910:	2074696e 	rsbscs	r6, r4, lr, ror #18
 8002914:	656e6f64 	strbvs	r6, [lr, #-3940]!	; 0xfffff09c
 8002918:	6964000a 	stmdbvs	r4!, {r1, r3}^
 800291c:	6e617473 	mcrvs	4, 3, r7, cr1, cr3, {3}
 8002920:	73206563 			; <UNDEFINED> instruction: 0x73206563
 8002924:	6f736e65 	svcvs	0x00736e65
 8002928:	6e692072 	mcrvs	0, 3, r2, cr9, cr2, {3}
 800292c:	64207469 	strtvs	r7, [r0], #-1129	; 0xfffffb97
 8002930:	0a656e6f 	beq	995e2f4 <_sidata+0x195b988>
 8002934:	79656b00 	stmdbvc	r5!, {r8, r9, fp, sp, lr}^
 8002938:	696e6920 	stmdbvs	lr!, {r5, r8, fp, sp, lr}^
 800293c:	6f642074 	svcvs	0x00642074
 8002940:	000a656e 	andeq	r6, sl, lr, ror #10
 8002944:	74737973 	ldrbtvc	r7, [r3], #-2419	; 0xfffff68d
 8002948:	69206d65 	stmdbvs	r0!, {r0, r2, r5, r6, r8, sl, fp, sp, lr}
 800294c:	2074696e 	rsbscs	r6, r4, lr, ror #18
 8002950:	656e6f64 	strbvs	r6, [lr, #-3940]!	; 0xfffff09c
 8002954:	0000000a 	andeq	r0, r0, sl

08002958 <_ZTV7Drivers>:
 8002958:	00000000 	andeq	r0, r0, r0
 800295c:	00000000 	andeq	r0, r0, r0
 8002960:	08001f59 	stmdaeq	r0, {r0, r3, r4, r6, r8, r9, sl, fp, ip}
 8002964:	08001f5b 	stmdaeq	r0, {r0, r1, r3, r4, r6, r8, r9, sl, fp, ip}

Disassembly of section .init_array:

08002968 <__init_array_start>:
 8002968:	08002625 	stmdaeq	r0, {r0, r2, r5, r9, sl, sp}

Disassembly of section .data:

20000000 <SystemCoreClock>:
20000000:	00f42400 	rscseq	r2, r4, r0, lsl #8

Disassembly of section .bss:

20000004 <_sbss>:
20000004:	00000000 	andeq	r0, r0, r0

20000008 <__dso_handle>:
20000008:	00000000 	andeq	r0, r0, r0

2000000c <g_time>:
2000000c:	00000000 	andeq	r0, r0, r0

20000010 <g_timers>:
20000010:	00000000 	andeq	r0, r0, r0
20000014:	00000000 	andeq	r0, r0, r0
20000018:	00000000 	andeq	r0, r0, r0
2000001c:	00000000 	andeq	r0, r0, r0
20000020:	00000000 	andeq	r0, r0, r0
20000024:	00000000 	andeq	r0, r0, r0
20000028:	00000000 	andeq	r0, r0, r0
2000002c:	00000000 	andeq	r0, r0, r0
20000030:	00000000 	andeq	r0, r0, r0
20000034:	00000000 	andeq	r0, r0, r0
20000038:	00000000 	andeq	r0, r0, r0
2000003c:	00000000 	andeq	r0, r0, r0
20000040:	00000000 	andeq	r0, r0, r0
20000044:	00000000 	andeq	r0, r0, r0
20000048:	00000000 	andeq	r0, r0, r0
2000004c:	00000000 	andeq	r0, r0, r0
20000050:	00000000 	andeq	r0, r0, r0
20000054:	00000000 	andeq	r0, r0, r0
20000058:	00000000 	andeq	r0, r0, r0
2000005c:	00000000 	andeq	r0, r0, r0
20000060:	00000000 	andeq	r0, r0, r0
20000064:	00000000 	andeq	r0, r0, r0
20000068:	00000000 	andeq	r0, r0, r0
2000006c:	00000000 	andeq	r0, r0, r0
20000070:	00000000 	andeq	r0, r0, r0
20000074:	00000000 	andeq	r0, r0, r0
20000078:	00000000 	andeq	r0, r0, r0
2000007c:	00000000 	andeq	r0, r0, r0
20000080:	00000000 	andeq	r0, r0, r0
20000084:	00000000 	andeq	r0, r0, r0
20000088:	00000000 	andeq	r0, r0, r0
2000008c:	00000000 	andeq	r0, r0, r0
20000090:	00000000 	andeq	r0, r0, r0
20000094:	00000000 	andeq	r0, r0, r0
20000098:	00000000 	andeq	r0, r0, r0
2000009c:	00000000 	andeq	r0, r0, r0
200000a0:	00000000 	andeq	r0, r0, r0
200000a4:	00000000 	andeq	r0, r0, r0
200000a8:	00000000 	andeq	r0, r0, r0
200000ac:	00000000 	andeq	r0, r0, r0
200000b0:	00000000 	andeq	r0, r0, r0
200000b4:	00000000 	andeq	r0, r0, r0
200000b8:	00000000 	andeq	r0, r0, r0
200000bc:	00000000 	andeq	r0, r0, r0
200000c0:	00000000 	andeq	r0, r0, r0
200000c4:	00000000 	andeq	r0, r0, r0
200000c8:	00000000 	andeq	r0, r0, r0
200000cc:	00000000 	andeq	r0, r0, r0
200000d0:	00000000 	andeq	r0, r0, r0
200000d4:	00000000 	andeq	r0, r0, r0
200000d8:	00000000 	andeq	r0, r0, r0
200000dc:	00000000 	andeq	r0, r0, r0
200000e0:	00000000 	andeq	r0, r0, r0
200000e4:	00000000 	andeq	r0, r0, r0
200000e8:	00000000 	andeq	r0, r0, r0
200000ec:	00000000 	andeq	r0, r0, r0
200000f0:	00000000 	andeq	r0, r0, r0
200000f4:	00000000 	andeq	r0, r0, r0
200000f8:	00000000 	andeq	r0, r0, r0
200000fc:	00000000 	andeq	r0, r0, r0
20000100:	00000000 	andeq	r0, r0, r0
20000104:	00000000 	andeq	r0, r0, r0
20000108:	00000000 	andeq	r0, r0, r0
2000010c:	00000000 	andeq	r0, r0, r0
20000110:	00000000 	andeq	r0, r0, r0
20000114:	00000000 	andeq	r0, r0, r0
20000118:	00000000 	andeq	r0, r0, r0
2000011c:	00000000 	andeq	r0, r0, r0
20000120:	00000000 	andeq	r0, r0, r0
20000124:	00000000 	andeq	r0, r0, r0
20000128:	00000000 	andeq	r0, r0, r0
2000012c:	00000000 	andeq	r0, r0, r0
20000130:	00000000 	andeq	r0, r0, r0
20000134:	00000000 	andeq	r0, r0, r0
20000138:	00000000 	andeq	r0, r0, r0
2000013c:	00000000 	andeq	r0, r0, r0
20000140:	00000000 	andeq	r0, r0, r0
20000144:	00000000 	andeq	r0, r0, r0
20000148:	00000000 	andeq	r0, r0, r0
2000014c:	00000000 	andeq	r0, r0, r0

20000150 <adc>:
20000150:	00000000 	andeq	r0, r0, r0

20000154 <distance_sensor>:
20000154:	00000000 	andeq	r0, r0, r0
20000158:	00000000 	andeq	r0, r0, r0
2000015c:	00000000 	andeq	r0, r0, r0
20000160:	00000000 	andeq	r0, r0, r0
20000164:	00000000 	andeq	r0, r0, r0
20000168:	00000000 	andeq	r0, r0, r0
2000016c:	00000000 	andeq	r0, r0, r0
20000170:	00000000 	andeq	r0, r0, r0
20000174:	00000000 	andeq	r0, r0, r0
20000178:	00000000 	andeq	r0, r0, r0
2000017c:	00000000 	andeq	r0, r0, r0
20000180:	00000000 	andeq	r0, r0, r0
20000184:	00000000 	andeq	r0, r0, r0
20000188:	00000000 	andeq	r0, r0, r0
2000018c:	00000000 	andeq	r0, r0, r0
20000190:	00000000 	andeq	r0, r0, r0
20000194:	00000000 	andeq	r0, r0, r0

20000198 <drivers>:
20000198:	00000000 	andeq	r0, r0, r0
2000019c:	00000000 	andeq	r0, r0, r0

200001a0 <i2c>:
200001a0:	00000000 	andeq	r0, r0, r0
200001a4:	00000000 	andeq	r0, r0, r0
200001a8:	00000000 	andeq	r0, r0, r0
200001ac:	00000000 	andeq	r0, r0, r0

200001b0 <imu_sensor>:
200001b0:	00000000 	andeq	r0, r0, r0
200001b4:	00000000 	andeq	r0, r0, r0
200001b8:	00000000 	andeq	r0, r0, r0
200001bc:	00000000 	andeq	r0, r0, r0
200001c0:	00000000 	andeq	r0, r0, r0
200001c4:	00000000 	andeq	r0, r0, r0
200001c8:	00000000 	andeq	r0, r0, r0
200001cc:	00000000 	andeq	r0, r0, r0
200001d0:	00000000 	andeq	r0, r0, r0
200001d4:	00000000 	andeq	r0, r0, r0
200001d8:	00000000 	andeq	r0, r0, r0
200001dc:	00000000 	andeq	r0, r0, r0
200001e0:	00000000 	andeq	r0, r0, r0
200001e4:	00000000 	andeq	r0, r0, r0
200001e8:	00000000 	andeq	r0, r0, r0
200001ec:	00000000 	andeq	r0, r0, r0
200001f0:	00000000 	andeq	r0, r0, r0

200001f4 <key>:
200001f4:	00000000 	andeq	r0, r0, r0
200001f8:	00000000 	andeq	r0, r0, r0
200001fc:	00000000 	andeq	r0, r0, r0
20000200:	00000000 	andeq	r0, r0, r0
20000204:	00000000 	andeq	r0, r0, r0
20000208:	00000000 	andeq	r0, r0, r0

2000020c <line_sensor>:
2000020c:	00000000 	andeq	r0, r0, r0
20000210:	00000000 	andeq	r0, r0, r0
20000214:	00000000 	andeq	r0, r0, r0
20000218:	00000000 	andeq	r0, r0, r0
2000021c:	00000000 	andeq	r0, r0, r0
20000220:	00000000 	andeq	r0, r0, r0
20000224:	00000000 	andeq	r0, r0, r0
20000228:	00000000 	andeq	r0, r0, r0
2000022c:	00000000 	andeq	r0, r0, r0
20000230:	00000000 	andeq	r0, r0, r0
20000234:	00000000 	andeq	r0, r0, r0
20000238:	00000000 	andeq	r0, r0, r0
2000023c:	00000000 	andeq	r0, r0, r0
20000240:	00000000 	andeq	r0, r0, r0
20000244:	00000000 	andeq	r0, r0, r0
20000248:	00000000 	andeq	r0, r0, r0
2000024c:	00000000 	andeq	r0, r0, r0
20000250:	00000000 	andeq	r0, r0, r0
20000254:	00000000 	andeq	r0, r0, r0
20000258:	00000000 	andeq	r0, r0, r0
2000025c:	00000000 	andeq	r0, r0, r0
20000260:	00000000 	andeq	r0, r0, r0
20000264:	00000000 	andeq	r0, r0, r0
20000268:	00000000 	andeq	r0, r0, r0
2000026c:	00000000 	andeq	r0, r0, r0
20000270:	00000000 	andeq	r0, r0, r0
20000274:	00000000 	andeq	r0, r0, r0
20000278:	00000000 	andeq	r0, r0, r0
2000027c:	00000000 	andeq	r0, r0, r0
20000280:	00000000 	andeq	r0, r0, r0
20000284:	00000000 	andeq	r0, r0, r0
20000288:	00000000 	andeq	r0, r0, r0
2000028c:	00000000 	andeq	r0, r0, r0
20000290:	00000000 	andeq	r0, r0, r0
20000294:	00000000 	andeq	r0, r0, r0
20000298:	00000000 	andeq	r0, r0, r0
2000029c:	00000000 	andeq	r0, r0, r0
200002a0:	00000000 	andeq	r0, r0, r0
200002a4:	00000000 	andeq	r0, r0, r0
200002a8:	00000000 	andeq	r0, r0, r0
200002ac:	00000000 	andeq	r0, r0, r0
200002b0:	00000000 	andeq	r0, r0, r0
200002b4:	00000000 	andeq	r0, r0, r0
200002b8:	00000000 	andeq	r0, r0, r0
200002bc:	00000000 	andeq	r0, r0, r0
200002c0:	00000000 	andeq	r0, r0, r0
200002c4:	00000000 	andeq	r0, r0, r0
200002c8:	00000000 	andeq	r0, r0, r0
200002cc:	00000000 	andeq	r0, r0, r0
200002d0:	00000000 	andeq	r0, r0, r0
200002d4:	00000000 	andeq	r0, r0, r0

200002d8 <terminal>:
200002d8:	00000000 	andeq	r0, r0, r0

200002dc <timer>:
200002dc:	00000000 	andeq	r0, r0, r0

200002e0 <uwTick>:
200002e0:	00000000 	andeq	r0, r0, r0

Disassembly of section .comment:

00000000 <.comment>:
   0:	3a434347 	bcc	10d0d24 <__text_size__+0x10ce584>
   4:	35312820 	ldrcc	r2, [r1, #-2080]!	; 0xfffff7e0
   8:	332e363a 			; <UNDEFINED> instruction: 0x332e363a
   c:	732b312e 			; <UNDEFINED> instruction: 0x732b312e
  10:	35326e76 	ldrcc	r6, [r2, #-3702]!	; 0xfffff18a
  14:	39333033 	ldmdbcc	r3!, {r0, r1, r4, r5, ip, sp}
  18:	7562312d 	strbvc	r3, [r2, #-301]!	; 0xfffffed3
  1c:	31646c69 	cmncc	r4, r9, ror #24
  20:	2e362029 	cdpcs	0, 3, cr2, cr6, cr9, {1}
  24:	20312e33 	eorscs	r2, r1, r3, lsr lr
  28:	37313032 			; <UNDEFINED> instruction: 0x37313032
  2c:	30323630 	eorscc	r3, r2, r0, lsr r6
  30:	Address 0x0000000000000030 is out of bounds.


Disassembly of section .ARM.attributes:

00000000 <.ARM.attributes>:
   0:	00003441 	andeq	r3, r0, r1, asr #8
   4:	61656100 	cmnvs	r5, r0, lsl #2
   8:	01006962 	tsteq	r0, r2, ror #18
   c:	0000002a 	andeq	r0, r0, sl, lsr #32
  10:	726f4305 	rsbvc	r4, pc, #335544320	; 0x14000000
  14:	2d786574 	cfldr64cs	mvdx6, [r8, #-464]!	; 0xfffffe30
  18:	0600344d 	streq	r3, [r0], -sp, asr #8
  1c:	094d070d 	stmdbeq	sp, {r0, r2, r3, r8, r9, sl}^
  20:	12020a02 	andne	r0, r2, #8192	; 0x2000
  24:	15011404 	strne	r1, [r1, #-1028]	; 0xfffffbfc
  28:	18031701 	stmdane	r3, {r0, r8, r9, sl, ip}
  2c:	1a011901 	bne	46438 <__text_size__+0x43c98>
  30:	22041e01 	andcs	r1, r4, #1, 28
  34:	Address 0x0000000000000034 is out of bounds.

